000000000044df40 r CSWTCH.54350
000000000044df20 r CSWTCH.54351
000000000044df40 r CSWTCH.54391
000000000044df20 r CSWTCH.54392
000000000044df40 r CSWTCH.54486
000000000044df20 r CSWTCH.54487
000000000044df40 r CSWTCH.54527
000000000044df20 r CSWTCH.54528
000000000044df40 r CSWTCH.59508
000000000044df20 r CSWTCH.59509
000000000044df40 r CSWTCH.59551
000000000044df20 r CSWTCH.59552
000000000044df40 r CSWTCH.59654
000000000044df20 r CSWTCH.59655
000000000044df40 r CSWTCH.59697
000000000044df20 r CSWTCH.59698
00000000005009c8 d DW.ref._ZTIN7autopas5utils16ExceptionHandler16AutoPasExceptionE
00000000005009b0 d DW.ref._ZTISt9exception
00000000005009b8 d DW.ref.__gxx_personality_v0
                 U GOMP_barrier@GOMP_1.0
                 U GOMP_critical_end@GOMP_1.0
                 U GOMP_critical_start@GOMP_1.0
                 U GOMP_loop_end@GOMP_1.0
                 U GOMP_loop_end_nowait@GOMP_1.0
                 U GOMP_loop_nonmonotonic_dynamic_next@GOMP_4.5
                 U GOMP_loop_nonmonotonic_dynamic_start@GOMP_4.5
                 U GOMP_loop_ull_maybe_nonmonotonic_runtime_next@GOMP_5.0
                 U GOMP_loop_ull_maybe_nonmonotonic_runtime_start@GOMP_5.0
                 U GOMP_loop_ull_nonmonotonic_dynamic_next@GOMP_4.5
                 U GOMP_loop_ull_nonmonotonic_dynamic_start@GOMP_4.5
                 U GOMP_parallel@GOMP_4.0
                 U GOMP_single_start@GOMP_1.0
00000000004fa838 d _DYNAMIC
00000000004fe000 d _GLOBAL_OFFSET_TABLE_
00000000001d5b60 t _GLOBAL__sub_I_AutoPasConfigurationCommunicator.cpp
00000000001d5bd0 t _GLOBAL__sub_I_ConfigurationAndRankIteratorHandler.cpp
00000000001d5cc0 t _GLOBAL__sub_I_ExceptionHandler.cpp
00000000001d5d80 t _GLOBAL__sub_I_GaussianClusterLogger.cpp
00000000001d6230 t _GLOBAL__sub_I_GaussianHyperparameters.cpp
00000000001d5e70 t _GLOBAL__sub_I_IterationLogger.cpp
00000000001d6320 t _GLOBAL__sub_I_MPIParallelizedStrategy.cpp
00000000001d5f60 t _GLOBAL__sub_I_PredictionLogger.cpp
00000000001d5d50 t _GLOBAL__sub_I_Timer.cpp
00000000001d6050 t _GLOBAL__sub_I_TuningDataLogger.cpp
00000000001d6140 t _GLOBAL__sub_I_TuningResultLogger.cpp
00000000001d5af0 t _GLOBAL__sub_I_TuningStrategyFactory.cpp
00000000001d5a80 t _GLOBAL__sub_I_bindings.cpp
                 w _ITM_deregisterTMCloneTable
                 w _ITM_registerTMCloneTable
                 U _Unwind_Resume@GCC_3.0
00000000003336f0 W _Z17getStaticCellIterIN7autopas14OctreeLeafNodeINS0_10MoleculeLJIdEEEEENT_10iterator_tERS5_
0000000000338f10 W _Z17getStaticCellIterIN7autopas16FullParticleCellINS0_10MoleculeLJIdEEEEENT_10iterator_tERS5_
00000000001dcb40 T _Z6getBoxRN7autopas7AutoPasINS_10MoleculeLJIdEEEE
00000000001cff8c t _Z6getBoxRN7autopas7AutoPasINS_10MoleculeLJIdEEEE.cold
00000000001d8820 T _Z6setBoxRN7autopas7AutoPasINS_10MoleculeLJIdEEEE
00000000001d81d0 T _Z7get_vecddd
00000000001ceb0c t _Z7get_vecddd.cold
0000000000501a88 u _ZGVZN5Eigen8internal20manage_caching_sizesENS_6ActionEPlS2_S2_E12m_cacheSizes
0000000000501020 u _ZGVZN5jlcxx10julia_typeI8HydrogenEEP14_jl_datatype_tvE2dt
0000000000501098 u _ZGVZN5jlcxx10julia_typeIN7autopas10MoleculeLJIdEEEEP14_jl_datatype_tvE2dt
00000000005010a8 u _ZGVZN5jlcxx10julia_typeIN7autopas10MoleculeLJIfEEEEP14_jl_datatype_tvE2dt
0000000000501078 u _ZGVZN5jlcxx10julia_typeIN7autopas12ParticleBaseIdlEEEEP14_jl_datatype_tvE2dt
0000000000501088 u _ZGVZN5jlcxx10julia_typeIN7autopas12ParticleBaseIfiEEEEP14_jl_datatype_tvE2dt
0000000000501048 u _ZGVZN5jlcxx10julia_typeIN7autopas23ParticleIteratorWrapperINS1_10MoleculeLJIdEELb1EEEEEP14_jl_datatype_tvE2dt
0000000000501068 u _ZGVZN5jlcxx10julia_typeIN7autopas25ParticleIteratorInterfaceINS1_10MoleculeLJIdEELb1EEEEEP14_jl_datatype_tvE2dt
0000000000501038 u _ZGVZN5jlcxx10julia_typeIN7autopas7AutoPasINS1_10MoleculeLJIdEEEEEEP14_jl_datatype_tvE2dt
0000000000500c98 u _ZGVZN5jlcxx10julia_typeIN7autopas7options16IteratorBehaviorEEEP14_jl_datatype_tvE2dt
0000000000501058 u _ZGVZN5jlcxx10julia_typeIN7autopas8internal29ParticleIteratorInterfaceImplINS1_10MoleculeLJIdEELb1EEEEEP14_jl_datatype_tvE2dt
0000000000500da8 u _ZGVZN5jlcxx10julia_typeINS_8ArrayRefIN7autopas10MoleculeLJIdEELi1EEEEEP14_jl_datatype_tvE2dt
0000000000500d28 u _ZGVZN5jlcxx10julia_typeINS_8ArrayRefIdLi1EEEEEP14_jl_datatype_tvE2dt
0000000000500ec0 u _ZGVZN5jlcxx10julia_typeINSt7__cxx1112basic_stringIcSt11char_traitsIcESaIcEEEEEP14_jl_datatype_tvE2dt
0000000000500b88 u _ZGVZN5jlcxx10julia_typeIP8HydrogenEEP14_jl_datatype_tvE2dt
0000000000500d78 u _ZGVZN5jlcxx10julia_typeIPKN7autopas10MoleculeLJIdEEEEP14_jl_datatype_tvE2dt
0000000000500c58 u _ZGVZN5jlcxx10julia_typeIPKN7autopas10MoleculeLJIfEEEEP14_jl_datatype_tvE2dt
0000000000500c88 u _ZGVZN5jlcxx10julia_typeIPKN7autopas23ParticleIteratorWrapperINS1_10MoleculeLJIdEELb1EEEEEP14_jl_datatype_tvE2dt
0000000000500d98 u _ZGVZN5jlcxx10julia_typeIPKSt6vectorIN7autopas10MoleculeLJIdEESaIS4_EEEEP14_jl_datatype_tvE2dt
0000000000500d18 u _ZGVZN5jlcxx10julia_typeIPKSt6vectorIdSaIdEEEEP14_jl_datatype_tvE2dt
0000000000500d48 u _ZGVZN5jlcxx10julia_typeIPKSt8valarrayIN7autopas10MoleculeLJIdEEEEEP14_jl_datatype_tvE2dt
0000000000500cc8 u _ZGVZN5jlcxx10julia_typeIPKSt8valarrayIdEEEP14_jl_datatype_tvE2dt
0000000000500cf8 u _ZGVZN5jlcxx10julia_typeIPKdEEP14_jl_datatype_tvE2dt
0000000000500c68 u _ZGVZN5jlcxx10julia_typeIPN7autopas10MoleculeLJIdEEEEP14_jl_datatype_tvE2dt
0000000000500c38 u _ZGVZN5jlcxx10julia_typeIPN7autopas10MoleculeLJIfEEEEP14_jl_datatype_tvE2dt
0000000000500ba8 u _ZGVZN5jlcxx10julia_typeIPN7autopas12ParticleBaseIdlEEEEP14_jl_datatype_tvE2dt
0000000000500b98 u _ZGVZN5jlcxx10julia_typeIPN7autopas12ParticleBaseIfiEEEEP14_jl_datatype_tvE2dt
0000000000500bf8 u _ZGVZN5jlcxx10julia_typeIPN7autopas23ParticleIteratorWrapperINS1_10MoleculeLJIdEELb1EEEEEP14_jl_datatype_tvE2dt
0000000000500bb8 u _ZGVZN5jlcxx10julia_typeIPN7autopas25ParticleIteratorInterfaceINS1_10MoleculeLJIdEELb1EEEEEP14_jl_datatype_tvE2dt
0000000000500ca8 u _ZGVZN5jlcxx10julia_typeIPN7autopas7AutoPasINS1_10MoleculeLJIdEEEEEEP14_jl_datatype_tvE2dt
0000000000500bd8 u _ZGVZN5jlcxx10julia_typeIPN7autopas8internal29ParticleIteratorInterfaceImplINS1_10MoleculeLJIdEELb1EEEEEP14_jl_datatype_tvE2dt
0000000000500d68 u _ZGVZN5jlcxx10julia_typeIPSt6vectorIN7autopas10MoleculeLJIdEESaIS4_EEEEP14_jl_datatype_tvE2dt
0000000000500ce8 u _ZGVZN5jlcxx10julia_typeIPSt6vectorIdSaIdEEEEP14_jl_datatype_tvE2dt
0000000000500d38 u _ZGVZN5jlcxx10julia_typeIPSt8valarrayIN7autopas10MoleculeLJIdEEEEEP14_jl_datatype_tvE2dt
0000000000500cb8 u _ZGVZN5jlcxx10julia_typeIPSt8valarrayIdEEEP14_jl_datatype_tvE2dt
0000000000500f28 u _ZGVZN5jlcxx10julia_typeIR8HydrogenEEP14_jl_datatype_tvE2dt
0000000000500c28 u _ZGVZN5jlcxx10julia_typeIRK8HydrogenEEP14_jl_datatype_tvE2dt
0000000000500db8 u _ZGVZN5jlcxx10julia_typeIRKN7autopas10MoleculeLJIdEEEEP14_jl_datatype_tvE2dt
0000000000500c48 u _ZGVZN5jlcxx10julia_typeIRKN7autopas10MoleculeLJIfEEEEP14_jl_datatype_tvE2dt
0000000000500c18 u _ZGVZN5jlcxx10julia_typeIRKN7autopas12ParticleBaseIdlEEEEP14_jl_datatype_tvE2dt
0000000000500c08 u _ZGVZN5jlcxx10julia_typeIRKN7autopas12ParticleBaseIfiEEEEP14_jl_datatype_tvE2dt
0000000000500c78 u _ZGVZN5jlcxx10julia_typeIRKN7autopas23ParticleIteratorWrapperINS1_10MoleculeLJIdEELb1EEEEEP14_jl_datatype_tvE2dt
0000000000500d88 u _ZGVZN5jlcxx10julia_typeIRKSt6vectorIN7autopas10MoleculeLJIdEESaIS4_EEEEP14_jl_datatype_tvE2dt
0000000000500d08 u _ZGVZN5jlcxx10julia_typeIRKSt6vectorIdSaIdEEEEP14_jl_datatype_tvE2dt
0000000000500d58 u _ZGVZN5jlcxx10julia_typeIRKSt8valarrayIN7autopas10MoleculeLJIdEEEEEP14_jl_datatype_tvE2dt
0000000000500cd8 u _ZGVZN5jlcxx10julia_typeIRKSt8valarrayIdEEEP14_jl_datatype_tvE2dt
0000000000500e28 u _ZGVZN5jlcxx10julia_typeIRKdEEP14_jl_datatype_tvE2dt
0000000000500f40 u _ZGVZN5jlcxx10julia_typeIRN7autopas10MoleculeLJIdEEEEP14_jl_datatype_tvE2dt
0000000000500f58 u _ZGVZN5jlcxx10julia_typeIRN7autopas10MoleculeLJIfEEEEP14_jl_datatype_tvE2dt
0000000000500be8 u _ZGVZN5jlcxx10julia_typeIRN7autopas23ParticleIteratorWrapperINS1_10MoleculeLJIdEELb1EEEEEP14_jl_datatype_tvE2dt
0000000000500f10 u _ZGVZN5jlcxx10julia_typeIRN7autopas25ParticleIteratorInterfaceINS1_10MoleculeLJIdEELb1EEEEEP14_jl_datatype_tvE2dt
0000000000500ef8 u _ZGVZN5jlcxx10julia_typeIRN7autopas7AutoPasINS1_10MoleculeLJIdEEEEEEP14_jl_datatype_tvE2dt
0000000000500bc8 u _ZGVZN5jlcxx10julia_typeIRN7autopas8internal29ParticleIteratorInterfaceImplINS1_10MoleculeLJIdEELb1EEEEEP14_jl_datatype_tvE2dt
0000000000500de8 u _ZGVZN5jlcxx10julia_typeIRSt6vectorIN7autopas10MoleculeLJIdEESaIS4_EEEEP14_jl_datatype_tvE2dt
0000000000500e80 u _ZGVZN5jlcxx10julia_typeIRSt6vectorIdSaIdEEEEP14_jl_datatype_tvE2dt
0000000000500dd0 u _ZGVZN5jlcxx10julia_typeIRSt8valarrayIN7autopas10MoleculeLJIdEEEEEP14_jl_datatype_tvE2dt
0000000000500e68 u _ZGVZN5jlcxx10julia_typeIRSt8valarrayIdEEEP14_jl_datatype_tvE2dt
0000000000500e18 u _ZGVZN5jlcxx10julia_typeIRdEEP14_jl_datatype_tvE2dt
0000000000500e00 u _ZGVZN5jlcxx10julia_typeISaIN7autopas10MoleculeLJIdEEEEEP14_jl_datatype_tvE2dt
0000000000500e98 u _ZGVZN5jlcxx10julia_typeISaIdEEEP14_jl_datatype_tvE2dt
0000000000500eb0 u _ZGVZN5jlcxx10julia_typeISt6vectorIN7autopas10MoleculeLJIdEESaIS4_EEEEP14_jl_datatype_tvE2dt
0000000000500fe8 u _ZGVZN5jlcxx10julia_typeISt6vectorIdSaIdEEEEP14_jl_datatype_tvE2dt
0000000000500e58 u _ZGVZN5jlcxx10julia_typeISt8valarrayIN7autopas10MoleculeLJIdEEEEEP14_jl_datatype_tvE2dt
0000000000500ed0 u _ZGVZN5jlcxx10julia_typeISt8valarrayIdEEEP14_jl_datatype_tvE2dt
0000000000500f70 u _ZGVZN5jlcxx10julia_typeIbEEP14_jl_datatype_tvE2dt
0000000000500fa0 u _ZGVZN5jlcxx10julia_typeIdEEP14_jl_datatype_tvE2dt
0000000000500fb0 u _ZGVZN5jlcxx10julia_typeIfEEP14_jl_datatype_tvE2dt
0000000000500f90 u _ZGVZN5jlcxx10julia_typeIiEEP14_jl_datatype_tvE2dt
0000000000500f80 u _ZGVZN5jlcxx10julia_typeIlEEP14_jl_datatype_tvE2dt
0000000000500e38 u _ZGVZN5jlcxx10julia_typeImEEP14_jl_datatype_tvE2dt
0000000000500fd8 u _ZGVZN5jlcxx10julia_typeIvEEP14_jl_datatype_tvE2dt
00000000005010c8 u _ZGVZN5jlcxx6detail13get_finalizerEvE9finalizer
0000000000501008 u _ZGVZN5jlcxx7TypeVarILi1EE4tvarEvE9this_tvar
0000000000500ff8 u _ZGVZN5jlcxx7TypeVarILi2EE4tvarEvE9this_tvar
0000000000501b48 b _ZGVZN6spdlog7details2os17is_color_terminalEvE6result
0000000000000000 b _ZGVZN6spdlog7details2os9thread_idEvE3tid
0000000000501b58 b _ZGVZN6spdlog7details8registry8instanceEvE10s_instance
00000000005010e0 b _ZGVZN7autopas20compatibleTraversalsL23allCompatibleTraversalsENS_7options15ContainerOptionEE1s
0000000000501380 b _ZGVZN7autopas20compatibleTraversalsL23allCompatibleTraversalsENS_7options15ContainerOptionEE1s
0000000000501620 b _ZGVZN7autopas20compatibleTraversalsL23allCompatibleTraversalsENS_7options15ContainerOptionEE1s
00000000005012f0 b _ZGVZN7autopas20compatibleTraversalsL25allDSCompatibleTraversalsEvE1s
0000000000501590 b _ZGVZN7autopas20compatibleTraversalsL25allDSCompatibleTraversalsEvE1s
0000000000501830 b _ZGVZN7autopas20compatibleTraversalsL25allDSCompatibleTraversalsEvE1s
00000000005012b0 b _ZGVZN7autopas20compatibleTraversalsL25allLCCompatibleTraversalsEvE1s
0000000000501550 b _ZGVZN7autopas20compatibleTraversalsL25allLCCompatibleTraversalsEvE1s
00000000005017f0 b _ZGVZN7autopas20compatibleTraversalsL25allLCCompatibleTraversalsEvE1s
0000000000501130 b _ZGVZN7autopas20compatibleTraversalsL25allOTCompatibleTraversalsEvE1s
00000000005013d0 b _ZGVZN7autopas20compatibleTraversalsL25allOTCompatibleTraversalsEvE1s
0000000000501670 b _ZGVZN7autopas20compatibleTraversalsL25allOTCompatibleTraversalsEvE1s
0000000000500b10 b _ZGVZN7autopas20compatibleTraversalsL25allVLCompatibleTraversalsEvE1s
0000000000501230 b _ZGVZN7autopas20compatibleTraversalsL25allVLCompatibleTraversalsEvE1s
00000000005014d0 b _ZGVZN7autopas20compatibleTraversalsL25allVLCompatibleTraversalsEvE1s
0000000000501770 b _ZGVZN7autopas20compatibleTraversalsL25allVLCompatibleTraversalsEvE1s
0000000000501270 b _ZGVZN7autopas20compatibleTraversalsL26allVCLCompatibleTraversalsEvE1s
0000000000501510 b _ZGVZN7autopas20compatibleTraversalsL26allVCLCompatibleTraversalsEvE1s
00000000005017b0 b _ZGVZN7autopas20compatibleTraversalsL26allVCLCompatibleTraversalsEvE1s
0000000000500ad0 b _ZGVZN7autopas20compatibleTraversalsL26allVLCCompatibleTraversalsEvE1s
00000000005011f0 b _ZGVZN7autopas20compatibleTraversalsL26allVLCCompatibleTraversalsEvE1s
0000000000501490 b _ZGVZN7autopas20compatibleTraversalsL26allVLCCompatibleTraversalsEvE1s
0000000000501730 b _ZGVZN7autopas20compatibleTraversalsL26allVLCCompatibleTraversalsEvE1s
0000000000501170 b _ZGVZN7autopas20compatibleTraversalsL26allVLPCompatibleTraversalsEvE1s
0000000000501410 b _ZGVZN7autopas20compatibleTraversalsL26allVLPCompatibleTraversalsEvE1s
00000000005016b0 b _ZGVZN7autopas20compatibleTraversalsL26allVLPCompatibleTraversalsEvE1s
0000000000500a80 b _ZGVZN7autopas20compatibleTraversalsL35allVarVLAsBuildCompatibleTraversalsEvE1s
00000000005011b0 b _ZGVZN7autopas20compatibleTraversalsL35allVarVLAsBuildCompatibleTraversalsEvE1s
0000000000501450 b _ZGVZN7autopas20compatibleTraversalsL35allVarVLAsBuildCompatibleTraversalsEvE1s
00000000005016f0 b _ZGVZN7autopas20compatibleTraversalsL35allVarVLAsBuildCompatibleTraversalsEvE1s
00000000005010c0 u _ZGVZN7autopas8internal33UnknowingCellBorderAndFlagManager3getEvE33unknowingCellBorderAndFlagManager
00000000001e0e30 t _ZN11WrapAutoPasclIN5jlcxx11TypeWrapperIN7autopas7AutoPasINS3_10MoleculeLJIdEEEEEEEEvOT_.isra.0
00000000001d17de t _ZN11WrapAutoPasclIN5jlcxx11TypeWrapperIN7autopas7AutoPasINS3_10MoleculeLJIdEEEEEEEEvOT_.isra.0.cold
00000000001de9a0 t _ZN14WrapMoleculeLJclIN5jlcxx11TypeWrapperIN7autopas10MoleculeLJIdEEEEEEvOT_.isra.0
00000000001d0dee t _ZN14WrapMoleculeLJclIN5jlcxx11TypeWrapperIN7autopas10MoleculeLJIdEEEEEEvOT_.isra.0.cold
00000000001dfdf0 t _ZN14WrapMoleculeLJclIN5jlcxx11TypeWrapperIN7autopas10MoleculeLJIfEEEEEEvOT_.isra.0
00000000001d13da t _ZN14WrapMoleculeLJclIN5jlcxx11TypeWrapperIN7autopas10MoleculeLJIfEEEEEEvOT_.isra.0.cold
00000000001df6f0 t _ZN19WrapIteratorWrapperclIN5jlcxx11TypeWrapperIN7autopas23ParticleIteratorWrapperINS3_10MoleculeLJIdEELb1EEEEEEEvOT_.isra.0
00000000001d123a t _ZN19WrapIteratorWrapperclIN5jlcxx11TypeWrapperIN7autopas23ParticleIteratorWrapperINS3_10MoleculeLJIdEELb1EEEEEEEvOT_.isra.0.cold
000000000043ff90 T _ZN3fmt2v812format_errorD0Ev
000000000043ff70 T _ZN3fmt2v812format_errorD1Ev
000000000043ff70 T _ZN3fmt2v812format_errorD2Ev
0000000000443d30 T _ZN3fmt2v813vsystem_errorEiNS0_17basic_string_viewIcEENS0_17basic_format_argsINS0_20basic_format_contextINS0_8appenderEcEEEE
00000000001d58ab t _ZN3fmt2v813vsystem_errorEiNS0_17basic_string_viewIcEENS0_17basic_format_argsINS0_20basic_format_contextINS0_8appenderEcEEEE.cold
00000000001ff9b0 W _ZN3fmt2v819basic_memory_bufferIcLm250ESaIcEE4growEm
00000000001ffa70 W _ZN3fmt2v819basic_memory_bufferIcLm500ESaIcEE4growEm
0000000000444660 W _ZN3fmt2v819basic_memory_bufferIjLm32ESaIjEE4growEm
0000000000444720 W _ZN3fmt2v819basic_memory_bufferIwLm500ESaIwEE4growEm
0000000000444430 T _ZN3fmt2v819format_system_errorERNS0_6detail6bufferIcEEiPKc
00000000001d5997 t _ZN3fmt2v819format_system_errorERNS0_6detail6bufferIcEEiPKc.cold
0000000000440e00 T _ZN3fmt2v819report_system_errorEiPKc
0000000000500a50 D _ZN3fmt2v824instantiate_format_floatE
000000000047cb50 u _ZN3fmt2v86detail10basic_dataIvE10hex_digitsE
000000000047cb25 u _ZN3fmt2v86detail10basic_dataIvE19left_padding_shiftsE
000000000047cb20 u _ZN3fmt2v86detail10basic_dataIvE20right_padding_shiftsE
000000000047cb40 u _ZN3fmt2v86detail10basic_dataIvE5signsE
000000000047cb80 u _ZN3fmt2v86detail10basic_dataIvE6digitsE
000000000047cb30 u _ZN3fmt2v86detail10basic_dataIvE8prefixesE
0000000000445e90 W _ZN3fmt2v86detail10locale_refC1ISt6localeEERKT_
0000000000445e90 W _ZN3fmt2v86detail10locale_refC2ISt6localeEERKT_
0000000000280a00 W _ZN3fmt2v86detail10vformat_toIcEEvRNS1_6bufferIT_EENS0_17basic_string_viewIS4_EENS0_17basic_format_argsINS0_20basic_format_contextINSt11conditionalIXsrSt7is_sameINS0_13type_identityIS4_E4typeEcE5valueENS0_8appenderESt20back_insert_iteratorINS3_ISF_EEEE4typeESF_EEEENS1_10locale_refE
0000000000278e60 W _ZN3fmt2v86detail10write_charIcNS0_8appenderEEET0_S4_T_RKNS0_18basic_format_specsIS5_EE
0000000000444970 W _ZN3fmt2v86detail11add_compareERKNS1_6bigintES4_S4_
00000000004401f0 T _ZN3fmt2v86detail11assert_failEPKciS3_
00000000002743c0 W _ZN3fmt2v86detail11format_uintILj4EcNS0_8appenderEjEET1_S4_T2_ib
0000000000274490 W _ZN3fmt2v86detail11format_uintILj4EcNS0_8appenderEmEET1_S4_T2_ib
0000000000275600 W _ZN3fmt2v86detail11format_uintILj4EcNS0_8appenderEoEET1_S4_T2_ib
000000000042f810 W _ZN3fmt2v86detail11parse_alignIcRNS1_13specs_checkerINS1_13specs_handlerIcEEEEEEPKT_SA_SA_OT0_
000000000044ab00 W _ZN3fmt2v86detail11parse_alignIcRNS1_13specs_checkerINS1_21dynamic_specs_handlerINS1_21compile_parse_contextIcNS1_13error_handlerEEEEEEEEEPKT_SD_SD_OT0_
000000000042fd80 W _ZN3fmt2v86detail11parse_widthIcRNS1_13specs_checkerINS1_13specs_handlerIcEEEEEEPKT_SA_SA_OT0_
000000000044ae90 W _ZN3fmt2v86detail11parse_widthIcRNS1_13specs_checkerINS1_21dynamic_specs_handlerINS1_21compile_parse_contextIcNS1_13error_handlerEEEEEEEEEPKT_SD_SD_OT0_
0000000000430810 W _ZN3fmt2v86detail11write_bytesILNS0_5align4typeE2EcNS0_8appenderEEET1_S6_NS0_17basic_string_viewIcEERKNS0_18basic_format_specsIT0_EE
0000000000277620 W _ZN3fmt2v86detail11write_floatINS0_8appenderENS1_14big_decimal_fpEcEET_S5_RKT0_RKNS0_18basic_format_specsIT1_EENS1_11float_specsESA_
0000000000275e90 W _ZN3fmt2v86detail11write_floatINS0_8appenderENS1_9dragonbox10decimal_fpIdEEcEET_S7_RKT0_RKNS0_18basic_format_specsIT1_EENS1_11float_specsESC_
0000000000276900 W _ZN3fmt2v86detail11write_floatINS0_8appenderENS1_9dragonbox10decimal_fpIfEEcEET_S7_RKT0_RKNS0_18basic_format_specsIT1_EENS1_11float_specsESC_
000000000024a840 W _ZN3fmt2v86detail12count_digitsEm
0000000000440300 T _ZN3fmt2v86detail12count_digitsILi4ENS1_16fallback_uintptrEEEiT0_
0000000000449cd0 W _ZN3fmt2v86detail12format_floatIdEEiT_iNS1_11float_specsERNS1_6bufferIcEE
000000000044a550 W _ZN3fmt2v86detail12format_floatIeEEiT_iNS1_11float_specsERNS1_6bufferIcEE
0000000000440230 T _ZN3fmt2v86detail12report_errorEPFvRNS1_6bufferIcEEiPKcEiS6_
0000000000424430 t _ZN3fmt2v86detail12write_paddedILNS0_5align4typeE2ENS0_8appenderEcRZNS1_9write_intIS5_cZNS1_9write_intIcS5_jEET0_S8_NS1_13write_int_argIT1_EERKNS0_18basic_format_specsIT_EENS1_10locale_refEEUlS5_E0_EESD_SD_ijRKNSC_IS8_EESA_EUlS5_E_EES8_S8_RKNSC_ISA_EEmmOT2_.isra.0
0000000000443470 t _ZN3fmt2v86detail12write_paddedILNS0_5align4typeE2ENS0_8appenderEcRZNS1_9write_intIS5_cZNS1_9write_intIcS5_jEET0_S8_NS1_13write_int_argIT1_EERKNS0_18basic_format_specsIT_EENS1_10locale_refEEUlS5_E0_EESD_SD_ijRKNSC_IS8_EESA_EUlS5_E_EES8_S8_RKNSC_ISA_EEmmOT2_.isra.0
0000000000424210 t _ZN3fmt2v86detail12write_paddedILNS0_5align4typeE2ENS0_8appenderEcRZNS1_9write_intIS5_cZNS1_9write_intIcS5_jEET0_S8_NS1_13write_int_argIT1_EERKNS0_18basic_format_specsIT_EENS1_10locale_refEEUlS5_E1_EESD_SD_ijRKNSC_IS8_EESA_EUlS5_E_EES8_S8_RKNSC_ISA_EEmmOT2_.isra.0
00000000004430e0 t _ZN3fmt2v86detail12write_paddedILNS0_5align4typeE2ENS0_8appenderEcRZNS1_9write_intIS5_cZNS1_9write_intIcS5_jEET0_S8_NS1_13write_int_argIT1_EERKNS0_18basic_format_specsIT_EENS1_10locale_refEEUlS5_E1_EESD_SD_ijRKNSC_IS8_EESA_EUlS5_E_EES8_S8_RKNSC_ISA_EEmmOT2_.isra.0
0000000000423ff0 t _ZN3fmt2v86detail12write_paddedILNS0_5align4typeE2ENS0_8appenderEcRZNS1_9write_intIS5_cZNS1_9write_intIcS5_jEET0_S8_NS1_13write_int_argIT1_EERKNS0_18basic_format_specsIT_EENS1_10locale_refEEUlS5_E2_EESD_SD_ijRKNSC_IS8_EESA_EUlS5_E_EES8_S8_RKNSC_ISA_EEmmOT2_.isra.0
0000000000442d40 t _ZN3fmt2v86detail12write_paddedILNS0_5align4typeE2ENS0_8appenderEcRZNS1_9write_intIS5_cZNS1_9write_intIcS5_jEET0_S8_NS1_13write_int_argIT1_EERKNS0_18basic_format_specsIT_EENS1_10locale_refEEUlS5_E2_EESD_SD_ijRKNSC_IS8_EESA_EUlS5_E_EES8_S8_RKNSC_ISA_EEmmOT2_.isra.0
0000000000424670 t _ZN3fmt2v86detail12write_paddedILNS0_5align4typeE2ENS0_8appenderEcRZNS1_9write_intIS5_cZNS1_9write_intIcS5_jEET0_S8_NS1_13write_int_argIT1_EERKNS0_18basic_format_specsIT_EENS1_10locale_refEEUlS5_E_EESD_SD_ijRKNSC_IS8_EESA_EUlS5_E_EES8_S8_RKNSC_ISA_EEmmOT2_.isra.0
0000000000443840 t _ZN3fmt2v86detail12write_paddedILNS0_5align4typeE2ENS0_8appenderEcRZNS1_9write_intIS5_cZNS1_9write_intIcS5_jEET0_S8_NS1_13write_int_argIT1_EERKNS0_18basic_format_specsIT_EENS1_10locale_refEEUlS5_E_EESD_SD_ijRKNSC_IS8_EESA_EUlS5_E_EES8_S8_RKNSC_ISA_EEmmOT2_.isra.0
0000000000423b80 t _ZN3fmt2v86detail12write_paddedILNS0_5align4typeE2ENS0_8appenderEcRZNS1_9write_intIS5_cZNS1_9write_intIcS5_mEET0_S8_NS1_13write_int_argIT1_EERKNS0_18basic_format_specsIT_EENS1_10locale_refEEUlS5_E0_EESD_SD_ijRKNSC_IS8_EESA_EUlS5_E_EES8_S8_RKNSC_ISA_EEmmOT2_.isra.0
00000000004425b0 t _ZN3fmt2v86detail12write_paddedILNS0_5align4typeE2ENS0_8appenderEcRZNS1_9write_intIS5_cZNS1_9write_intIcS5_mEET0_S8_NS1_13write_int_argIT1_EERKNS0_18basic_format_specsIT_EENS1_10locale_refEEUlS5_E0_EESD_SD_ijRKNSC_IS8_EESA_EUlS5_E_EES8_S8_RKNSC_ISA_EEmmOT2_.isra.0
0000000000423960 t _ZN3fmt2v86detail12write_paddedILNS0_5align4typeE2ENS0_8appenderEcRZNS1_9write_intIS5_cZNS1_9write_intIcS5_mEET0_S8_NS1_13write_int_argIT1_EERKNS0_18basic_format_specsIT_EENS1_10locale_refEEUlS5_E1_EESD_SD_ijRKNSC_IS8_EESA_EUlS5_E_EES8_S8_RKNSC_ISA_EEmmOT2_.isra.0
0000000000442210 t _ZN3fmt2v86detail12write_paddedILNS0_5align4typeE2ENS0_8appenderEcRZNS1_9write_intIS5_cZNS1_9write_intIcS5_mEET0_S8_NS1_13write_int_argIT1_EERKNS0_18basic_format_specsIT_EENS1_10locale_refEEUlS5_E1_EESD_SD_ijRKNSC_IS8_EESA_EUlS5_E_EES8_S8_RKNSC_ISA_EEmmOT2_.isra.0
0000000000423740 t _ZN3fmt2v86detail12write_paddedILNS0_5align4typeE2ENS0_8appenderEcRZNS1_9write_intIS5_cZNS1_9write_intIcS5_mEET0_S8_NS1_13write_int_argIT1_EERKNS0_18basic_format_specsIT_EENS1_10locale_refEEUlS5_E2_EESD_SD_ijRKNSC_IS8_EESA_EUlS5_E_EES8_S8_RKNSC_ISA_EEmmOT2_.isra.0
0000000000441e70 t _ZN3fmt2v86detail12write_paddedILNS0_5align4typeE2ENS0_8appenderEcRZNS1_9write_intIS5_cZNS1_9write_intIcS5_mEET0_S8_NS1_13write_int_argIT1_EERKNS0_18basic_format_specsIT_EENS1_10locale_refEEUlS5_E2_EESD_SD_ijRKNSC_IS8_EESA_EUlS5_E_EES8_S8_RKNSC_ISA_EEmmOT2_.isra.0
0000000000423dc0 t _ZN3fmt2v86detail12write_paddedILNS0_5align4typeE2ENS0_8appenderEcRZNS1_9write_intIS5_cZNS1_9write_intIcS5_mEET0_S8_NS1_13write_int_argIT1_EERKNS0_18basic_format_specsIT_EENS1_10locale_refEEUlS5_E_EESD_SD_ijRKNSC_IS8_EESA_EUlS5_E_EES8_S8_RKNSC_ISA_EEmmOT2_.isra.0
0000000000442980 t _ZN3fmt2v86detail12write_paddedILNS0_5align4typeE2ENS0_8appenderEcRZNS1_9write_intIS5_cZNS1_9write_intIcS5_mEET0_S8_NS1_13write_int_argIT1_EERKNS0_18basic_format_specsIT_EENS1_10locale_refEEUlS5_E_EESD_SD_ijRKNSC_IS8_EESA_EUlS5_E_EES8_S8_RKNSC_ISA_EEmmOT2_.isra.0
00000000004231d0 t _ZN3fmt2v86detail12write_paddedILNS0_5align4typeE2ENS0_8appenderEcRZNS1_9write_intIS5_cZNS1_9write_intIcS5_oEET0_S8_NS1_13write_int_argIT1_EERKNS0_18basic_format_specsIT_EENS1_10locale_refEEUlS5_E0_EESD_SD_ijRKNSC_IS8_EESA_EUlS5_E_EES8_S8_RKNSC_ISA_EEmmOT2_.isra.0
00000000004415d0 t _ZN3fmt2v86detail12write_paddedILNS0_5align4typeE2ENS0_8appenderEcRZNS1_9write_intIS5_cZNS1_9write_intIcS5_oEET0_S8_NS1_13write_int_argIT1_EERKNS0_18basic_format_specsIT_EENS1_10locale_refEEUlS5_E0_EESD_SD_ijRKNSC_IS8_EESA_EUlS5_E_EES8_S8_RKNSC_ISA_EEmmOT2_.isra.0
0000000000422f90 t _ZN3fmt2v86detail12write_paddedILNS0_5align4typeE2ENS0_8appenderEcRZNS1_9write_intIS5_cZNS1_9write_intIcS5_oEET0_S8_NS1_13write_int_argIT1_EERKNS0_18basic_format_specsIT_EENS1_10locale_refEEUlS5_E1_EESD_SD_ijRKNSC_IS8_EESA_EUlS5_E_EES8_S8_RKNSC_ISA_EEmmOT2_.isra.0
00000000004411f0 t _ZN3fmt2v86detail12write_paddedILNS0_5align4typeE2ENS0_8appenderEcRZNS1_9write_intIS5_cZNS1_9write_intIcS5_oEET0_S8_NS1_13write_int_argIT1_EERKNS0_18basic_format_specsIT_EENS1_10locale_refEEUlS5_E1_EESD_SD_ijRKNSC_IS8_EESA_EUlS5_E_EES8_S8_RKNSC_ISA_EEmmOT2_.isra.0
0000000000422d60 t _ZN3fmt2v86detail12write_paddedILNS0_5align4typeE2ENS0_8appenderEcRZNS1_9write_intIS5_cZNS1_9write_intIcS5_oEET0_S8_NS1_13write_int_argIT1_EERKNS0_18basic_format_specsIT_EENS1_10locale_refEEUlS5_E2_EESD_SD_ijRKNSC_IS8_EESA_EUlS5_E_EES8_S8_RKNSC_ISA_EEmmOT2_.isra.0
0000000000440e20 t _ZN3fmt2v86detail12write_paddedILNS0_5align4typeE2ENS0_8appenderEcRZNS1_9write_intIS5_cZNS1_9write_intIcS5_oEET0_S8_NS1_13write_int_argIT1_EERKNS0_18basic_format_specsIT_EENS1_10locale_refEEUlS5_E2_EESD_SD_ijRKNSC_IS8_EESA_EUlS5_E_EES8_S8_RKNSC_ISA_EEmmOT2_.isra.0
0000000000423430 t _ZN3fmt2v86detail12write_paddedILNS0_5align4typeE2ENS0_8appenderEcRZNS1_9write_intIS5_cZNS1_9write_intIcS5_oEET0_S8_NS1_13write_int_argIT1_EERKNS0_18basic_format_specsIT_EENS1_10locale_refEEUlS5_E_EESD_SD_ijRKNSC_IS8_EESA_EUlS5_E_EES8_S8_RKNSC_ISA_EEmmOT2_.isra.0
00000000004419d0 t _ZN3fmt2v86detail12write_paddedILNS0_5align4typeE2ENS0_8appenderEcRZNS1_9write_intIS5_cZNS1_9write_intIcS5_oEET0_S8_NS1_13write_int_argIT1_EERKNS0_18basic_format_specsIT_EENS1_10locale_refEEUlS5_E_EESD_SD_ijRKNSC_IS8_EESA_EUlS5_E_EES8_S8_RKNSC_ISA_EEmmOT2_.isra.0
00000000001d582c T _ZN3fmt2v86detail13error_handler8on_errorEPKc
0000000000269000 W _ZN3fmt2v86detail13specs_checkerINS1_13specs_handlerIcEEE7on_signENS0_4sign4typeE
00000000004403b0 T _ZN3fmt2v86detail13utf8_to_utf16C1ENS0_17basic_string_viewIcEE
00000000004403b0 T _ZN3fmt2v86detail13utf8_to_utf16C2ENS0_17basic_string_viewIcEE
00000000001d5782 t _ZN3fmt2v86detail13utf8_to_utf16C2ENS0_17basic_string_viewIcEE.cold
000000000025cc20 W _ZN3fmt2v86detail14format_decimalIcjEENS1_21format_decimal_resultIPT_EES5_T0_i
0000000000274210 W _ZN3fmt2v86detail14format_decimalIcjNS0_8appenderELi0EEENS1_21format_decimal_resultIT1_EES5_T0_i
000000000025cca0 W _ZN3fmt2v86detail14format_decimalIcmEENS1_21format_decimal_resultIPT_EES5_T0_i
00000000002742e0 W _ZN3fmt2v86detail14format_decimalIcmNS0_8appenderELi0EEENS1_21format_decimal_resultIT1_EES5_T0_i
00000000002726a0 W _ZN3fmt2v86detail14format_decimalIcoEENS1_21format_decimal_resultIPT_EES5_T0_i
0000000000446080 W _ZN3fmt2v86detail14snprintf_floatIdEEiT_iNS1_11float_specsERNS1_6bufferIcEE
0000000000446500 W _ZN3fmt2v86detail14snprintf_floatIeEEiT_iNS1_11float_specsERNS1_6bufferIcEE
0000000000272830 W _ZN3fmt2v86detail14write_exponentIcNS0_8appenderEEET0_iS4_
00000000002756f0 W _ZN3fmt2v86detail14write_int_dataIcEC1EijRKNS0_18basic_format_specsIcEE
00000000002756f0 W _ZN3fmt2v86detail14write_int_dataIcEC2EijRKNS0_18basic_format_specsIcEE
000000000042f9c0 W _ZN3fmt2v86detail15do_parse_arg_idIcRZNS1_11parse_widthIcRNS1_13specs_checkerINS1_13specs_handlerIcEEEEEEPKT_SB_SB_OT0_E13width_adapterEESB_SB_SB_SD_
000000000044ad30 W _ZN3fmt2v86detail15do_parse_arg_idIcRZNS1_11parse_widthIcRNS1_13specs_checkerINS1_21dynamic_specs_handlerINS1_21compile_parse_contextIcNS1_13error_handlerEEEEEEEEEPKT_SE_SE_OT0_E13width_adapterEESE_SE_SE_SG_
000000000042ffa0 W _ZN3fmt2v86detail15do_parse_arg_idIcRZNS1_15parse_precisionIcRNS1_13specs_checkerINS1_13specs_handlerIcEEEEEEPKT_SB_SB_OT0_E17precision_adapterEESB_SB_SB_SD_
000000000044b010 W _ZN3fmt2v86detail15do_parse_arg_idIcRZNS1_15parse_precisionIcRNS1_13specs_checkerINS1_21dynamic_specs_handlerINS1_21compile_parse_contextIcNS1_13error_handlerEEEEEEEEEPKT_SE_SE_OT0_E17precision_adapterEESE_SE_SE_SG_
000000000044a8d0 W _ZN3fmt2v86detail15do_parse_arg_idIcRZNS1_23parse_replacement_fieldIcRNS1_21format_string_checkerIcNS1_13error_handlerEJA7_ciEEEEEPKT_SB_SB_OT0_E10id_adapterEESB_SB_SB_SD_
000000000044a6a0 W _ZN3fmt2v86detail15do_parse_arg_idIcRZNS1_23parse_replacement_fieldIcRNS1_21format_string_checkerIcNS1_13error_handlerEJNS0_17basic_string_viewIcEEA3_cEEEEEPKT_SD_SD_OT0_E10id_adapterEESD_SD_SD_SF_
00000000004305e0 W _ZN3fmt2v86detail15do_parse_arg_idIcRZNS1_23parse_replacement_fieldIcRZNS1_10vformat_toIcEEvRNS1_6bufferIT_EENS0_17basic_string_viewIS6_EENS0_17basic_format_argsINS0_20basic_format_contextINSt11conditionalIXsrSt7is_sameINS0_13type_identityIS6_E4typeEcE5valueENS0_8appenderESt20back_insert_iteratorINS5_ISH_EEEE4typeESH_EEEENS1_10locale_refEE14format_handlerEEPKS6_SV_SV_OT0_E10id_adapterEESV_SV_SV_SX_
0000000000446d10 W _ZN3fmt2v86detail15fallback_formatIdEEvT_ibRNS1_6bufferIcEERi
0000000000425560 W _ZN3fmt2v86detail15iterator_bufferISt20back_insert_iteratorINS0_19basic_memory_bufferIcLm250ESaIcEEEEcNS1_13buffer_traitsEE4growEm
0000000000430370 W _ZN3fmt2v86detail15parse_precisionIcRNS1_13specs_checkerINS1_13specs_handlerIcEEEEEEPKT_SA_SA_OT0_
000000000044b170 W _ZN3fmt2v86detail15parse_precisionIcRNS1_13specs_checkerINS1_21dynamic_specs_handlerINS1_21compile_parse_contextIcNS1_13error_handlerEEEEEEEEEPKT_SD_SD_OT0_
0000000000277fe0 W _ZN3fmt2v86detail15write_nonfiniteIcNS0_8appenderEEET0_S4_bNS0_18basic_format_specsIT_EERKNS1_11float_specsE
0000000000269090 W _ZN3fmt2v86detail16get_dynamic_specINS1_13width_checkerENS0_16basic_format_argINS0_20basic_format_contextINS0_8appenderEcEEEENS1_13error_handlerEEEiT0_T1_
0000000000269150 W _ZN3fmt2v86detail16get_dynamic_specINS1_17precision_checkerENS0_16basic_format_argINS0_20basic_format_contextINS0_8appenderEcEEEENS1_13error_handlerEEEiT0_T1_
000000000026d260 W _ZN3fmt2v86detail17copy_str_noinlineIcPKcNS0_8appenderEEET1_T0_S7_S6_
00000000004499b0 W _ZN3fmt2v86detail17copy_str_noinlineIcPKcSt20back_insert_iteratorINS1_6bufferIcEEEEET1_T0_SA_S9_
0000000000274150 W _ZN3fmt2v86detail17copy_str_noinlineIcPcNS0_8appenderEEET1_T0_S6_S5_
00000000004441d0 T _ZN3fmt2v86detail17format_error_codeERNS1_6bufferIcEEiNS0_17basic_string_viewIcEE
00000000001d5992 t _ZN3fmt2v86detail17format_error_codeERNS1_6bufferIcEEiNS0_17basic_string_viewIcEE.cold
0000000000445ff0 W _ZN3fmt2v86detail18decimal_point_implIcEET_NS1_10locale_refE
0000000000446ab0 W _ZN3fmt2v86detail18decimal_point_implIwEET_NS1_10locale_refE
000000000044b340 W _ZN3fmt2v86detail18parse_format_specsIA3_cNS1_21compile_parse_contextIcNS1_13error_handlerEEEEEDTcldtfp_5beginEERT0_
000000000044be40 W _ZN3fmt2v86detail18parse_format_specsIA7_cNS1_21compile_parse_contextIcNS1_13error_handlerEEEEEDTcldtfp_5beginEERT0_
000000000044b6f0 W _ZN3fmt2v86detail18parse_format_specsINS0_17basic_string_viewIcEENS1_21compile_parse_contextIcNS1_13error_handlerEEEEEDTcldtfp_5beginEERT0_
000000000044ba90 W _ZN3fmt2v86detail18parse_format_specsIiNS1_21compile_parse_contextIcNS1_13error_handlerEEEEEDTcldtfp_5beginEERT0_
0000000000445ed0 W _ZN3fmt2v86detail18thousands_sep_implIcEENS1_20thousands_sep_resultIT_EENS1_10locale_refE
0000000000446990 W _ZN3fmt2v86detail18thousands_sep_implIwEENS1_20thousands_sep_resultIT_EENS1_10locale_refE
00000000001d5722 W _ZN3fmt2v86detail18throw_format_errorEPKc
0000000000278990 W _ZN3fmt2v86detail19write_int_localizedINS0_8appenderEmcEEbRT_T0_jRKNS0_18basic_format_specsIT1_EENS1_10locale_refE
00000000002758a0 W _ZN3fmt2v86detail19write_int_localizedINS0_8appenderEocEEbRT_T0_jRKNS0_18basic_format_specsIT1_EENS1_10locale_refE
00000000002775c0 W _ZN3fmt2v86detail21default_arg_formatterIcEclIPKvEENS0_8appenderET_
0000000000278e20 W _ZN3fmt2v86detail21default_arg_formatterIcEclIbEENS0_8appenderET_
0000000000440df0 t _ZN3fmt2v86detail21dynamic_specs_handlerINS1_21compile_parse_contextIcNS1_13error_handlerEEEE8on_errorEPKc.isra.0
00000000002633a0 W _ZN3fmt2v86detail21parse_nonnegative_intIcEEiRPKT_S5_i
000000000044a9b0 W _ZN3fmt2v86detail23parse_replacement_fieldIcRNS1_21format_string_checkerIcNS1_13error_handlerEJA7_ciEEEEEPKT_SA_SA_OT0_
000000000044a780 W _ZN3fmt2v86detail23parse_replacement_fieldIcRNS1_21format_string_checkerIcNS1_13error_handlerEJNS0_17basic_string_viewIcEEA3_cEEEEEPKT_SC_SC_OT0_
00000000002802c0 W _ZN3fmt2v86detail23parse_replacement_fieldIcRZNS1_10vformat_toIcEEvRNS1_6bufferIT_EENS0_17basic_string_viewIS5_EENS0_17basic_format_argsINS0_20basic_format_contextINSt11conditionalIXsrSt7is_sameINS0_13type_identityIS5_E4typeEcE5valueENS0_8appenderESt20back_insert_iteratorINS4_ISG_EEEE4typeESG_EEEENS1_10locale_refEE14format_handlerEEPKS5_SU_SU_OT0_
0000000000275760 W _ZN3fmt2v86detail4fillINS0_8appenderEcEET_S4_mRKNS1_6fill_tIT0_EE
0000000000444080 T _ZN3fmt2v86detail5printEP8_IO_FILENS0_17basic_string_viewIcEE
00000000001d590f t _ZN3fmt2v86detail5printEP8_IO_FILENS0_17basic_string_viewIcEE.cold
00000000002787d0 W _ZN3fmt2v86detail5valueINS0_20basic_format_contextINS0_8appenderEcEEE17format_custom_argISt5arrayIdLm3EENS0_9formatterIS9_cvEEEEvPKvRNS0_26basic_format_parse_contextIcNS1_13error_handlerEEERS5_
000000000026d320 W _ZN3fmt2v86detail5writeIcNS0_8appenderEEET0_S4_PKT_
0000000000430930 W _ZN3fmt2v86detail5writeIcNS0_8appenderEEET0_S4_T_RKNS0_18basic_format_specsIS5_EENS1_10locale_refE
00000000002786f0 W _ZN3fmt2v86detail5writeIcNS0_8appenderEdLi0EEET0_S4_T1_
000000000027db00 W _ZN3fmt2v86detail5writeIcNS0_8appenderEdLi0EEET0_S4_T1_NS0_18basic_format_specsIT_EENS1_10locale_refE
000000000027e070 W _ZN3fmt2v86detail5writeIcNS0_8appenderEeLi0EEET0_S4_T1_NS0_18basic_format_specsIT_EENS1_10locale_refE
000000000044ac60 W _ZN3fmt2v86detail5writeIcNS0_8appenderEfLi0EEET0_S4_T1_
0000000000278180 W _ZN3fmt2v86detail5writeIcNS0_8appenderEfLi0EEET0_S4_T1_NS0_18basic_format_specsIT_EENS1_10locale_refE
0000000000275420 W _ZN3fmt2v86detail5writeIcNS0_8appenderEiLi0EEET0_S4_T1_
0000000000278f20 W _ZN3fmt2v86detail5writeIcNS0_8appenderEiLi0EEET0_S4_T1_RKNS0_18basic_format_specsIT_EENS1_10locale_refE
0000000000275260 W _ZN3fmt2v86detail5writeIcNS0_8appenderEjLi0EEET0_S4_T1_
00000000002799e0 W _ZN3fmt2v86detail5writeIcNS0_8appenderEjLi0EEET0_S4_T1_RKNS0_18basic_format_specsIT_EENS1_10locale_refE
0000000000449b20 W _ZN3fmt2v86detail5writeIcNS0_8appenderEmLi0EEET0_S4_T1_
0000000000274da0 W _ZN3fmt2v86detail5writeIcNS0_8appenderEnLi0EEET0_S4_T1_
000000000027bab0 W _ZN3fmt2v86detail5writeIcNS0_8appenderEnLi0EEET0_S4_T1_RKNS0_18basic_format_specsIT_EENS1_10locale_refE
00000000002748a0 W _ZN3fmt2v86detail5writeIcNS0_8appenderEoLi0EEET0_S4_T1_
000000000027caf0 W _ZN3fmt2v86detail5writeIcNS0_8appenderEoLi0EEET0_S4_T1_RKNS0_18basic_format_specsIT_EENS1_10locale_refE
0000000000275310 W _ZN3fmt2v86detail5writeIcNS0_8appenderExLi0EEET0_S4_T1_
000000000027a480 W _ZN3fmt2v86detail5writeIcNS0_8appenderExLi0EEET0_S4_T1_RKNS0_18basic_format_specsIT_EENS1_10locale_refE
00000000002751c0 W _ZN3fmt2v86detail5writeIcNS0_8appenderEyLi0EEET0_S4_T1_
000000000027afb0 W _ZN3fmt2v86detail5writeIcNS0_8appenderEyLi0EEET0_S4_T1_RKNS0_18basic_format_specsIT_EENS1_10locale_refE
0000000000444880 W _ZN3fmt2v86detail6bigint6assignEm
00000000004447e0 t _ZN3fmt2v86detail6bigintlSEi.isra.0
0000000000275550 W _ZN3fmt2v86detail6bufferIcE6appendIcEEvPKT_S7_
000000000041c050 t _ZN3fmt2v86detail6bufferIcE6appendIcEEvPKT_S7_.constprop.0
0000000000446b40 W _ZN3fmt2v86detail6bufferIwE6appendIwEEvPKT_S7_
0000000000268f40 W _ZN3fmt2v86detail7get_argINS0_20basic_format_contextINS0_8appenderEcEEiEENT_10format_argERS6_T0_
0000000000444fc0 W _ZN3fmt2v86detail9dragonbox10to_decimalIdEENS2_10decimal_fpIT_EES5_
0000000000444b20 W _ZN3fmt2v86detail9dragonbox10to_decimalIfEENS2_10decimal_fpIT_EES5_
0000000000444ac0 W _ZN3fmt2v86detail9dragonbox14cache_accessorIfE16get_cached_powerEi
0000000000277360 W _ZN3fmt2v86detail9write_ptrIcNS0_8appenderEmEET0_S4_T1_PKNS0_18basic_format_specsIT_EE
00000000004441a0 T _ZN3fmt2v86vprintENS0_17basic_string_viewIcEENS0_17basic_format_argsINS0_20basic_format_contextINS0_8appenderEcEEEE
00000000004440e0 T _ZN3fmt2v86vprintEP8_IO_FILENS0_17basic_string_viewIcEENS0_17basic_format_argsINS0_20basic_format_contextINS0_8appenderEcEEEE
00000000001d5972 t _ZN3fmt2v86vprintEP8_IO_FILENS0_17basic_string_viewIcEENS0_17basic_format_argsINS0_20basic_format_contextINS0_8appenderEcEEEE.cold
0000000000443bd0 T _ZN3fmt2v87vformatB5cxx11ENS0_17basic_string_viewIcEENS0_17basic_format_argsINS0_20basic_format_contextINS0_8appenderEcEEEE
00000000001d588b t _ZN3fmt2v87vformatB5cxx11ENS0_17basic_string_viewIcEENS0_17basic_format_argsINS0_20basic_format_contextINS0_8appenderEcEEEE.cold
00000000003e1310 t _ZN5Eigen15PlainObjectBaseINS_6MatrixIdLin1ELi1ELi0ELin1ELi1EEEE6resizeEll.constprop.0
000000000040ed90 t _ZN5Eigen8internal11gebp_kernelIddlNS0_16blas_data_mapperIdlLi0ELi0ELi1EEELi12ELi4ELb0ELb0EEclERKS3_PKdS8_llldllll.constprop.0
0000000000410690 t _ZN5Eigen8internal11gebp_kernelIddlNS0_16blas_data_mapperIdlLi0ELi0ELi1EEELi12ELi4ELb0ELb0EEclERKS3_PKdS8_llldllll.constprop.1
00000000004182e0 W _ZN5Eigen8internal11llt_inplaceIdLi1EE9unblockedINS_5BlockINS_6MatrixIdLin1ELin1ELi0ELin1ELin1EEELin1ELin1ELb0EEEEElRT_
0000000000417e90 W _ZN5Eigen8internal11llt_inplaceIdLi1EE9unblockedINS_6MatrixIdLin1ELin1ELi0ELin1ELin1EEEEElRT_
0000000000411e90 t _ZN5Eigen8internal12tribb_kernelIddlLi12ELi4ELb0ELb0ELi1ELi1EEclEPdllPKdS5_llRS4_.constprop.0
000000000040d150 t _ZN5Eigen8internal13gemm_pack_lhsIdlNS0_16blas_data_mapperIdlLi0ELi0ELi1EEELi12ELi4EDv4_dLi0ELb0ELb1EEclEPdRKS3_llll.constprop.0
000000000040d610 t _ZN5Eigen8internal13gemm_pack_lhsIdlNS0_22const_blas_data_mapperIdlLi0EEELi12ELi4EDv4_dLi0ELb0ELb0EEclEPdRKS3_llll.constprop.0
0000000000415720 t _ZN5Eigen8internal13gemm_pack_lhsIdlNS0_22const_blas_data_mapperIdlLi1EEELi12ELi4EDv4_dLi1ELb0ELb0EEclEPdRKS3_llll.constprop.0
0000000000415040 t _ZN5Eigen8internal13gemm_pack_rhsIdlNS0_16blas_data_mapperIdlLi0ELi0ELi1EEELi4ELi0ELb0ELb1EEclEPdRKS3_llll.constprop.0
000000000040d520 t _ZN5Eigen8internal13gemm_pack_rhsIdlNS0_22const_blas_data_mapperIdlLi1EEELi4ELi1ELb0ELb0EEclEPdRKS3_llll.constprop.0
000000000040d040 t _ZN5Eigen8internal13gemm_pack_rhsIdlNS0_22const_blas_data_mapperIdlLi1EEELi4ELi1ELb0ELb1EEclEPdRKS3_llll.constprop.0
0000000000416110 W _ZN5Eigen8internal15queryCacheSizesERiS1_S1_
0000000000418730 W _ZN5Eigen8internal19gemm_blocking_spaceILi0EddLin1ELin1ELin1ELi4ELb0EED1Ev
0000000000418730 W _ZN5Eigen8internal19gemm_blocking_spaceILi0EddLin1ELin1ELin1ELi4ELb0EED2Ev
00000000001d3220 W _ZN5Eigen8internal19throw_std_bad_allocEv
0000000000415d80 W _ZN5Eigen8internal21queryCacheSizes_intelERiS1_S1_i
000000000040d930 t _ZN5Eigen8internal22lhs_process_one_packetILi4ELl2ELl1EdddDv2_dS2_S2_S2_NS0_11gebp_traitsIddLb0ELb0ELi1ELi1EEENS0_16BlasLinearMapperIdlLi0ELi1EEENS0_16blas_data_mapperIdlLi0ELi0ELi1EEEEclERKS8_PKdSD_dllllllilllll.constprop.0
000000000040e7d0 t _ZN5Eigen8internal22lhs_process_one_packetILi4ELl4ELl1EdddDv4_dS2_S2_S2_NS0_11gebp_traitsIddLb0ELb0ELi1ELi0EEENS0_16BlasLinearMapperIdlLi0ELi1EEENS0_16blas_data_mapperIdlLi0ELi0ELi1EEEEclERKS8_PKdSD_dllllllilllll.constprop.0.isra.0
00000000004165b0 t _ZN5Eigen8internal23triangular_solve_matrixIdlLi1ELi1ELb0ELi0ELi0ELi1EE3runEllPKdlPdllRNS0_15level3_blockingIddEE.isra.0
00000000004172c0 t _ZN5Eigen8internal23triangular_solve_matrixIdlLi1ELi2ELb0ELi1ELi0ELi1EE3runEllPKdlPdllRNS0_15level3_blockingIddEE.isra.0
00000000004128a0 t _ZN5Eigen8internal23triangular_solve_matrixIdlLi2ELi2ELb0ELi1ELi0ELi1EE3runEllPKdlPdllRNS0_15level3_blockingIddEE.isra.0
00000000001d4114 t _ZN5Eigen8internal23triangular_solve_matrixIdlLi2ELi2ELb0ELi1ELi0ELi1EE3runEllPKdlPdllRNS0_15level3_blockingIddEE.isra.0.cold
00000000003dee70 t _ZN5Eigen8internal29general_matrix_vector_productIldNS0_22const_blas_data_mapperIdlLi0EEELi0ELb0EdNS2_IdlLi1EEELb0ELi0EE3runEllRKS3_RKS4_Pdld.isra.0
000000000040ded0 t _ZN5Eigen8internal29general_matrix_vector_productIldNS0_22const_blas_data_mapperIdlLi0EEELi0ELb0EdNS2_IdlLi1EEELb0ELi0EE3runEllRKS3_RKS4_Pdld.isra.0
0000000000419150 W _ZN5Eigen8internal37evaluateProductBlockingSizesHeuristicIddLi1ElEEvRT2_S3_S3_S2_
0000000000418770 W _ZN5Eigen8internal37evaluateProductBlockingSizesHeuristicIddLi4ElEEvRT2_S3_S3_S2_
00000000004122e0 t _ZN5Eigen8internal40general_matrix_matrix_triangular_productIldLi0ELb0EdLi1ELb0ELi0ELi1ELi1ELi0EE3runEllPKdlS4_lPdllRS3_RNS0_15level3_blockingIddEE.constprop.0
00000000001d40ca t _ZN5Eigen8internal40general_matrix_matrix_triangular_productIldLi0ELb0EdLi1ELb0ELi0ELi1ELi1ELi0EE3runEllPKdlS4_lPdllRS3_RNS0_15level3_blockingIddEE.constprop.0.cold
                 U _ZN5jlcxx10apply_typeEP11_jl_value_tP14_jl_datatype_t
                 U _ZN5jlcxx10apply_typeEP11_jl_value_tP9jl_svec_t
                 U _ZN5jlcxx10julia_typeERKNSt7__cxx1112basic_stringIcSt11char_traitsIcESaIcEEES7_
00000000002617a0 W _ZN5jlcxx10julia_typeI8HydrogenEEP14_jl_datatype_tv
000000000025def0 W _ZN5jlcxx10julia_typeIN7autopas10MoleculeLJIdEEEEP14_jl_datatype_tv
000000000025dca0 W _ZN5jlcxx10julia_typeIN7autopas10MoleculeLJIfEEEEP14_jl_datatype_tv
000000000025e390 W _ZN5jlcxx10julia_typeIN7autopas12ParticleBaseIdlEEEEP14_jl_datatype_tv
000000000025e140 W _ZN5jlcxx10julia_typeIN7autopas12ParticleBaseIfiEEEEP14_jl_datatype_tv
000000000025eba0 W _ZN5jlcxx10julia_typeIN7autopas23ParticleIteratorWrapperINS1_10MoleculeLJIdEELb1EEEEEP14_jl_datatype_tv
000000000025e700 W _ZN5jlcxx10julia_typeIN7autopas25ParticleIteratorInterfaceINS1_10MoleculeLJIdEELb1EEEEEP14_jl_datatype_tv
000000000025edf0 W _ZN5jlcxx10julia_typeIN7autopas7AutoPasINS1_10MoleculeLJIdEEEEEEP14_jl_datatype_tv
000000000025e950 W _ZN5jlcxx10julia_typeIN7autopas8internal29ParticleIteratorInterfaceImplINS1_10MoleculeLJIdEELb1EEEEEP14_jl_datatype_tv
00000000002b4fc0 W _ZN5jlcxx10julia_typeINS_8ArrayRefIdLi1EEEEEP14_jl_datatype_tv
00000000002ab920 W _ZN5jlcxx10julia_typeIRKN7autopas10MoleculeLJIdEEEEP14_jl_datatype_tv
00000000002a34b0 W _ZN5jlcxx10julia_typeIRKdEEP14_jl_datatype_tv
0000000000273200 W _ZN5jlcxx10julia_typeIRN7autopas10MoleculeLJIdEEEEP14_jl_datatype_tv
000000000028ea00 W _ZN5jlcxx10julia_typeISt6vectorIN7autopas10MoleculeLJIdEESaIS4_EEEEP14_jl_datatype_tv
000000000026cee0 W _ZN5jlcxx10julia_typeISt6vectorIdSaIdEEEEP14_jl_datatype_tv
0000000000296300 W _ZN5jlcxx10julia_typeISt8valarrayIN7autopas10MoleculeLJIdEEEEEP14_jl_datatype_tv
000000000028aa60 W _ZN5jlcxx10julia_typeISt8valarrayIdEEEP14_jl_datatype_tv
000000000026d3c0 W _ZN5jlcxx10julia_typeIdEEP14_jl_datatype_tv
000000000026d6f0 W _ZN5jlcxx10julia_typeIlEEP14_jl_datatype_tv
00000000002a3250 W _ZN5jlcxx10julia_typeImEEP14_jl_datatype_tv
00000000002889e0 W _ZN5jlcxx11TypeWrapperI8HydrogenE6methodIvS1_JEEERS2_RKNSt7__cxx1112basic_stringIcSt11char_traitsIcESaIcEEEMT0_FT_DpT1_E
00000000001df140 t _ZN5jlcxx11TypeWrapperIN7autopas10MoleculeLJIfEEE6methodIvS3_JNS_8ArrayRefIdLi1EEEEEERS4_RKNSt7__cxx1112basic_stringIcSt11char_traitsIcESaIcEEEMT0_FT_DpT1_E.isra.0
00000000001d10d4 t _ZN5jlcxx11TypeWrapperIN7autopas10MoleculeLJIfEEE6methodIvS3_JNS_8ArrayRefIdLi1EEEEEERS4_RKNSt7__cxx1112basic_stringIcSt11char_traitsIcESaIcEEEMT0_FT_DpT1_E.isra.0.cold
00000000001dd970 t _ZN5jlcxx11TypeWrapperIN7autopas7AutoPasINS1_10MoleculeLJIdEEEEE6methodIvS5_JEEERS6_RKNSt7__cxx1112basic_stringIcSt11char_traitsIcESaIcEEEMT0_FT_DpT1_E.isra.0
00000000001d04c6 t _ZN5jlcxx11TypeWrapperIN7autopas7AutoPasINS1_10MoleculeLJIdEEEEE6methodIvS5_JEEERS6_RKNSt7__cxx1112basic_stringIcSt11char_traitsIcESaIcEEEMT0_FT_DpT1_E.isra.0.cold
                 U _ZN5jlcxx12new_datatypeEP9_jl_sym_tP12_jl_module_tP14_jl_datatype_tP9jl_svec_tS7_S7_iii
00000000001dd780 t _ZN5jlcxx13ParameterListIJN7autopas10MoleculeLJIdEEEEclEm.constprop.0
00000000001d0344 t _ZN5jlcxx13ParameterListIJN7autopas10MoleculeLJIdEEEEclEm.constprop.0.cold
00000000002a8930 t _ZN5jlcxx13ParameterListIJN7autopas10MoleculeLJIdEESaIS3_EEEclEm.constprop.0
00000000001de660 t _ZN5jlcxx13ParameterListIJN7autopas10MoleculeLJIdEEbEEclEm.constprop.0
00000000001d0c1e t _ZN5jlcxx13ParameterListIJN7autopas10MoleculeLJIdEEbEEclEm.constprop.0.cold
0000000000260800 t _ZN5jlcxx13ParameterListIJNS_7TypeVarILi1EEEEEclEm.constprop.0
00000000001dce80 t _ZN5jlcxx13ParameterListIJNS_7TypeVarILi1EEENS1_ILi2EEEEEclEm.constprop.0
00000000001cfff6 t _ZN5jlcxx13ParameterListIJNS_7TypeVarILi1EEENS1_ILi2EEEEEclEm.constprop.0.cold
00000000001ddc00 t _ZN5jlcxx13ParameterListIJdEEclEm.constprop.0
00000000001d05a6 t _ZN5jlcxx13ParameterListIJdEEclEm.constprop.0.cold
0000000000293860 t _ZN5jlcxx13ParameterListIJdSaIdEEEclEm.constprop.0
00000000001dde30 t _ZN5jlcxx13ParameterListIJdlEEclEm.constprop.0
00000000001d0710 t _ZN5jlcxx13ParameterListIJdlEEclEm.constprop.0.cold
00000000001de0b0 t _ZN5jlcxx13ParameterListIJfEEclEm.constprop.0
00000000001d08c8 t _ZN5jlcxx13ParameterListIJfEEclEm.constprop.0.cold
00000000001de320 t _ZN5jlcxx13ParameterListIJfiEEclEm.constprop.0
00000000001d0a48 t _ZN5jlcxx13ParameterListIJfiEEclEm.constprop.0.cold
00000000002696e0 W _ZN5jlcxx14JuliaTypeCacheIN7autopas12ParticleBaseIdlEEE14set_julia_typeEP14_jl_datatype_tb
0000000000269530 W _ZN5jlcxx14JuliaTypeCacheIN7autopas12ParticleBaseIfiEEE14set_julia_typeEP14_jl_datatype_tb
0000000000269a40 W _ZN5jlcxx14JuliaTypeCacheIN7autopas23ParticleIteratorWrapperINS1_10MoleculeLJIdEELb1EEEE14set_julia_typeEP14_jl_datatype_tb
0000000000262fc0 W _ZN5jlcxx14JuliaTypeCacheIN7autopas25ParticleIteratorInterfaceINS1_10MoleculeLJIdEELb1EEEE10julia_typeEv
0000000000269380 W _ZN5jlcxx14JuliaTypeCacheIN7autopas25ParticleIteratorInterfaceINS1_10MoleculeLJIdEELb1EEEE14set_julia_typeEP14_jl_datatype_tb
0000000000269bf0 W _ZN5jlcxx14JuliaTypeCacheIN7autopas7AutoPasINS1_10MoleculeLJIdEEEEE14set_julia_typeEP14_jl_datatype_tb
00000000002631b0 W _ZN5jlcxx14JuliaTypeCacheIN7autopas8internal29ParticleIteratorInterfaceImplINS1_10MoleculeLJIdEELb1EEEE10julia_typeEv
0000000000269890 W _ZN5jlcxx14JuliaTypeCacheIN7autopas8internal29ParticleIteratorInterfaceImplINS1_10MoleculeLJIdEELb1EEEE14set_julia_typeEP14_jl_datatype_tb
000000000028fee0 W _ZN5jlcxx14JuliaTypeCacheINS_10BoxedValueIN7autopas7AutoPasINS2_10MoleculeLJIdEEEEEEE14set_julia_typeEP14_jl_datatype_tb
000000000028c4c0 W _ZN5jlcxx14JuliaTypeCacheINSt7__cxx1112basic_stringIcSt11char_traitsIcESaIcEEEE10julia_typeEv
00000000002acd80 W _ZN5jlcxx14JuliaTypeCacheIPKSt6vectorIN7autopas10MoleculeLJIdEESaIS4_EEE14set_julia_typeEP14_jl_datatype_tb
0000000000284b30 W _ZN5jlcxx14JuliaTypeCacheIRN7autopas25ParticleIteratorInterfaceINS1_10MoleculeLJIdEELb1EEEE10julia_typeEv
0000000000284d20 W _ZN5jlcxx14JuliaTypeCacheIRN7autopas25ParticleIteratorInterfaceINS1_10MoleculeLJIdEELb1EEEE14set_julia_typeEP14_jl_datatype_tb
0000000000284ed0 W _ZN5jlcxx14JuliaTypeCacheIRN7autopas8internal29ParticleIteratorInterfaceImplINS1_10MoleculeLJIdEELb1EEEE14set_julia_typeEP14_jl_datatype_tb
00000000002a4020 W _ZN5jlcxx14JuliaTypeCacheIRdE10julia_typeEv
00000000002a4240 W _ZN5jlcxx14JuliaTypeCacheIRdE14set_julia_typeEP14_jl_datatype_tb
00000000002a8740 W _ZN5jlcxx14JuliaTypeCacheISaIN7autopas10MoleculeLJIdEEEE10julia_typeEv
0000000000293670 W _ZN5jlcxx14JuliaTypeCacheISaIdEE10julia_typeEv
000000000028e810 W _ZN5jlcxx14JuliaTypeCacheISt6vectorIN7autopas10MoleculeLJIdEESaIS4_EEE10julia_typeEv
0000000000290730 W _ZN5jlcxx14JuliaTypeCacheISt6vectorIN7autopas10MoleculeLJIdEESaIS4_EEE14set_julia_typeEP14_jl_datatype_tb
000000000026ccf0 W _ZN5jlcxx14JuliaTypeCacheISt6vectorIdSaIdEEE10julia_typeEv
00000000002724f0 W _ZN5jlcxx14JuliaTypeCacheISt6vectorIdSaIdEEE14set_julia_typeEP14_jl_datatype_tb
0000000000273d50 W _ZN5jlcxx14JuliaTypeCacheIbE10julia_typeEv
0000000000272cf0 W _ZN5jlcxx14JuliaTypeCacheIfE10julia_typeEv
0000000000273450 W _ZN5jlcxx14JuliaTypeCacheIiE10julia_typeEv
                 U _ZN5jlcxx14ModuleRegistry14current_moduleEv
                 U _ZN5jlcxx14jlcxx_type_mapEv
00000000001f6bd0 W _ZN5jlcxx15FunctionWrapperIN7autopas23ParticleIteratorWrapperINS1_10MoleculeLJIdEELb1EEEJPNS1_7AutoPasIS4_EENS1_7options16IteratorBehaviorEEE5thunkEv
00000000001f6bc0 W _ZN5jlcxx15FunctionWrapperIN7autopas23ParticleIteratorWrapperINS1_10MoleculeLJIdEELb1EEEJPNS1_7AutoPasIS4_EENS1_7options16IteratorBehaviorEEE7pointerEv
00000000001ff1b0 W _ZN5jlcxx15FunctionWrapperIN7autopas23ParticleIteratorWrapperINS1_10MoleculeLJIdEELb1EEEJPNS1_7AutoPasIS4_EENS1_7options16IteratorBehaviorEEED0Ev
00000000001f4970 W _ZN5jlcxx15FunctionWrapperIN7autopas23ParticleIteratorWrapperINS1_10MoleculeLJIdEELb1EEEJPNS1_7AutoPasIS4_EENS1_7options16IteratorBehaviorEEED1Ev
00000000001f4970 W _ZN5jlcxx15FunctionWrapperIN7autopas23ParticleIteratorWrapperINS1_10MoleculeLJIdEELb1EEEJPNS1_7AutoPasIS4_EENS1_7options16IteratorBehaviorEEED2Ev
00000000001f6bf0 W _ZN5jlcxx15FunctionWrapperIN7autopas23ParticleIteratorWrapperINS1_10MoleculeLJIdEELb1EEEJRNS1_7AutoPasIS4_EENS1_7options16IteratorBehaviorEEE5thunkEv
00000000001f6be0 W _ZN5jlcxx15FunctionWrapperIN7autopas23ParticleIteratorWrapperINS1_10MoleculeLJIdEELb1EEEJRNS1_7AutoPasIS4_EENS1_7options16IteratorBehaviorEEE7pointerEv
00000000001ff170 W _ZN5jlcxx15FunctionWrapperIN7autopas23ParticleIteratorWrapperINS1_10MoleculeLJIdEELb1EEEJRNS1_7AutoPasIS4_EENS1_7options16IteratorBehaviorEEED0Ev
00000000001f49c0 W _ZN5jlcxx15FunctionWrapperIN7autopas23ParticleIteratorWrapperINS1_10MoleculeLJIdEELb1EEEJRNS1_7AutoPasIS4_EENS1_7options16IteratorBehaviorEEED1Ev
00000000001f49c0 W _ZN5jlcxx15FunctionWrapperIN7autopas23ParticleIteratorWrapperINS1_10MoleculeLJIdEELb1EEEJRNS1_7AutoPasIS4_EENS1_7options16IteratorBehaviorEEED2Ev
00000000001f6d70 W _ZN5jlcxx15FunctionWrapperINS_10BoxedValueI8HydrogenEEJEE5thunkEv
00000000001f6d60 W _ZN5jlcxx15FunctionWrapperINS_10BoxedValueI8HydrogenEEJEE7pointerEv
00000000001fef30 W _ZN5jlcxx15FunctionWrapperINS_10BoxedValueI8HydrogenEEJEED0Ev
00000000001f4c90 W _ZN5jlcxx15FunctionWrapperINS_10BoxedValueI8HydrogenEEJEED1Ev
00000000001f4c90 W _ZN5jlcxx15FunctionWrapperINS_10BoxedValueI8HydrogenEEJEED2Ev
00000000001f6fb0 W _ZN5jlcxx15FunctionWrapperINS_10BoxedValueI8HydrogenEEJRKS2_EE5thunkEv
00000000001f6fa0 W _ZN5jlcxx15FunctionWrapperINS_10BoxedValueI8HydrogenEEJRKS2_EE7pointerEv
00000000001feb90 W _ZN5jlcxx15FunctionWrapperINS_10BoxedValueI8HydrogenEEJRKS2_EED0Ev
00000000001f50f0 W _ZN5jlcxx15FunctionWrapperINS_10BoxedValueI8HydrogenEEJRKS2_EED1Ev
00000000001f50f0 W _ZN5jlcxx15FunctionWrapperINS_10BoxedValueI8HydrogenEEJRKS2_EED2Ev
00000000001f7110 W _ZN5jlcxx15FunctionWrapperINS_10BoxedValueI8HydrogenEEJiSt6vectorIdSaIdEES6_EE5thunkEv
00000000001f7100 W _ZN5jlcxx15FunctionWrapperINS_10BoxedValueI8HydrogenEEJiSt6vectorIdSaIdEES6_EE7pointerEv
00000000001fe830 W _ZN5jlcxx15FunctionWrapperINS_10BoxedValueI8HydrogenEEJiSt6vectorIdSaIdEES6_EED0Ev
00000000001f5460 W _ZN5jlcxx15FunctionWrapperINS_10BoxedValueI8HydrogenEEJiSt6vectorIdSaIdEES6_EED1Ev
00000000001f5460 W _ZN5jlcxx15FunctionWrapperINS_10BoxedValueI8HydrogenEEJiSt6vectorIdSaIdEES6_EED2Ev
00000000001f6eb0 W _ZN5jlcxx15FunctionWrapperINS_10BoxedValueIN7autopas10MoleculeLJIdEEEEJEE5thunkEv
00000000001f6ea0 W _ZN5jlcxx15FunctionWrapperINS_10BoxedValueIN7autopas10MoleculeLJIdEEEEJEE7pointerEv
00000000001fed70 W _ZN5jlcxx15FunctionWrapperINS_10BoxedValueIN7autopas10MoleculeLJIdEEEEJEED0Ev
00000000001f4ec0 W _ZN5jlcxx15FunctionWrapperINS_10BoxedValueIN7autopas10MoleculeLJIdEEEEJEED1Ev
00000000001f4ec0 W _ZN5jlcxx15FunctionWrapperINS_10BoxedValueIN7autopas10MoleculeLJIdEEEEJEED2Ev
00000000001f6b90 W _ZN5jlcxx15FunctionWrapperINS_10BoxedValueIN7autopas10MoleculeLJIdEEEEJNS_8ArrayRefIdLi1EEES7_iiEE5thunkEv
00000000001f6b80 W _ZN5jlcxx15FunctionWrapperINS_10BoxedValueIN7autopas10MoleculeLJIdEEEEJNS_8ArrayRefIdLi1EEES7_iiEE7pointerEv
00000000001ff230 W _ZN5jlcxx15FunctionWrapperINS_10BoxedValueIN7autopas10MoleculeLJIdEEEEJNS_8ArrayRefIdLi1EEES7_iiEED0Ev
00000000001f48d0 W _ZN5jlcxx15FunctionWrapperINS_10BoxedValueIN7autopas10MoleculeLJIdEEEEJNS_8ArrayRefIdLi1EEES7_iiEED1Ev
00000000001f48d0 W _ZN5jlcxx15FunctionWrapperINS_10BoxedValueIN7autopas10MoleculeLJIdEEEEJNS_8ArrayRefIdLi1EEES7_iiEED2Ev
00000000001f7010 W _ZN5jlcxx15FunctionWrapperINS_10BoxedValueIN7autopas10MoleculeLJIdEEEEJRKS4_EE5thunkEv
00000000001f7000 W _ZN5jlcxx15FunctionWrapperINS_10BoxedValueIN7autopas10MoleculeLJIdEEEEJRKS4_EE7pointerEv
00000000001fead0 W _ZN5jlcxx15FunctionWrapperINS_10BoxedValueIN7autopas10MoleculeLJIdEEEEJRKS4_EED0Ev
00000000001f51e0 W _ZN5jlcxx15FunctionWrapperINS_10BoxedValueIN7autopas10MoleculeLJIdEEEEJRKS4_EED1Ev
00000000001f51e0 W _ZN5jlcxx15FunctionWrapperINS_10BoxedValueIN7autopas10MoleculeLJIdEEEEJRKS4_EED2Ev
00000000001f6f70 W _ZN5jlcxx15FunctionWrapperINS_10BoxedValueIN7autopas10MoleculeLJIfEEEEJEE5thunkEv
00000000001f6f60 W _ZN5jlcxx15FunctionWrapperINS_10BoxedValueIN7autopas10MoleculeLJIfEEEEJEE7pointerEv
00000000001fec30 W _ZN5jlcxx15FunctionWrapperINS_10BoxedValueIN7autopas10MoleculeLJIfEEEEJEED0Ev
00000000001f5050 W _ZN5jlcxx15FunctionWrapperINS_10BoxedValueIN7autopas10MoleculeLJIfEEEEJEED1Ev
00000000001f5050 W _ZN5jlcxx15FunctionWrapperINS_10BoxedValueIN7autopas10MoleculeLJIfEEEEJEED2Ev
00000000001f6bb0 W _ZN5jlcxx15FunctionWrapperINS_10BoxedValueIN7autopas10MoleculeLJIfEEEEJNS_8ArrayRefIdLi1EEES7_iiEE5thunkEv
00000000001f6ba0 W _ZN5jlcxx15FunctionWrapperINS_10BoxedValueIN7autopas10MoleculeLJIfEEEEJNS_8ArrayRefIdLi1EEES7_iiEE7pointerEv
00000000001ff1f0 W _ZN5jlcxx15FunctionWrapperINS_10BoxedValueIN7autopas10MoleculeLJIfEEEEJNS_8ArrayRefIdLi1EEES7_iiEED0Ev
00000000001f4920 W _ZN5jlcxx15FunctionWrapperINS_10BoxedValueIN7autopas10MoleculeLJIfEEEEJNS_8ArrayRefIdLi1EEES7_iiEED1Ev
00000000001f4920 W _ZN5jlcxx15FunctionWrapperINS_10BoxedValueIN7autopas10MoleculeLJIfEEEEJNS_8ArrayRefIdLi1EEES7_iiEED2Ev
00000000001f7030 W _ZN5jlcxx15FunctionWrapperINS_10BoxedValueIN7autopas10MoleculeLJIfEEEEJRKS4_EE5thunkEv
00000000001f7020 W _ZN5jlcxx15FunctionWrapperINS_10BoxedValueIN7autopas10MoleculeLJIfEEEEJRKS4_EE7pointerEv
00000000001fea90 W _ZN5jlcxx15FunctionWrapperINS_10BoxedValueIN7autopas10MoleculeLJIfEEEEJRKS4_EED0Ev
00000000001f5230 W _ZN5jlcxx15FunctionWrapperINS_10BoxedValueIN7autopas10MoleculeLJIfEEEEJRKS4_EED1Ev
00000000001f5230 W _ZN5jlcxx15FunctionWrapperINS_10BoxedValueIN7autopas10MoleculeLJIfEEEEJRKS4_EED2Ev
00000000001f6db0 W _ZN5jlcxx15FunctionWrapperINS_10BoxedValueIN7autopas12ParticleBaseIdlEEEEJEE5thunkEv
00000000001f6da0 W _ZN5jlcxx15FunctionWrapperINS_10BoxedValueIN7autopas12ParticleBaseIdlEEEEJEE7pointerEv
00000000001feef0 W _ZN5jlcxx15FunctionWrapperINS_10BoxedValueIN7autopas12ParticleBaseIdlEEEEJEED0Ev
00000000001f4ce0 W _ZN5jlcxx15FunctionWrapperINS_10BoxedValueIN7autopas12ParticleBaseIdlEEEEJEED1Ev
00000000001f4ce0 W _ZN5jlcxx15FunctionWrapperINS_10BoxedValueIN7autopas12ParticleBaseIdlEEEEJEED2Ev
00000000001f6fd0 W _ZN5jlcxx15FunctionWrapperINS_10BoxedValueIN7autopas12ParticleBaseIdlEEEEJRKS4_EE5thunkEv
00000000001f6fc0 W _ZN5jlcxx15FunctionWrapperINS_10BoxedValueIN7autopas12ParticleBaseIdlEEEEJRKS4_EE7pointerEv
00000000001feb50 W _ZN5jlcxx15FunctionWrapperINS_10BoxedValueIN7autopas12ParticleBaseIdlEEEEJRKS4_EED0Ev
00000000001f5140 W _ZN5jlcxx15FunctionWrapperINS_10BoxedValueIN7autopas12ParticleBaseIdlEEEEJRKS4_EED1Ev
00000000001f5140 W _ZN5jlcxx15FunctionWrapperINS_10BoxedValueIN7autopas12ParticleBaseIdlEEEEJRKS4_EED2Ev
00000000001f6df0 W _ZN5jlcxx15FunctionWrapperINS_10BoxedValueIN7autopas12ParticleBaseIfiEEEEJEE5thunkEv
00000000001f6de0 W _ZN5jlcxx15FunctionWrapperINS_10BoxedValueIN7autopas12ParticleBaseIfiEEEEJEE7pointerEv
00000000001feeb0 W _ZN5jlcxx15FunctionWrapperINS_10BoxedValueIN7autopas12ParticleBaseIfiEEEEJEED0Ev
00000000001f4d30 W _ZN5jlcxx15FunctionWrapperINS_10BoxedValueIN7autopas12ParticleBaseIfiEEEEJEED1Ev
00000000001f4d30 W _ZN5jlcxx15FunctionWrapperINS_10BoxedValueIN7autopas12ParticleBaseIfiEEEEJEED2Ev
00000000001f6ff0 W _ZN5jlcxx15FunctionWrapperINS_10BoxedValueIN7autopas12ParticleBaseIfiEEEEJRKS4_EE5thunkEv
00000000001f6fe0 W _ZN5jlcxx15FunctionWrapperINS_10BoxedValueIN7autopas12ParticleBaseIfiEEEEJRKS4_EE7pointerEv
00000000001feb10 W _ZN5jlcxx15FunctionWrapperINS_10BoxedValueIN7autopas12ParticleBaseIfiEEEEJRKS4_EED0Ev
00000000001f5190 W _ZN5jlcxx15FunctionWrapperINS_10BoxedValueIN7autopas12ParticleBaseIfiEEEEJRKS4_EED1Ev
00000000001f5190 W _ZN5jlcxx15FunctionWrapperINS_10BoxedValueIN7autopas12ParticleBaseIfiEEEEJRKS4_EED2Ev
00000000001f6d30 W _ZN5jlcxx15FunctionWrapperINS_10BoxedValueIN7autopas23ParticleIteratorWrapperINS2_10MoleculeLJIdEELb1EEEEEJEE5thunkEv
00000000001f6d20 W _ZN5jlcxx15FunctionWrapperINS_10BoxedValueIN7autopas23ParticleIteratorWrapperINS2_10MoleculeLJIdEELb1EEEEEJEE7pointerEv
00000000001fef70 W _ZN5jlcxx15FunctionWrapperINS_10BoxedValueIN7autopas23ParticleIteratorWrapperINS2_10MoleculeLJIdEELb1EEEEEJEED0Ev
00000000001f4c40 W _ZN5jlcxx15FunctionWrapperINS_10BoxedValueIN7autopas23ParticleIteratorWrapperINS2_10MoleculeLJIdEELb1EEEEEJEED1Ev
00000000001f4c40 W _ZN5jlcxx15FunctionWrapperINS_10BoxedValueIN7autopas23ParticleIteratorWrapperINS2_10MoleculeLJIdEELb1EEEEEJEED2Ev
00000000001f6f90 W _ZN5jlcxx15FunctionWrapperINS_10BoxedValueIN7autopas23ParticleIteratorWrapperINS2_10MoleculeLJIdEELb1EEEEEJRKS6_EE5thunkEv
00000000001f6f80 W _ZN5jlcxx15FunctionWrapperINS_10BoxedValueIN7autopas23ParticleIteratorWrapperINS2_10MoleculeLJIdEELb1EEEEEJRKS6_EE7pointerEv
00000000001febd0 W _ZN5jlcxx15FunctionWrapperINS_10BoxedValueIN7autopas23ParticleIteratorWrapperINS2_10MoleculeLJIdEELb1EEEEEJRKS6_EED0Ev
00000000001f50a0 W _ZN5jlcxx15FunctionWrapperINS_10BoxedValueIN7autopas23ParticleIteratorWrapperINS2_10MoleculeLJIdEELb1EEEEEJRKS6_EED1Ev
00000000001f50a0 W _ZN5jlcxx15FunctionWrapperINS_10BoxedValueIN7autopas23ParticleIteratorWrapperINS2_10MoleculeLJIdEELb1EEEEEJRKS6_EED2Ev
00000000001f6cb0 W _ZN5jlcxx15FunctionWrapperINS_10BoxedValueIN7autopas7AutoPasINS2_10MoleculeLJIdEEEEEEJEE5thunkEv
00000000001f6ca0 W _ZN5jlcxx15FunctionWrapperINS_10BoxedValueIN7autopas7AutoPasINS2_10MoleculeLJIdEEEEEEJEE7pointerEv
00000000001ff030 W _ZN5jlcxx15FunctionWrapperINS_10BoxedValueIN7autopas7AutoPasINS2_10MoleculeLJIdEEEEEEJEED0Ev
00000000001f4b50 W _ZN5jlcxx15FunctionWrapperINS_10BoxedValueIN7autopas7AutoPasINS2_10MoleculeLJIdEEEEEEJEED1Ev
00000000001f4b50 W _ZN5jlcxx15FunctionWrapperINS_10BoxedValueIN7autopas7AutoPasINS2_10MoleculeLJIdEEEEEEJEED2Ev
00000000001f5ae0 W _ZN5jlcxx15FunctionWrapperINS_10BoxedValueISt6vectorIN7autopas10MoleculeLJIdEESaIS5_EEEEJEE5thunkEv
00000000001f5ad0 W _ZN5jlcxx15FunctionWrapperINS_10BoxedValueISt6vectorIN7autopas10MoleculeLJIdEESaIS5_EEEEJEE7pointerEv
00000000001ffbb0 W _ZN5jlcxx15FunctionWrapperINS_10BoxedValueISt6vectorIN7autopas10MoleculeLJIdEESaIS5_EEEEJEED0Ev
00000000001f3f80 W _ZN5jlcxx15FunctionWrapperINS_10BoxedValueISt6vectorIN7autopas10MoleculeLJIdEESaIS5_EEEEJEED1Ev
00000000001f3f80 W _ZN5jlcxx15FunctionWrapperINS_10BoxedValueISt6vectorIN7autopas10MoleculeLJIdEESaIS5_EEEEJEED2Ev
00000000001f5b20 W _ZN5jlcxx15FunctionWrapperINS_10BoxedValueISt6vectorIN7autopas10MoleculeLJIdEESaIS5_EEEEJRKS7_EE5thunkEv
00000000001f5b10 W _ZN5jlcxx15FunctionWrapperINS_10BoxedValueISt6vectorIN7autopas10MoleculeLJIdEESaIS5_EEEEJRKS7_EE7pointerEv
00000000001ffb30 W _ZN5jlcxx15FunctionWrapperINS_10BoxedValueISt6vectorIN7autopas10MoleculeLJIdEESaIS5_EEEEJRKS7_EED0Ev
00000000001f4020 W _ZN5jlcxx15FunctionWrapperINS_10BoxedValueISt6vectorIN7autopas10MoleculeLJIdEESaIS5_EEEEJRKS7_EED1Ev
00000000001f4020 W _ZN5jlcxx15FunctionWrapperINS_10BoxedValueISt6vectorIN7autopas10MoleculeLJIdEESaIS5_EEEEJRKS7_EED2Ev
00000000001f5e60 W _ZN5jlcxx15FunctionWrapperINS_10BoxedValueISt6vectorIdSaIdEEEEJEE5thunkEv
00000000001f5e50 W _ZN5jlcxx15FunctionWrapperINS_10BoxedValueISt6vectorIdSaIdEEEEJEE7pointerEv
00000000001ff430 W _ZN5jlcxx15FunctionWrapperINS_10BoxedValueISt6vectorIdSaIdEEEEJEED0Ev
00000000001f4720 W _ZN5jlcxx15FunctionWrapperINS_10BoxedValueISt6vectorIdSaIdEEEEJEED1Ev
00000000001f4720 W _ZN5jlcxx15FunctionWrapperINS_10BoxedValueISt6vectorIdSaIdEEEEJEED2Ev
00000000001f5ea0 W _ZN5jlcxx15FunctionWrapperINS_10BoxedValueISt6vectorIdSaIdEEEEJRKS4_EE5thunkEv
00000000001f5e90 W _ZN5jlcxx15FunctionWrapperINS_10BoxedValueISt6vectorIdSaIdEEEEJRKS4_EE7pointerEv
00000000001ff370 W _ZN5jlcxx15FunctionWrapperINS_10BoxedValueISt6vectorIdSaIdEEEEJRKS4_EED0Ev
00000000001f47c0 W _ZN5jlcxx15FunctionWrapperINS_10BoxedValueISt6vectorIdSaIdEEEEJRKS4_EED1Ev
00000000001f47c0 W _ZN5jlcxx15FunctionWrapperINS_10BoxedValueISt6vectorIdSaIdEEEEJRKS4_EED2Ev
00000000001f5aa0 W _ZN5jlcxx15FunctionWrapperINS_10BoxedValueISt8valarrayIN7autopas10MoleculeLJIdEEEEEJEE5thunkEv
00000000001f5a90 W _ZN5jlcxx15FunctionWrapperINS_10BoxedValueISt8valarrayIN7autopas10MoleculeLJIdEEEEEJEE7pointerEv
00000000001ffbf0 W _ZN5jlcxx15FunctionWrapperINS_10BoxedValueISt8valarrayIN7autopas10MoleculeLJIdEEEEEJEED0Ev
00000000001f3f30 W _ZN5jlcxx15FunctionWrapperINS_10BoxedValueISt8valarrayIN7autopas10MoleculeLJIdEEEEEJEED1Ev
00000000001f3f30 W _ZN5jlcxx15FunctionWrapperINS_10BoxedValueISt8valarrayIN7autopas10MoleculeLJIdEEEEEJEED2Ev
00000000001f58c0 W _ZN5jlcxx15FunctionWrapperINS_10BoxedValueISt8valarrayIN7autopas10MoleculeLJIdEEEEEJPKS5_mEE5thunkEv
00000000001f58b0 W _ZN5jlcxx15FunctionWrapperINS_10BoxedValueISt8valarrayIN7autopas10MoleculeLJIdEEEEEJPKS5_mEE7pointerEv
00000000001fff70 W _ZN5jlcxx15FunctionWrapperINS_10BoxedValueISt8valarrayIN7autopas10MoleculeLJIdEEEEEJPKS5_mEED0Ev
00000000001f3ad0 W _ZN5jlcxx15FunctionWrapperINS_10BoxedValueISt8valarrayIN7autopas10MoleculeLJIdEEEEEJPKS5_mEED1Ev
00000000001f3ad0 W _ZN5jlcxx15FunctionWrapperINS_10BoxedValueISt8valarrayIN7autopas10MoleculeLJIdEEEEEJPKS5_mEED2Ev
00000000001f58e0 W _ZN5jlcxx15FunctionWrapperINS_10BoxedValueISt8valarrayIN7autopas10MoleculeLJIdEEEEEJRKS5_mEE5thunkEv
00000000001f58d0 W _ZN5jlcxx15FunctionWrapperINS_10BoxedValueISt8valarrayIN7autopas10MoleculeLJIdEEEEEJRKS5_mEE7pointerEv
00000000001fff30 W _ZN5jlcxx15FunctionWrapperINS_10BoxedValueISt8valarrayIN7autopas10MoleculeLJIdEEEEEJRKS5_mEED0Ev
00000000001f3b20 W _ZN5jlcxx15FunctionWrapperINS_10BoxedValueISt8valarrayIN7autopas10MoleculeLJIdEEEEEJRKS5_mEED1Ev
00000000001f3b20 W _ZN5jlcxx15FunctionWrapperINS_10BoxedValueISt8valarrayIN7autopas10MoleculeLJIdEEEEEJRKS5_mEED2Ev
00000000001f5b00 W _ZN5jlcxx15FunctionWrapperINS_10BoxedValueISt8valarrayIN7autopas10MoleculeLJIdEEEEEJRKS6_EE5thunkEv
00000000001f5af0 W _ZN5jlcxx15FunctionWrapperINS_10BoxedValueISt8valarrayIN7autopas10MoleculeLJIdEEEEEJRKS6_EE7pointerEv
00000000001ffb70 W _ZN5jlcxx15FunctionWrapperINS_10BoxedValueISt8valarrayIN7autopas10MoleculeLJIdEEEEEJRKS6_EED0Ev
00000000001f3fd0 W _ZN5jlcxx15FunctionWrapperINS_10BoxedValueISt8valarrayIN7autopas10MoleculeLJIdEEEEEJRKS6_EED1Ev
00000000001f3fd0 W _ZN5jlcxx15FunctionWrapperINS_10BoxedValueISt8valarrayIN7autopas10MoleculeLJIdEEEEEJRKS6_EED2Ev
00000000001f5900 W _ZN5jlcxx15FunctionWrapperINS_10BoxedValueISt8valarrayIN7autopas10MoleculeLJIdEEEEEJmEE5thunkEv
00000000001f58f0 W _ZN5jlcxx15FunctionWrapperINS_10BoxedValueISt8valarrayIN7autopas10MoleculeLJIdEEEEEJmEE7pointerEv
00000000001ffef0 W _ZN5jlcxx15FunctionWrapperINS_10BoxedValueISt8valarrayIN7autopas10MoleculeLJIdEEEEEJmEED0Ev
00000000001f3b70 W _ZN5jlcxx15FunctionWrapperINS_10BoxedValueISt8valarrayIN7autopas10MoleculeLJIdEEEEEJmEED1Ev
00000000001f3b70 W _ZN5jlcxx15FunctionWrapperINS_10BoxedValueISt8valarrayIN7autopas10MoleculeLJIdEEEEEJmEED2Ev
00000000001f5e20 W _ZN5jlcxx15FunctionWrapperINS_10BoxedValueISt8valarrayIdEEEJEE5thunkEv
00000000001f5e10 W _ZN5jlcxx15FunctionWrapperINS_10BoxedValueISt8valarrayIdEEEJEE7pointerEv
00000000001ff470 W _ZN5jlcxx15FunctionWrapperINS_10BoxedValueISt8valarrayIdEEEJEED0Ev
00000000001f46d0 W _ZN5jlcxx15FunctionWrapperINS_10BoxedValueISt8valarrayIdEEEJEED1Ev
00000000001f46d0 W _ZN5jlcxx15FunctionWrapperINS_10BoxedValueISt8valarrayIdEEEJEED2Ev
00000000001f5c40 W _ZN5jlcxx15FunctionWrapperINS_10BoxedValueISt8valarrayIdEEEJPKdmEE5thunkEv
00000000001f5c30 W _ZN5jlcxx15FunctionWrapperINS_10BoxedValueISt8valarrayIdEEEJPKdmEE7pointerEv
00000000001ff7f0 W _ZN5jlcxx15FunctionWrapperINS_10BoxedValueISt8valarrayIdEEEJPKdmEED0Ev
00000000001f4270 W _ZN5jlcxx15FunctionWrapperINS_10BoxedValueISt8valarrayIdEEEJPKdmEED1Ev
00000000001f4270 W _ZN5jlcxx15FunctionWrapperINS_10BoxedValueISt8valarrayIdEEEJPKdmEED2Ev
00000000001f5e80 W _ZN5jlcxx15FunctionWrapperINS_10BoxedValueISt8valarrayIdEEEJRKS3_EE5thunkEv
00000000001f5e70 W _ZN5jlcxx15FunctionWrapperINS_10BoxedValueISt8valarrayIdEEEJRKS3_EE7pointerEv
00000000001ff3b0 W _ZN5jlcxx15FunctionWrapperINS_10BoxedValueISt8valarrayIdEEEJRKS3_EED0Ev
00000000001f4770 W _ZN5jlcxx15FunctionWrapperINS_10BoxedValueISt8valarrayIdEEEJRKS3_EED1Ev
00000000001f4770 W _ZN5jlcxx15FunctionWrapperINS_10BoxedValueISt8valarrayIdEEEJRKS3_EED2Ev
00000000001f5c60 W _ZN5jlcxx15FunctionWrapperINS_10BoxedValueISt8valarrayIdEEEJRKdmEE5thunkEv
00000000001f5c50 W _ZN5jlcxx15FunctionWrapperINS_10BoxedValueISt8valarrayIdEEEJRKdmEE7pointerEv
00000000001ff7b0 W _ZN5jlcxx15FunctionWrapperINS_10BoxedValueISt8valarrayIdEEEJRKdmEED0Ev
00000000001f42c0 W _ZN5jlcxx15FunctionWrapperINS_10BoxedValueISt8valarrayIdEEEJRKdmEED1Ev
00000000001f42c0 W _ZN5jlcxx15FunctionWrapperINS_10BoxedValueISt8valarrayIdEEEJRKdmEED2Ev
00000000001f5c80 W _ZN5jlcxx15FunctionWrapperINS_10BoxedValueISt8valarrayIdEEEJmEE5thunkEv
00000000001f5c70 W _ZN5jlcxx15FunctionWrapperINS_10BoxedValueISt8valarrayIdEEEJmEE7pointerEv
00000000001ff770 W _ZN5jlcxx15FunctionWrapperINS_10BoxedValueISt8valarrayIdEEEJmEED0Ev
00000000001f4310 W _ZN5jlcxx15FunctionWrapperINS_10BoxedValueISt8valarrayIdEEEJmEED1Ev
00000000001f4310 W _ZN5jlcxx15FunctionWrapperINS_10BoxedValueISt8valarrayIdEEEJmEED2Ev
00000000001f6e10 W _ZN5jlcxx15FunctionWrapperINSt7__cxx1112basic_stringIcSt11char_traitsIcESaIcEEEJPKN7autopas10MoleculeLJIdEEEE5thunkEv
00000000001f6e00 W _ZN5jlcxx15FunctionWrapperINSt7__cxx1112basic_stringIcSt11char_traitsIcESaIcEEEJPKN7autopas10MoleculeLJIdEEEE7pointerEv
00000000001fee70 W _ZN5jlcxx15FunctionWrapperINSt7__cxx1112basic_stringIcSt11char_traitsIcESaIcEEEJPKN7autopas10MoleculeLJIdEEEED0Ev
00000000001f4d80 W _ZN5jlcxx15FunctionWrapperINSt7__cxx1112basic_stringIcSt11char_traitsIcESaIcEEEJPKN7autopas10MoleculeLJIdEEEED1Ev
00000000001f4d80 W _ZN5jlcxx15FunctionWrapperINSt7__cxx1112basic_stringIcSt11char_traitsIcESaIcEEEJPKN7autopas10MoleculeLJIdEEEED2Ev
00000000001f6ed0 W _ZN5jlcxx15FunctionWrapperINSt7__cxx1112basic_stringIcSt11char_traitsIcESaIcEEEJPKN7autopas10MoleculeLJIfEEEE5thunkEv
00000000001f6ec0 W _ZN5jlcxx15FunctionWrapperINSt7__cxx1112basic_stringIcSt11char_traitsIcESaIcEEEJPKN7autopas10MoleculeLJIfEEEE7pointerEv
00000000001fed30 W _ZN5jlcxx15FunctionWrapperINSt7__cxx1112basic_stringIcSt11char_traitsIcESaIcEEEJPKN7autopas10MoleculeLJIfEEEED0Ev
00000000001f4f10 W _ZN5jlcxx15FunctionWrapperINSt7__cxx1112basic_stringIcSt11char_traitsIcESaIcEEEJPKN7autopas10MoleculeLJIfEEEED1Ev
00000000001f4f10 W _ZN5jlcxx15FunctionWrapperINSt7__cxx1112basic_stringIcSt11char_traitsIcESaIcEEEJPKN7autopas10MoleculeLJIfEEEED2Ev
00000000001f6e30 W _ZN5jlcxx15FunctionWrapperINSt7__cxx1112basic_stringIcSt11char_traitsIcESaIcEEEJRKN7autopas10MoleculeLJIdEEEE5thunkEv
00000000001f6e20 W _ZN5jlcxx15FunctionWrapperINSt7__cxx1112basic_stringIcSt11char_traitsIcESaIcEEEJRKN7autopas10MoleculeLJIdEEEE7pointerEv
00000000001fee30 W _ZN5jlcxx15FunctionWrapperINSt7__cxx1112basic_stringIcSt11char_traitsIcESaIcEEEJRKN7autopas10MoleculeLJIdEEEED0Ev
00000000001f4dd0 W _ZN5jlcxx15FunctionWrapperINSt7__cxx1112basic_stringIcSt11char_traitsIcESaIcEEEJRKN7autopas10MoleculeLJIdEEEED1Ev
00000000001f4dd0 W _ZN5jlcxx15FunctionWrapperINSt7__cxx1112basic_stringIcSt11char_traitsIcESaIcEEEJRKN7autopas10MoleculeLJIdEEEED2Ev
00000000001f6ef0 W _ZN5jlcxx15FunctionWrapperINSt7__cxx1112basic_stringIcSt11char_traitsIcESaIcEEEJRKN7autopas10MoleculeLJIfEEEE5thunkEv
00000000001f6ee0 W _ZN5jlcxx15FunctionWrapperINSt7__cxx1112basic_stringIcSt11char_traitsIcESaIcEEEJRKN7autopas10MoleculeLJIfEEEE7pointerEv
00000000001fecf0 W _ZN5jlcxx15FunctionWrapperINSt7__cxx1112basic_stringIcSt11char_traitsIcESaIcEEEJRKN7autopas10MoleculeLJIfEEEED0Ev
00000000001f4f60 W _ZN5jlcxx15FunctionWrapperINSt7__cxx1112basic_stringIcSt11char_traitsIcESaIcEEEJRKN7autopas10MoleculeLJIfEEEED1Ev
00000000001f4f60 W _ZN5jlcxx15FunctionWrapperINSt7__cxx1112basic_stringIcSt11char_traitsIcESaIcEEEJRKN7autopas10MoleculeLJIfEEEED2Ev
00000000001f5960 W _ZN5jlcxx15FunctionWrapperIRKN7autopas10MoleculeLJIdEEJRKSt6vectorIS3_SaIS3_EElEE5thunkEv
00000000001f5950 W _ZN5jlcxx15FunctionWrapperIRKN7autopas10MoleculeLJIdEEJRKSt6vectorIS3_SaIS3_EElEE7pointerEv
00000000001ffe30 W _ZN5jlcxx15FunctionWrapperIRKN7autopas10MoleculeLJIdEEJRKSt6vectorIS3_SaIS3_EElEED0Ev
00000000001f3c60 W _ZN5jlcxx15FunctionWrapperIRKN7autopas10MoleculeLJIdEEJRKSt6vectorIS3_SaIS3_EElEED1Ev
00000000001f3c60 W _ZN5jlcxx15FunctionWrapperIRKN7autopas10MoleculeLJIdEEJRKSt6vectorIS3_SaIS3_EElEED2Ev
00000000001f5a00 W _ZN5jlcxx15FunctionWrapperIRKN7autopas10MoleculeLJIdEEJRKSt8valarrayIS3_ElEE5thunkEv
00000000001f59f0 W _ZN5jlcxx15FunctionWrapperIRKN7autopas10MoleculeLJIdEEJRKSt8valarrayIS3_ElEE7pointerEv
00000000001ffcf0 W _ZN5jlcxx15FunctionWrapperIRKN7autopas10MoleculeLJIdEEJRKSt8valarrayIS3_ElEED0Ev
00000000001f3df0 W _ZN5jlcxx15FunctionWrapperIRKN7autopas10MoleculeLJIdEEJRKSt8valarrayIS3_ElEED1Ev
00000000001f3df0 W _ZN5jlcxx15FunctionWrapperIRKN7autopas10MoleculeLJIdEEJRKSt8valarrayIS3_ElEED2Ev
00000000001f5ce0 W _ZN5jlcxx15FunctionWrapperIRKdJRKSt6vectorIdSaIdEElEE5thunkEv
00000000001f5cd0 W _ZN5jlcxx15FunctionWrapperIRKdJRKSt6vectorIdSaIdEElEE7pointerEv
00000000001ff6b0 W _ZN5jlcxx15FunctionWrapperIRKdJRKSt6vectorIdSaIdEElEED0Ev
00000000001f4400 W _ZN5jlcxx15FunctionWrapperIRKdJRKSt6vectorIdSaIdEElEED1Ev
00000000001f4400 W _ZN5jlcxx15FunctionWrapperIRKdJRKSt6vectorIdSaIdEElEED2Ev
00000000001f5d80 W _ZN5jlcxx15FunctionWrapperIRKdJRKSt8valarrayIdElEE5thunkEv
00000000001f5d70 W _ZN5jlcxx15FunctionWrapperIRKdJRKSt8valarrayIdElEE7pointerEv
00000000001ff570 W _ZN5jlcxx15FunctionWrapperIRKdJRKSt8valarrayIdElEED0Ev
00000000001f4590 W _ZN5jlcxx15FunctionWrapperIRKdJRKSt8valarrayIdElEED1Ev
00000000001f4590 W _ZN5jlcxx15FunctionWrapperIRKdJRKSt8valarrayIdElEED2Ev
00000000001f5940 W _ZN5jlcxx15FunctionWrapperIRN7autopas10MoleculeLJIdEEJRSt6vectorIS3_SaIS3_EElEE5thunkEv
00000000001f5930 W _ZN5jlcxx15FunctionWrapperIRN7autopas10MoleculeLJIdEEJRSt6vectorIS3_SaIS3_EElEE7pointerEv
00000000001ffe70 W _ZN5jlcxx15FunctionWrapperIRN7autopas10MoleculeLJIdEEJRSt6vectorIS3_SaIS3_EElEED0Ev
00000000001f3c10 W _ZN5jlcxx15FunctionWrapperIRN7autopas10MoleculeLJIdEEJRSt6vectorIS3_SaIS3_EElEED1Ev
00000000001f3c10 W _ZN5jlcxx15FunctionWrapperIRN7autopas10MoleculeLJIdEEJRSt6vectorIS3_SaIS3_EElEED2Ev
00000000001f59e0 W _ZN5jlcxx15FunctionWrapperIRN7autopas10MoleculeLJIdEEJRSt8valarrayIS3_ElEE5thunkEv
00000000001f59d0 W _ZN5jlcxx15FunctionWrapperIRN7autopas10MoleculeLJIdEEJRSt8valarrayIS3_ElEE7pointerEv
00000000001ffd30 W _ZN5jlcxx15FunctionWrapperIRN7autopas10MoleculeLJIdEEJRSt8valarrayIS3_ElEED0Ev
00000000001f3da0 W _ZN5jlcxx15FunctionWrapperIRN7autopas10MoleculeLJIdEEJRSt8valarrayIS3_ElEED1Ev
00000000001f3da0 W _ZN5jlcxx15FunctionWrapperIRN7autopas10MoleculeLJIdEEJRSt8valarrayIS3_ElEED2Ev
00000000001f7090 W _ZN5jlcxx15FunctionWrapperIRN7autopas25ParticleIteratorInterfaceINS1_10MoleculeLJIdEELb1EEEJRNS1_23ParticleIteratorWrapperIS4_Lb1EEEEE5thunkEv
00000000001f7080 W _ZN5jlcxx15FunctionWrapperIRN7autopas25ParticleIteratorInterfaceINS1_10MoleculeLJIdEELb1EEEJRNS1_23ParticleIteratorWrapperIS4_Lb1EEEEE7pointerEv
00000000001fe930 W _ZN5jlcxx15FunctionWrapperIRN7autopas25ParticleIteratorInterfaceINS1_10MoleculeLJIdEELb1EEEJRNS1_23ParticleIteratorWrapperIS4_Lb1EEEEED0Ev
00000000001f5320 W _ZN5jlcxx15FunctionWrapperIRN7autopas25ParticleIteratorInterfaceINS1_10MoleculeLJIdEELb1EEEJRNS1_23ParticleIteratorWrapperIS4_Lb1EEEEED1Ev
00000000001f5320 W _ZN5jlcxx15FunctionWrapperIRN7autopas25ParticleIteratorInterfaceINS1_10MoleculeLJIdEELb1EEEJRNS1_23ParticleIteratorWrapperIS4_Lb1EEEEED2Ev
00000000001f70d0 W _ZN5jlcxx15FunctionWrapperIRN7autopas25ParticleIteratorInterfaceINS1_10MoleculeLJIdEELb1EEEJRNS1_8internal29ParticleIteratorInterfaceImplIS4_Lb1EEEEE5thunkEv
00000000001f70c0 W _ZN5jlcxx15FunctionWrapperIRN7autopas25ParticleIteratorInterfaceINS1_10MoleculeLJIdEELb1EEEJRNS1_8internal29ParticleIteratorInterfaceImplIS4_Lb1EEEEE7pointerEv
00000000001fe8b0 W _ZN5jlcxx15FunctionWrapperIRN7autopas25ParticleIteratorInterfaceINS1_10MoleculeLJIdEELb1EEEJRNS1_8internal29ParticleIteratorInterfaceImplIS4_Lb1EEEEED0Ev
00000000001f53c0 W _ZN5jlcxx15FunctionWrapperIRN7autopas25ParticleIteratorInterfaceINS1_10MoleculeLJIdEELb1EEEJRNS1_8internal29ParticleIteratorInterfaceImplIS4_Lb1EEEEED1Ev
00000000001f53c0 W _ZN5jlcxx15FunctionWrapperIRN7autopas25ParticleIteratorInterfaceINS1_10MoleculeLJIdEELb1EEEJRNS1_8internal29ParticleIteratorInterfaceImplIS4_Lb1EEEEED2Ev
00000000001f5cc0 W _ZN5jlcxx15FunctionWrapperIRdJRSt6vectorIdSaIdEElEE5thunkEv
00000000001f5cb0 W _ZN5jlcxx15FunctionWrapperIRdJRSt6vectorIdSaIdEElEE7pointerEv
00000000001ff6f0 W _ZN5jlcxx15FunctionWrapperIRdJRSt6vectorIdSaIdEElEED0Ev
00000000001f43b0 W _ZN5jlcxx15FunctionWrapperIRdJRSt6vectorIdSaIdEElEED1Ev
00000000001f43b0 W _ZN5jlcxx15FunctionWrapperIRdJRSt6vectorIdSaIdEElEED2Ev
00000000001f5d60 W _ZN5jlcxx15FunctionWrapperIRdJRSt8valarrayIdElEE5thunkEv
00000000001f5d50 W _ZN5jlcxx15FunctionWrapperIRdJRSt8valarrayIdElEE7pointerEv
00000000001ff5b0 W _ZN5jlcxx15FunctionWrapperIRdJRSt8valarrayIdElEED0Ev
00000000001f4540 W _ZN5jlcxx15FunctionWrapperIRdJRSt8valarrayIdElEED1Ev
00000000001f4540 W _ZN5jlcxx15FunctionWrapperIRdJRSt8valarrayIdElEED2Ev
00000000001f6c50 W _ZN5jlcxx15FunctionWrapperISt6vectorIN7autopas10MoleculeLJIdEESaIS4_EEJPNS2_7AutoPasIS4_EEEE5thunkEv
00000000001f6c40 W _ZN5jlcxx15FunctionWrapperISt6vectorIN7autopas10MoleculeLJIdEESaIS4_EEJPNS2_7AutoPasIS4_EEEE7pointerEv
00000000001ff0b0 W _ZN5jlcxx15FunctionWrapperISt6vectorIN7autopas10MoleculeLJIdEESaIS4_EEJPNS2_7AutoPasIS4_EEEED0Ev
00000000001f4ab0 W _ZN5jlcxx15FunctionWrapperISt6vectorIN7autopas10MoleculeLJIdEESaIS4_EEJPNS2_7AutoPasIS4_EEEED1Ev
00000000001f4ab0 W _ZN5jlcxx15FunctionWrapperISt6vectorIN7autopas10MoleculeLJIdEESaIS4_EEJPNS2_7AutoPasIS4_EEEED2Ev
00000000001f6c70 W _ZN5jlcxx15FunctionWrapperISt6vectorIN7autopas10MoleculeLJIdEESaIS4_EEJRNS2_7AutoPasIS4_EEEE5thunkEv
00000000001f6c60 W _ZN5jlcxx15FunctionWrapperISt6vectorIN7autopas10MoleculeLJIdEESaIS4_EEJRNS2_7AutoPasIS4_EEEE7pointerEv
00000000001ff070 W _ZN5jlcxx15FunctionWrapperISt6vectorIN7autopas10MoleculeLJIdEESaIS4_EEJRNS2_7AutoPasIS4_EEEED0Ev
00000000001f4b00 W _ZN5jlcxx15FunctionWrapperISt6vectorIN7autopas10MoleculeLJIdEESaIS4_EEJRNS2_7AutoPasIS4_EEEED1Ev
00000000001f4b00 W _ZN5jlcxx15FunctionWrapperISt6vectorIN7autopas10MoleculeLJIdEESaIS4_EEJRNS2_7AutoPasIS4_EEEED2Ev
00000000001f73e0 W _ZN5jlcxx15FunctionWrapperISt6vectorIdSaIdEEJdddEE5thunkEv
00000000001f73d0 W _ZN5jlcxx15FunctionWrapperISt6vectorIdSaIdEEJdddEE7pointerEv
00000000001fe600 W _ZN5jlcxx15FunctionWrapperISt6vectorIdSaIdEEJdddEED0Ev
00000000001f5780 W _ZN5jlcxx15FunctionWrapperISt6vectorIdSaIdEEJdddEED1Ev
00000000001f5780 W _ZN5jlcxx15FunctionWrapperISt6vectorIdSaIdEEJdddEED2Ev
00000000001f6cd0 W _ZN5jlcxx15FunctionWrapperIbJPKN7autopas23ParticleIteratorWrapperINS1_10MoleculeLJIdEELb1EEEEE5thunkEv
00000000001f6cc0 W _ZN5jlcxx15FunctionWrapperIbJPKN7autopas23ParticleIteratorWrapperINS1_10MoleculeLJIdEELb1EEEEE7pointerEv
00000000001feff0 W _ZN5jlcxx15FunctionWrapperIbJPKN7autopas23ParticleIteratorWrapperINS1_10MoleculeLJIdEELb1EEEEED0Ev
00000000001f4ba0 W _ZN5jlcxx15FunctionWrapperIbJPKN7autopas23ParticleIteratorWrapperINS1_10MoleculeLJIdEELb1EEEEED1Ev
00000000001f4ba0 W _ZN5jlcxx15FunctionWrapperIbJPKN7autopas23ParticleIteratorWrapperINS1_10MoleculeLJIdEELb1EEEEED2Ev
00000000001f6cf0 W _ZN5jlcxx15FunctionWrapperIbJRKN7autopas23ParticleIteratorWrapperINS1_10MoleculeLJIdEELb1EEEEE5thunkEv
00000000001f6ce0 W _ZN5jlcxx15FunctionWrapperIbJRKN7autopas23ParticleIteratorWrapperINS1_10MoleculeLJIdEELb1EEEEE7pointerEv
00000000001fefb0 W _ZN5jlcxx15FunctionWrapperIbJRKN7autopas23ParticleIteratorWrapperINS1_10MoleculeLJIdEELb1EEEEED0Ev
00000000001f4bf0 W _ZN5jlcxx15FunctionWrapperIbJRKN7autopas23ParticleIteratorWrapperINS1_10MoleculeLJIdEELb1EEEEED1Ev
00000000001f4bf0 W _ZN5jlcxx15FunctionWrapperIbJRKN7autopas23ParticleIteratorWrapperINS1_10MoleculeLJIdEELb1EEEEED2Ev
00000000001f5880 W _ZN5jlcxx15FunctionWrapperImJPKSt6vectorIN7autopas10MoleculeLJIdEESaIS4_EEEE5thunkEv
00000000001f5870 W _ZN5jlcxx15FunctionWrapperImJPKSt6vectorIN7autopas10MoleculeLJIdEESaIS4_EEEE7pointerEv
00000000001ffff0 W _ZN5jlcxx15FunctionWrapperImJPKSt6vectorIN7autopas10MoleculeLJIdEESaIS4_EEEED0Ev
00000000001f3a30 W _ZN5jlcxx15FunctionWrapperImJPKSt6vectorIN7autopas10MoleculeLJIdEESaIS4_EEEED1Ev
00000000001f3a30 W _ZN5jlcxx15FunctionWrapperImJPKSt6vectorIN7autopas10MoleculeLJIdEESaIS4_EEEED2Ev
00000000001f5c00 W _ZN5jlcxx15FunctionWrapperImJPKSt6vectorIdSaIdEEEE5thunkEv
00000000001f5bf0 W _ZN5jlcxx15FunctionWrapperImJPKSt6vectorIdSaIdEEEE7pointerEv
00000000001ff870 W _ZN5jlcxx15FunctionWrapperImJPKSt6vectorIdSaIdEEEED0Ev
00000000001f41d0 W _ZN5jlcxx15FunctionWrapperImJPKSt6vectorIdSaIdEEEED1Ev
00000000001f41d0 W _ZN5jlcxx15FunctionWrapperImJPKSt6vectorIdSaIdEEEED2Ev
00000000001f5a40 W _ZN5jlcxx15FunctionWrapperImJPKSt8valarrayIN7autopas10MoleculeLJIdEEEEE5thunkEv
00000000001f5a30 W _ZN5jlcxx15FunctionWrapperImJPKSt8valarrayIN7autopas10MoleculeLJIdEEEEE7pointerEv
00000000001ffc70 W _ZN5jlcxx15FunctionWrapperImJPKSt8valarrayIN7autopas10MoleculeLJIdEEEEED0Ev
00000000001f3e90 W _ZN5jlcxx15FunctionWrapperImJPKSt8valarrayIN7autopas10MoleculeLJIdEEEEED1Ev
00000000001f3e90 W _ZN5jlcxx15FunctionWrapperImJPKSt8valarrayIN7autopas10MoleculeLJIdEEEEED2Ev
00000000001f5dc0 W _ZN5jlcxx15FunctionWrapperImJPKSt8valarrayIdEEE5thunkEv
00000000001f5db0 W _ZN5jlcxx15FunctionWrapperImJPKSt8valarrayIdEEE7pointerEv
00000000001ff4f0 W _ZN5jlcxx15FunctionWrapperImJPKSt8valarrayIdEEED0Ev
00000000001f4630 W _ZN5jlcxx15FunctionWrapperImJPKSt8valarrayIdEEED1Ev
00000000001f4630 W _ZN5jlcxx15FunctionWrapperImJPKSt8valarrayIdEEED2Ev
00000000001f58a0 W _ZN5jlcxx15FunctionWrapperImJRKSt6vectorIN7autopas10MoleculeLJIdEESaIS4_EEEE5thunkEv
00000000001f5890 W _ZN5jlcxx15FunctionWrapperImJRKSt6vectorIN7autopas10MoleculeLJIdEESaIS4_EEEE7pointerEv
00000000001fffb0 W _ZN5jlcxx15FunctionWrapperImJRKSt6vectorIN7autopas10MoleculeLJIdEESaIS4_EEEED0Ev
00000000001f3a80 W _ZN5jlcxx15FunctionWrapperImJRKSt6vectorIN7autopas10MoleculeLJIdEESaIS4_EEEED1Ev
00000000001f3a80 W _ZN5jlcxx15FunctionWrapperImJRKSt6vectorIN7autopas10MoleculeLJIdEESaIS4_EEEED2Ev
00000000001f5c20 W _ZN5jlcxx15FunctionWrapperImJRKSt6vectorIdSaIdEEEE5thunkEv
00000000001f5c10 W _ZN5jlcxx15FunctionWrapperImJRKSt6vectorIdSaIdEEEE7pointerEv
00000000001ff830 W _ZN5jlcxx15FunctionWrapperImJRKSt6vectorIdSaIdEEEED0Ev
00000000001f4220 W _ZN5jlcxx15FunctionWrapperImJRKSt6vectorIdSaIdEEEED1Ev
00000000001f4220 W _ZN5jlcxx15FunctionWrapperImJRKSt6vectorIdSaIdEEEED2Ev
00000000001f5a60 W _ZN5jlcxx15FunctionWrapperImJRKSt8valarrayIN7autopas10MoleculeLJIdEEEEE5thunkEv
00000000001f5a50 W _ZN5jlcxx15FunctionWrapperImJRKSt8valarrayIN7autopas10MoleculeLJIdEEEEE7pointerEv
00000000001ffc30 W _ZN5jlcxx15FunctionWrapperImJRKSt8valarrayIN7autopas10MoleculeLJIdEEEEED0Ev
00000000001f3ee0 W _ZN5jlcxx15FunctionWrapperImJRKSt8valarrayIN7autopas10MoleculeLJIdEEEEED1Ev
00000000001f3ee0 W _ZN5jlcxx15FunctionWrapperImJRKSt8valarrayIN7autopas10MoleculeLJIdEEEEED2Ev
00000000001f5de0 W _ZN5jlcxx15FunctionWrapperImJRKSt8valarrayIdEEE5thunkEv
00000000001f5dd0 W _ZN5jlcxx15FunctionWrapperImJRKSt8valarrayIdEEE7pointerEv
00000000001ff4b0 W _ZN5jlcxx15FunctionWrapperImJRKSt8valarrayIdEEED0Ev
00000000001f4680 W _ZN5jlcxx15FunctionWrapperImJRKSt8valarrayIdEEED1Ev
00000000001f4680 W _ZN5jlcxx15FunctionWrapperImJRKSt8valarrayIdEEED2Ev
00000000001f7290 W _ZN5jlcxx15FunctionWrapperIvJP8HydrogenEE5thunkEv
00000000001f7280 W _ZN5jlcxx15FunctionWrapperIvJP8HydrogenEE7pointerEv
00000000001fe6c0 W _ZN5jlcxx15FunctionWrapperIvJP8HydrogenEED0Ev
00000000001f5630 W _ZN5jlcxx15FunctionWrapperIvJP8HydrogenEED1Ev
00000000001f5630 W _ZN5jlcxx15FunctionWrapperIvJP8HydrogenEED2Ev
00000000001f7170 W _ZN5jlcxx15FunctionWrapperIvJPN7autopas10MoleculeLJIdEEEE5thunkEv
00000000001f7160 W _ZN5jlcxx15FunctionWrapperIvJPN7autopas10MoleculeLJIdEEEE7pointerEv
00000000001fe770 W _ZN5jlcxx15FunctionWrapperIvJPN7autopas10MoleculeLJIdEEEED0Ev
00000000001f5550 W _ZN5jlcxx15FunctionWrapperIvJPN7autopas10MoleculeLJIdEEEED1Ev
00000000001f5550 W _ZN5jlcxx15FunctionWrapperIvJPN7autopas10MoleculeLJIdEEEED2Ev
00000000001f6e50 W _ZN5jlcxx15FunctionWrapperIvJPN7autopas10MoleculeLJIdEENS_8ArrayRefIdLi1EEEEE5thunkEv
00000000001f6e40 W _ZN5jlcxx15FunctionWrapperIvJPN7autopas10MoleculeLJIdEENS_8ArrayRefIdLi1EEEEE7pointerEv
00000000001fedf0 W _ZN5jlcxx15FunctionWrapperIvJPN7autopas10MoleculeLJIdEENS_8ArrayRefIdLi1EEEEED0Ev
00000000001f4e20 W _ZN5jlcxx15FunctionWrapperIvJPN7autopas10MoleculeLJIdEENS_8ArrayRefIdLi1EEEEED1Ev
00000000001f4e20 W _ZN5jlcxx15FunctionWrapperIvJPN7autopas10MoleculeLJIdEENS_8ArrayRefIdLi1EEEEED2Ev
00000000001f7190 W _ZN5jlcxx15FunctionWrapperIvJPN7autopas10MoleculeLJIfEEEE5thunkEv
00000000001f7180 W _ZN5jlcxx15FunctionWrapperIvJPN7autopas10MoleculeLJIfEEEE7pointerEv
00000000001fe730 W _ZN5jlcxx15FunctionWrapperIvJPN7autopas10MoleculeLJIfEEEED0Ev
00000000001f55a0 W _ZN5jlcxx15FunctionWrapperIvJPN7autopas10MoleculeLJIfEEEED1Ev
00000000001f55a0 W _ZN5jlcxx15FunctionWrapperIvJPN7autopas10MoleculeLJIfEEEED2Ev
00000000001f6f10 W _ZN5jlcxx15FunctionWrapperIvJPN7autopas10MoleculeLJIfEENS_8ArrayRefIdLi1EEEEE5thunkEv
00000000001f6f00 W _ZN5jlcxx15FunctionWrapperIvJPN7autopas10MoleculeLJIfEENS_8ArrayRefIdLi1EEEEE7pointerEv
00000000001fecb0 W _ZN5jlcxx15FunctionWrapperIvJPN7autopas10MoleculeLJIfEENS_8ArrayRefIdLi1EEEEED0Ev
00000000001f4fb0 W _ZN5jlcxx15FunctionWrapperIvJPN7autopas10MoleculeLJIfEENS_8ArrayRefIdLi1EEEEED1Ev
00000000001f4fb0 W _ZN5jlcxx15FunctionWrapperIvJPN7autopas10MoleculeLJIfEENS_8ArrayRefIdLi1EEEEED2Ev
00000000001f7130 W _ZN5jlcxx15FunctionWrapperIvJPN7autopas12ParticleBaseIdlEEEE5thunkEv
00000000001f7120 W _ZN5jlcxx15FunctionWrapperIvJPN7autopas12ParticleBaseIdlEEEE7pointerEv
00000000001fe7f0 W _ZN5jlcxx15FunctionWrapperIvJPN7autopas12ParticleBaseIdlEEEED0Ev
00000000001f54b0 W _ZN5jlcxx15FunctionWrapperIvJPN7autopas12ParticleBaseIdlEEEED1Ev
00000000001f54b0 W _ZN5jlcxx15FunctionWrapperIvJPN7autopas12ParticleBaseIdlEEEED2Ev
00000000001f7150 W _ZN5jlcxx15FunctionWrapperIvJPN7autopas12ParticleBaseIfiEEEE5thunkEv
00000000001f7140 W _ZN5jlcxx15FunctionWrapperIvJPN7autopas12ParticleBaseIfiEEEE7pointerEv
00000000001fe7b0 W _ZN5jlcxx15FunctionWrapperIvJPN7autopas12ParticleBaseIfiEEEED0Ev
00000000001f5500 W _ZN5jlcxx15FunctionWrapperIvJPN7autopas12ParticleBaseIfiEEEED1Ev
00000000001f5500 W _ZN5jlcxx15FunctionWrapperIvJPN7autopas12ParticleBaseIfiEEEED2Ev
00000000001f7070 W _ZN5jlcxx15FunctionWrapperIvJPN7autopas23ParticleIteratorWrapperINS1_10MoleculeLJIdEELb1EEEEE5thunkEv
00000000001f7060 W _ZN5jlcxx15FunctionWrapperIvJPN7autopas23ParticleIteratorWrapperINS1_10MoleculeLJIdEELb1EEEEE7pointerEv
00000000001fe970 W _ZN5jlcxx15FunctionWrapperIvJPN7autopas23ParticleIteratorWrapperINS1_10MoleculeLJIdEELb1EEEEED0Ev
00000000001f52d0 W _ZN5jlcxx15FunctionWrapperIvJPN7autopas23ParticleIteratorWrapperINS1_10MoleculeLJIdEELb1EEEEED1Ev
00000000001f52d0 W _ZN5jlcxx15FunctionWrapperIvJPN7autopas23ParticleIteratorWrapperINS1_10MoleculeLJIdEELb1EEEEED2Ev
00000000001f70f0 W _ZN5jlcxx15FunctionWrapperIvJPN7autopas25ParticleIteratorInterfaceINS1_10MoleculeLJIdEELb1EEEEE5thunkEv
00000000001f70e0 W _ZN5jlcxx15FunctionWrapperIvJPN7autopas25ParticleIteratorInterfaceINS1_10MoleculeLJIdEELb1EEEEE7pointerEv
00000000001fe870 W _ZN5jlcxx15FunctionWrapperIvJPN7autopas25ParticleIteratorInterfaceINS1_10MoleculeLJIdEELb1EEEEED0Ev
00000000001f5410 W _ZN5jlcxx15FunctionWrapperIvJPN7autopas25ParticleIteratorInterfaceINS1_10MoleculeLJIdEELb1EEEEED1Ev
00000000001f5410 W _ZN5jlcxx15FunctionWrapperIvJPN7autopas25ParticleIteratorInterfaceINS1_10MoleculeLJIdEELb1EEEEED2Ev
00000000001f7050 W _ZN5jlcxx15FunctionWrapperIvJPN7autopas7AutoPasINS1_10MoleculeLJIdEEEEEE5thunkEv
00000000001f7040 W _ZN5jlcxx15FunctionWrapperIvJPN7autopas7AutoPasINS1_10MoleculeLJIdEEEEEE7pointerEv
00000000001fe9b0 W _ZN5jlcxx15FunctionWrapperIvJPN7autopas7AutoPasINS1_10MoleculeLJIdEEEEEED0Ev
00000000001f5280 W _ZN5jlcxx15FunctionWrapperIvJPN7autopas7AutoPasINS1_10MoleculeLJIdEEEEEED1Ev
00000000001f5280 W _ZN5jlcxx15FunctionWrapperIvJPN7autopas7AutoPasINS1_10MoleculeLJIdEEEEEED2Ev
00000000001f6c10 W _ZN5jlcxx15FunctionWrapperIvJPN7autopas7AutoPasINS1_10MoleculeLJIdEEEERKS4_EE5thunkEv
00000000001f6c00 W _ZN5jlcxx15FunctionWrapperIvJPN7autopas7AutoPasINS1_10MoleculeLJIdEEEERKS4_EE7pointerEv
00000000001ff130 W _ZN5jlcxx15FunctionWrapperIvJPN7autopas7AutoPasINS1_10MoleculeLJIdEEEERKS4_EED0Ev
00000000001f4a10 W _ZN5jlcxx15FunctionWrapperIvJPN7autopas7AutoPasINS1_10MoleculeLJIdEEEERKS4_EED1Ev
00000000001f4a10 W _ZN5jlcxx15FunctionWrapperIvJPN7autopas7AutoPasINS1_10MoleculeLJIdEEEERKS4_EED2Ev
00000000001f70b0 W _ZN5jlcxx15FunctionWrapperIvJPN7autopas8internal29ParticleIteratorInterfaceImplINS1_10MoleculeLJIdEELb1EEEEE5thunkEv
00000000001f70a0 W _ZN5jlcxx15FunctionWrapperIvJPN7autopas8internal29ParticleIteratorInterfaceImplINS1_10MoleculeLJIdEELb1EEEEE7pointerEv
00000000001fe8f0 W _ZN5jlcxx15FunctionWrapperIvJPN7autopas8internal29ParticleIteratorInterfaceImplINS1_10MoleculeLJIdEELb1EEEEED0Ev
00000000001f5370 W _ZN5jlcxx15FunctionWrapperIvJPN7autopas8internal29ParticleIteratorInterfaceImplINS1_10MoleculeLJIdEELb1EEEEED1Ev
00000000001f5370 W _ZN5jlcxx15FunctionWrapperIvJPN7autopas8internal29ParticleIteratorInterfaceImplINS1_10MoleculeLJIdEELb1EEEEED2Ev
00000000001f5b60 W _ZN5jlcxx15FunctionWrapperIvJPSt6vectorIN7autopas10MoleculeLJIdEESaIS4_EEEE5thunkEv
00000000001f5b50 W _ZN5jlcxx15FunctionWrapperIvJPSt6vectorIN7autopas10MoleculeLJIdEESaIS4_EEEE7pointerEv
00000000001ff930 W _ZN5jlcxx15FunctionWrapperIvJPSt6vectorIN7autopas10MoleculeLJIdEESaIS4_EEEED0Ev
00000000001f40c0 W _ZN5jlcxx15FunctionWrapperIvJPSt6vectorIN7autopas10MoleculeLJIdEESaIS4_EEEED1Ev
00000000001f40c0 W _ZN5jlcxx15FunctionWrapperIvJPSt6vectorIN7autopas10MoleculeLJIdEESaIS4_EEEED2Ev
00000000001f5980 W _ZN5jlcxx15FunctionWrapperIvJPSt6vectorIN7autopas10MoleculeLJIdEESaIS4_EERKS4_EE5thunkEv
00000000001f5970 W _ZN5jlcxx15FunctionWrapperIvJPSt6vectorIN7autopas10MoleculeLJIdEESaIS4_EERKS4_EE7pointerEv
00000000001ffdf0 W _ZN5jlcxx15FunctionWrapperIvJPSt6vectorIN7autopas10MoleculeLJIdEESaIS4_EERKS4_EED0Ev
00000000001f3cb0 W _ZN5jlcxx15FunctionWrapperIvJPSt6vectorIN7autopas10MoleculeLJIdEESaIS4_EERKS4_EED1Ev
00000000001f3cb0 W _ZN5jlcxx15FunctionWrapperIvJPSt6vectorIN7autopas10MoleculeLJIdEESaIS4_EERKS4_EED2Ev
00000000001f5ee0 W _ZN5jlcxx15FunctionWrapperIvJPSt6vectorIdSaIdEEEE5thunkEv
00000000001f5ed0 W _ZN5jlcxx15FunctionWrapperIvJPSt6vectorIdSaIdEEEE7pointerEv
00000000001ff2f0 W _ZN5jlcxx15FunctionWrapperIvJPSt6vectorIdSaIdEEEED0Ev
00000000001f4860 W _ZN5jlcxx15FunctionWrapperIvJPSt6vectorIdSaIdEEEED1Ev
00000000001f4860 W _ZN5jlcxx15FunctionWrapperIvJPSt6vectorIdSaIdEEEED2Ev
00000000001f5d00 W _ZN5jlcxx15FunctionWrapperIvJPSt6vectorIdSaIdEERKdEE5thunkEv
00000000001f5cf0 W _ZN5jlcxx15FunctionWrapperIvJPSt6vectorIdSaIdEERKdEE7pointerEv
00000000001ff670 W _ZN5jlcxx15FunctionWrapperIvJPSt6vectorIdSaIdEERKdEED0Ev
00000000001f4450 W _ZN5jlcxx15FunctionWrapperIvJPSt6vectorIdSaIdEERKdEED1Ev
00000000001f4450 W _ZN5jlcxx15FunctionWrapperIvJPSt6vectorIdSaIdEERKdEED2Ev
00000000001f5b40 W _ZN5jlcxx15FunctionWrapperIvJPSt8valarrayIN7autopas10MoleculeLJIdEEEEE5thunkEv
00000000001f5b30 W _ZN5jlcxx15FunctionWrapperIvJPSt8valarrayIN7autopas10MoleculeLJIdEEEEE7pointerEv
00000000001ff970 W _ZN5jlcxx15FunctionWrapperIvJPSt8valarrayIN7autopas10MoleculeLJIdEEEEED0Ev
00000000001f4070 W _ZN5jlcxx15FunctionWrapperIvJPSt8valarrayIN7autopas10MoleculeLJIdEEEEED1Ev
00000000001f4070 W _ZN5jlcxx15FunctionWrapperIvJPSt8valarrayIN7autopas10MoleculeLJIdEEEEED2Ev
00000000001f5ec0 W _ZN5jlcxx15FunctionWrapperIvJPSt8valarrayIdEEE5thunkEv
00000000001f5eb0 W _ZN5jlcxx15FunctionWrapperIvJPSt8valarrayIdEEE7pointerEv
00000000001ff330 W _ZN5jlcxx15FunctionWrapperIvJPSt8valarrayIdEEED0Ev
00000000001f4810 W _ZN5jlcxx15FunctionWrapperIvJPSt8valarrayIdEEED1Ev
00000000001f4810 W _ZN5jlcxx15FunctionWrapperIvJPSt8valarrayIdEEED2Ev
00000000001f72b0 W _ZN5jlcxx15FunctionWrapperIvJR8HydrogenEE5thunkEv
00000000001f72a0 W _ZN5jlcxx15FunctionWrapperIvJR8HydrogenEE7pointerEv
00000000001fe680 W _ZN5jlcxx15FunctionWrapperIvJR8HydrogenEED0Ev
00000000001f5680 W _ZN5jlcxx15FunctionWrapperIvJR8HydrogenEED1Ev
00000000001f5680 W _ZN5jlcxx15FunctionWrapperIvJR8HydrogenEED2Ev
00000000001f6e70 W _ZN5jlcxx15FunctionWrapperIvJRN7autopas10MoleculeLJIdEENS_8ArrayRefIdLi1EEEEE5thunkEv
00000000001f6e60 W _ZN5jlcxx15FunctionWrapperIvJRN7autopas10MoleculeLJIdEENS_8ArrayRefIdLi1EEEEE7pointerEv
00000000001fedb0 W _ZN5jlcxx15FunctionWrapperIvJRN7autopas10MoleculeLJIdEENS_8ArrayRefIdLi1EEEEED0Ev
00000000001f4e70 W _ZN5jlcxx15FunctionWrapperIvJRN7autopas10MoleculeLJIdEENS_8ArrayRefIdLi1EEEEED1Ev
00000000001f4e70 W _ZN5jlcxx15FunctionWrapperIvJRN7autopas10MoleculeLJIdEENS_8ArrayRefIdLi1EEEEED2Ev
00000000001f6f30 W _ZN5jlcxx15FunctionWrapperIvJRN7autopas10MoleculeLJIfEENS_8ArrayRefIdLi1EEEEE5thunkEv
00000000001f6f20 W _ZN5jlcxx15FunctionWrapperIvJRN7autopas10MoleculeLJIfEENS_8ArrayRefIdLi1EEEEE7pointerEv
00000000001fec70 W _ZN5jlcxx15FunctionWrapperIvJRN7autopas10MoleculeLJIfEENS_8ArrayRefIdLi1EEEEED0Ev
00000000001f5000 W _ZN5jlcxx15FunctionWrapperIvJRN7autopas10MoleculeLJIfEENS_8ArrayRefIdLi1EEEEED1Ev
00000000001f5000 W _ZN5jlcxx15FunctionWrapperIvJRN7autopas10MoleculeLJIfEENS_8ArrayRefIdLi1EEEEED2Ev
00000000001f73c0 W _ZN5jlcxx15FunctionWrapperIvJRN7autopas7AutoPasINS1_10MoleculeLJIdEEEEEE5thunkEv
00000000001f73b0 W _ZN5jlcxx15FunctionWrapperIvJRN7autopas7AutoPasINS1_10MoleculeLJIdEEEEEE7pointerEv
00000000001fe640 W _ZN5jlcxx15FunctionWrapperIvJRN7autopas7AutoPasINS1_10MoleculeLJIdEEEEEED0Ev
00000000001f5730 W _ZN5jlcxx15FunctionWrapperIvJRN7autopas7AutoPasINS1_10MoleculeLJIdEEEEEED1Ev
00000000001f5730 W _ZN5jlcxx15FunctionWrapperIvJRN7autopas7AutoPasINS1_10MoleculeLJIdEEEEEED2Ev
00000000001f6c30 W _ZN5jlcxx15FunctionWrapperIvJRN7autopas7AutoPasINS1_10MoleculeLJIdEEEERKS4_EE5thunkEv
00000000001f6c20 W _ZN5jlcxx15FunctionWrapperIvJRN7autopas7AutoPasINS1_10MoleculeLJIdEEEERKS4_EE7pointerEv
00000000001ff0f0 W _ZN5jlcxx15FunctionWrapperIvJRN7autopas7AutoPasINS1_10MoleculeLJIdEEEERKS4_EED0Ev
00000000001f4a60 W _ZN5jlcxx15FunctionWrapperIvJRN7autopas7AutoPasINS1_10MoleculeLJIdEEEERKS4_EED1Ev
00000000001f4a60 W _ZN5jlcxx15FunctionWrapperIvJRN7autopas7AutoPasINS1_10MoleculeLJIdEEEERKS4_EED2Ev
00000000001f5840 W _ZN5jlcxx15FunctionWrapperIvJRSt6vectorIN7autopas10MoleculeLJIdEESaIS4_EENS_8ArrayRefIS4_Li1EEEEE5thunkEv
00000000001f5830 W _ZN5jlcxx15FunctionWrapperIvJRSt6vectorIN7autopas10MoleculeLJIdEESaIS4_EENS_8ArrayRefIS4_Li1EEEEE7pointerEv
0000000000200070 W _ZN5jlcxx15FunctionWrapperIvJRSt6vectorIN7autopas10MoleculeLJIdEESaIS4_EENS_8ArrayRefIS4_Li1EEEEED0Ev
00000000001f3990 W _ZN5jlcxx15FunctionWrapperIvJRSt6vectorIN7autopas10MoleculeLJIdEESaIS4_EENS_8ArrayRefIS4_Li1EEEEED1Ev
00000000001f3990 W _ZN5jlcxx15FunctionWrapperIvJRSt6vectorIN7autopas10MoleculeLJIdEESaIS4_EENS_8ArrayRefIS4_Li1EEEEED2Ev
00000000001f59a0 W _ZN5jlcxx15FunctionWrapperIvJRSt6vectorIN7autopas10MoleculeLJIdEESaIS4_EERKS4_EE5thunkEv
00000000001f5990 W _ZN5jlcxx15FunctionWrapperIvJRSt6vectorIN7autopas10MoleculeLJIdEESaIS4_EERKS4_EE7pointerEv
00000000001ffdb0 W _ZN5jlcxx15FunctionWrapperIvJRSt6vectorIN7autopas10MoleculeLJIdEESaIS4_EERKS4_EED0Ev
00000000001f3d00 W _ZN5jlcxx15FunctionWrapperIvJRSt6vectorIN7autopas10MoleculeLJIdEESaIS4_EERKS4_EED1Ev
00000000001f3d00 W _ZN5jlcxx15FunctionWrapperIvJRSt6vectorIN7autopas10MoleculeLJIdEESaIS4_EERKS4_EED2Ev
00000000001f5920 W _ZN5jlcxx15FunctionWrapperIvJRSt6vectorIN7autopas10MoleculeLJIdEESaIS4_EERKS4_lEE5thunkEv
00000000001f5910 W _ZN5jlcxx15FunctionWrapperIvJRSt6vectorIN7autopas10MoleculeLJIdEESaIS4_EERKS4_lEE7pointerEv
00000000001ffeb0 W _ZN5jlcxx15FunctionWrapperIvJRSt6vectorIN7autopas10MoleculeLJIdEESaIS4_EERKS4_lEED0Ev
00000000001f3bc0 W _ZN5jlcxx15FunctionWrapperIvJRSt6vectorIN7autopas10MoleculeLJIdEESaIS4_EERKS4_lEED1Ev
00000000001f3bc0 W _ZN5jlcxx15FunctionWrapperIvJRSt6vectorIN7autopas10MoleculeLJIdEESaIS4_EERKS4_lEED2Ev
00000000001f5860 W _ZN5jlcxx15FunctionWrapperIvJRSt6vectorIN7autopas10MoleculeLJIdEESaIS4_EElEE5thunkEv
00000000001f5850 W _ZN5jlcxx15FunctionWrapperIvJRSt6vectorIN7autopas10MoleculeLJIdEESaIS4_EElEE7pointerEv
0000000000200030 W _ZN5jlcxx15FunctionWrapperIvJRSt6vectorIN7autopas10MoleculeLJIdEESaIS4_EElEED0Ev
00000000001f39e0 W _ZN5jlcxx15FunctionWrapperIvJRSt6vectorIN7autopas10MoleculeLJIdEESaIS4_EElEED1Ev
00000000001f39e0 W _ZN5jlcxx15FunctionWrapperIvJRSt6vectorIN7autopas10MoleculeLJIdEESaIS4_EElEED2Ev
00000000001f5bc0 W _ZN5jlcxx15FunctionWrapperIvJRSt6vectorIdSaIdEENS_8ArrayRefIdLi1EEEEE5thunkEv
00000000001f5bb0 W _ZN5jlcxx15FunctionWrapperIvJRSt6vectorIdSaIdEENS_8ArrayRefIdLi1EEEEE7pointerEv
00000000001ff8f0 W _ZN5jlcxx15FunctionWrapperIvJRSt6vectorIdSaIdEENS_8ArrayRefIdLi1EEEEED0Ev
00000000001f4130 W _ZN5jlcxx15FunctionWrapperIvJRSt6vectorIdSaIdEENS_8ArrayRefIdLi1EEEEED1Ev
00000000001f4130 W _ZN5jlcxx15FunctionWrapperIvJRSt6vectorIdSaIdEENS_8ArrayRefIdLi1EEEEED2Ev
00000000001f5d20 W _ZN5jlcxx15FunctionWrapperIvJRSt6vectorIdSaIdEERKdEE5thunkEv
00000000001f5d10 W _ZN5jlcxx15FunctionWrapperIvJRSt6vectorIdSaIdEERKdEE7pointerEv
00000000001ff630 W _ZN5jlcxx15FunctionWrapperIvJRSt6vectorIdSaIdEERKdEED0Ev
00000000001f44a0 W _ZN5jlcxx15FunctionWrapperIvJRSt6vectorIdSaIdEERKdEED1Ev
00000000001f44a0 W _ZN5jlcxx15FunctionWrapperIvJRSt6vectorIdSaIdEERKdEED2Ev
00000000001f5ca0 W _ZN5jlcxx15FunctionWrapperIvJRSt6vectorIdSaIdEERKdlEE5thunkEv
00000000001f5c90 W _ZN5jlcxx15FunctionWrapperIvJRSt6vectorIdSaIdEERKdlEE7pointerEv
00000000001ff730 W _ZN5jlcxx15FunctionWrapperIvJRSt6vectorIdSaIdEERKdlEED0Ev
00000000001f4360 W _ZN5jlcxx15FunctionWrapperIvJRSt6vectorIdSaIdEERKdlEED1Ev
00000000001f4360 W _ZN5jlcxx15FunctionWrapperIvJRSt6vectorIdSaIdEERKdlEED2Ev
00000000001f5be0 W _ZN5jlcxx15FunctionWrapperIvJRSt6vectorIdSaIdEElEE5thunkEv
00000000001f5bd0 W _ZN5jlcxx15FunctionWrapperIvJRSt6vectorIdSaIdEElEE7pointerEv
00000000001ff8b0 W _ZN5jlcxx15FunctionWrapperIvJRSt6vectorIdSaIdEElEED0Ev
00000000001f4180 W _ZN5jlcxx15FunctionWrapperIvJRSt6vectorIdSaIdEElEED1Ev
00000000001f4180 W _ZN5jlcxx15FunctionWrapperIvJRSt6vectorIdSaIdEElEED2Ev
00000000001f59c0 W _ZN5jlcxx15FunctionWrapperIvJRSt8valarrayIN7autopas10MoleculeLJIdEEERKS4_lEE5thunkEv
00000000001f59b0 W _ZN5jlcxx15FunctionWrapperIvJRSt8valarrayIN7autopas10MoleculeLJIdEEERKS4_lEE7pointerEv
00000000001ffd70 W _ZN5jlcxx15FunctionWrapperIvJRSt8valarrayIN7autopas10MoleculeLJIdEEERKS4_lEED0Ev
00000000001f3d50 W _ZN5jlcxx15FunctionWrapperIvJRSt8valarrayIN7autopas10MoleculeLJIdEEERKS4_lEED1Ev
00000000001f3d50 W _ZN5jlcxx15FunctionWrapperIvJRSt8valarrayIN7autopas10MoleculeLJIdEEERKS4_lEED2Ev
00000000001f5a20 W _ZN5jlcxx15FunctionWrapperIvJRSt8valarrayIN7autopas10MoleculeLJIdEEElEE5thunkEv
00000000001f5a10 W _ZN5jlcxx15FunctionWrapperIvJRSt8valarrayIN7autopas10MoleculeLJIdEEElEE7pointerEv
00000000001ffcb0 W _ZN5jlcxx15FunctionWrapperIvJRSt8valarrayIN7autopas10MoleculeLJIdEEElEED0Ev
00000000001f3e40 W _ZN5jlcxx15FunctionWrapperIvJRSt8valarrayIN7autopas10MoleculeLJIdEEElEED1Ev
00000000001f3e40 W _ZN5jlcxx15FunctionWrapperIvJRSt8valarrayIN7autopas10MoleculeLJIdEEElEED2Ev
00000000001f5d40 W _ZN5jlcxx15FunctionWrapperIvJRSt8valarrayIdERKdlEE5thunkEv
00000000001f5d30 W _ZN5jlcxx15FunctionWrapperIvJRSt8valarrayIdERKdlEE7pointerEv
00000000001ff5f0 W _ZN5jlcxx15FunctionWrapperIvJRSt8valarrayIdERKdlEED0Ev
00000000001f44f0 W _ZN5jlcxx15FunctionWrapperIvJRSt8valarrayIdERKdlEED1Ev
00000000001f44f0 W _ZN5jlcxx15FunctionWrapperIvJRSt8valarrayIdERKdlEED2Ev
00000000001f5da0 W _ZN5jlcxx15FunctionWrapperIvJRSt8valarrayIdElEE5thunkEv
00000000001f5d90 W _ZN5jlcxx15FunctionWrapperIvJRSt8valarrayIdElEE7pointerEv
00000000001ff530 W _ZN5jlcxx15FunctionWrapperIvJRSt8valarrayIdElEED0Ev
00000000001f45e0 W _ZN5jlcxx15FunctionWrapperIvJRSt8valarrayIdElEED1Ev
00000000001f45e0 W _ZN5jlcxx15FunctionWrapperIvJRSt8valarrayIdElEED2Ev
0000000000286ee0 W _ZN5jlcxx15JuliaReturnTypeINSt7__cxx1112basic_stringIcSt11char_traitsIcESaIcEEENS_15CxxWrappedTraitINS_20NoCxxWrappedSubtraitEEEE5valueEv
0000000000255050 W _ZN5jlcxx15julia_base_typeIN7autopas25ParticleIteratorInterfaceINS1_10MoleculeLJIdEELb1EEEEEP14_jl_datatype_tv
000000000024a750 W _ZN5jlcxx15julia_type_nameB5cxx11EP11_jl_value_t
                 U _ZN5jlcxx15protect_from_gcEP11_jl_value_t
00000000002619f0 W _ZN5jlcxx17boxed_cpp_pointerI8HydrogenEENS_10BoxedValueIT_EEPS3_P14_jl_datatype_tb
0000000000265a00 W _ZN5jlcxx17boxed_cpp_pointerIN7autopas10MoleculeLJIdEEEENS_10BoxedValueIT_EEPS5_P14_jl_datatype_tb
00000000002647f0 W _ZN5jlcxx17boxed_cpp_pointerIN7autopas10MoleculeLJIfEEEENS_10BoxedValueIT_EEPS5_P14_jl_datatype_tb
0000000000266ff0 W _ZN5jlcxx17boxed_cpp_pointerIN7autopas12ParticleBaseIdlEEEENS_10BoxedValueIT_EEPS5_P14_jl_datatype_tb
0000000000265e70 W _ZN5jlcxx17boxed_cpp_pointerIN7autopas12ParticleBaseIfiEEEENS_10BoxedValueIT_EEPS5_P14_jl_datatype_tb
00000000002681b0 W _ZN5jlcxx17boxed_cpp_pointerIN7autopas23ParticleIteratorWrapperINS1_10MoleculeLJIdEELb1EEEEENS_10BoxedValueIT_EEPS7_P14_jl_datatype_tb
000000000026c3b0 W _ZN5jlcxx17boxed_cpp_pointerIN7autopas7AutoPasINS1_10MoleculeLJIdEEEEEENS_10BoxedValueIT_EEPS7_P14_jl_datatype_tb
00000000002a1ff0 W _ZN5jlcxx17boxed_cpp_pointerISt6vectorIN7autopas10MoleculeLJIdEESaIS4_EEEENS_10BoxedValueIT_EEPS8_P14_jl_datatype_tb
000000000028ea80 W _ZN5jlcxx17boxed_cpp_pointerISt6vectorIdSaIdEEEENS_10BoxedValueIT_EEPS5_P14_jl_datatype_tb
00000000002a2920 W _ZN5jlcxx17boxed_cpp_pointerISt8valarrayIN7autopas10MoleculeLJIdEEEEENS_10BoxedValueIT_EEPS7_P14_jl_datatype_tb
000000000028f2b0 W _ZN5jlcxx17boxed_cpp_pointerISt8valarrayIdEEENS_10BoxedValueIT_EEPS4_P14_jl_datatype_tb
00000000002ab0a0 W _ZN5jlcxx17create_julia_typeIPKSt8valarrayIN7autopas10MoleculeLJIdEEEEEvv
000000000029b460 W _ZN5jlcxx17create_julia_typeIPKSt8valarrayIdEEEvv
0000000000284820 W _ZN5jlcxx17create_julia_typeIRK8HydrogenEEvv
0000000000284510 W _ZN5jlcxx17create_julia_typeIRKN7autopas12ParticleBaseIdlEEEEvv
0000000000283b20 W _ZN5jlcxx17create_julia_typeIRKN7autopas12ParticleBaseIfiEEEEvv
00000000002ae3c0 W _ZN5jlcxx17create_julia_typeISt6vectorIN7autopas10MoleculeLJIdEESaIS4_EEEEvv
00000000002a4420 W _ZN5jlcxx17create_julia_typeISt6vectorIdSaIdEEEEvv
000000000025f1f0 W _ZN5jlcxx17julia_return_typeIvEESt4pairIP14_jl_datatype_tS3_Ev
00000000001f72d0 W _ZN5jlcxx18FunctionPtrWrapperIvJP8HydrogenEE5thunkEv
00000000001f72c0 W _ZN5jlcxx18FunctionPtrWrapperIvJP8HydrogenEE7pointerEv
00000000001fe560 W _ZN5jlcxx18FunctionPtrWrapperIvJP8HydrogenEED0Ev
00000000001f56d0 W _ZN5jlcxx18FunctionPtrWrapperIvJP8HydrogenEED1Ev
00000000001f56d0 W _ZN5jlcxx18FunctionPtrWrapperIvJP8HydrogenEED2Ev
00000000001f7330 W _ZN5jlcxx18FunctionPtrWrapperIvJPN7autopas10MoleculeLJIdEEEE5thunkEv
00000000001f7320 W _ZN5jlcxx18FunctionPtrWrapperIvJPN7autopas10MoleculeLJIdEEEE7pointerEv
00000000001fe590 W _ZN5jlcxx18FunctionPtrWrapperIvJPN7autopas10MoleculeLJIdEEEED0Ev
00000000001f5700 W _ZN5jlcxx18FunctionPtrWrapperIvJPN7autopas10MoleculeLJIdEEEED1Ev
00000000001f5700 W _ZN5jlcxx18FunctionPtrWrapperIvJPN7autopas10MoleculeLJIdEEEED2Ev
00000000001f7350 W _ZN5jlcxx18FunctionPtrWrapperIvJPN7autopas10MoleculeLJIfEEEE5thunkEv
00000000001f7340 W _ZN5jlcxx18FunctionPtrWrapperIvJPN7autopas10MoleculeLJIfEEEE7pointerEv
00000000001fe5a0 W _ZN5jlcxx18FunctionPtrWrapperIvJPN7autopas10MoleculeLJIfEEEED0Ev
00000000001f5710 W _ZN5jlcxx18FunctionPtrWrapperIvJPN7autopas10MoleculeLJIfEEEED1Ev
00000000001f5710 W _ZN5jlcxx18FunctionPtrWrapperIvJPN7autopas10MoleculeLJIfEEEED2Ev
00000000001f72f0 W _ZN5jlcxx18FunctionPtrWrapperIvJPN7autopas12ParticleBaseIdlEEEE5thunkEv
00000000001f72e0 W _ZN5jlcxx18FunctionPtrWrapperIvJPN7autopas12ParticleBaseIdlEEEE7pointerEv
00000000001fe570 W _ZN5jlcxx18FunctionPtrWrapperIvJPN7autopas12ParticleBaseIdlEEEED0Ev
00000000001f56e0 W _ZN5jlcxx18FunctionPtrWrapperIvJPN7autopas12ParticleBaseIdlEEEED1Ev
00000000001f56e0 W _ZN5jlcxx18FunctionPtrWrapperIvJPN7autopas12ParticleBaseIdlEEEED2Ev
00000000001f7310 W _ZN5jlcxx18FunctionPtrWrapperIvJPN7autopas12ParticleBaseIfiEEEE5thunkEv
00000000001f7300 W _ZN5jlcxx18FunctionPtrWrapperIvJPN7autopas12ParticleBaseIfiEEEE7pointerEv
00000000001fe580 W _ZN5jlcxx18FunctionPtrWrapperIvJPN7autopas12ParticleBaseIfiEEEED0Ev
00000000001f56f0 W _ZN5jlcxx18FunctionPtrWrapperIvJPN7autopas12ParticleBaseIfiEEEED1Ev
00000000001f56f0 W _ZN5jlcxx18FunctionPtrWrapperIvJPN7autopas12ParticleBaseIfiEEEED2Ev
00000000001f7230 W _ZN5jlcxx18FunctionPtrWrapperIvJPN7autopas23ParticleIteratorWrapperINS1_10MoleculeLJIdEELb1EEEEE5thunkEv
00000000001f7220 W _ZN5jlcxx18FunctionPtrWrapperIvJPN7autopas23ParticleIteratorWrapperINS1_10MoleculeLJIdEELb1EEEEE7pointerEv
00000000001fe530 W _ZN5jlcxx18FunctionPtrWrapperIvJPN7autopas23ParticleIteratorWrapperINS1_10MoleculeLJIdEELb1EEEEED0Ev
00000000001f5600 W _ZN5jlcxx18FunctionPtrWrapperIvJPN7autopas23ParticleIteratorWrapperINS1_10MoleculeLJIdEELb1EEEEED1Ev
00000000001f5600 W _ZN5jlcxx18FunctionPtrWrapperIvJPN7autopas23ParticleIteratorWrapperINS1_10MoleculeLJIdEELb1EEEEED2Ev
00000000001f7270 W _ZN5jlcxx18FunctionPtrWrapperIvJPN7autopas25ParticleIteratorInterfaceINS1_10MoleculeLJIdEELb1EEEEE5thunkEv
00000000001f7260 W _ZN5jlcxx18FunctionPtrWrapperIvJPN7autopas25ParticleIteratorInterfaceINS1_10MoleculeLJIdEELb1EEEEE7pointerEv
00000000001fe550 W _ZN5jlcxx18FunctionPtrWrapperIvJPN7autopas25ParticleIteratorInterfaceINS1_10MoleculeLJIdEELb1EEEEED0Ev
00000000001f5620 W _ZN5jlcxx18FunctionPtrWrapperIvJPN7autopas25ParticleIteratorInterfaceINS1_10MoleculeLJIdEELb1EEEEED1Ev
00000000001f5620 W _ZN5jlcxx18FunctionPtrWrapperIvJPN7autopas25ParticleIteratorInterfaceINS1_10MoleculeLJIdEELb1EEEEED2Ev
00000000001f7210 W _ZN5jlcxx18FunctionPtrWrapperIvJPN7autopas7AutoPasINS1_10MoleculeLJIdEEEEEE5thunkEv
00000000001f7200 W _ZN5jlcxx18FunctionPtrWrapperIvJPN7autopas7AutoPasINS1_10MoleculeLJIdEEEEEE7pointerEv
00000000001fe520 W _ZN5jlcxx18FunctionPtrWrapperIvJPN7autopas7AutoPasINS1_10MoleculeLJIdEEEEEED0Ev
00000000001f55f0 W _ZN5jlcxx18FunctionPtrWrapperIvJPN7autopas7AutoPasINS1_10MoleculeLJIdEEEEEED1Ev
00000000001f55f0 W _ZN5jlcxx18FunctionPtrWrapperIvJPN7autopas7AutoPasINS1_10MoleculeLJIdEEEEEED2Ev
00000000001f7250 W _ZN5jlcxx18FunctionPtrWrapperIvJPN7autopas8internal29ParticleIteratorInterfaceImplINS1_10MoleculeLJIdEELb1EEEEE5thunkEv
00000000001f7240 W _ZN5jlcxx18FunctionPtrWrapperIvJPN7autopas8internal29ParticleIteratorInterfaceImplINS1_10MoleculeLJIdEELb1EEEEE7pointerEv
00000000001fe540 W _ZN5jlcxx18FunctionPtrWrapperIvJPN7autopas8internal29ParticleIteratorInterfaceImplINS1_10MoleculeLJIdEELb1EEEEED0Ev
00000000001f5610 W _ZN5jlcxx18FunctionPtrWrapperIvJPN7autopas8internal29ParticleIteratorInterfaceImplINS1_10MoleculeLJIdEELb1EEEEED1Ev
00000000001f5610 W _ZN5jlcxx18FunctionPtrWrapperIvJPN7autopas8internal29ParticleIteratorInterfaceImplINS1_10MoleculeLJIdEELb1EEEEED2Ev
00000000001f5ba0 W _ZN5jlcxx18FunctionPtrWrapperIvJPSt6vectorIN7autopas10MoleculeLJIdEESaIS4_EEEE5thunkEv
00000000001f5b90 W _ZN5jlcxx18FunctionPtrWrapperIvJPSt6vectorIN7autopas10MoleculeLJIdEESaIS4_EEEE7pointerEv
00000000001fe4f0 W _ZN5jlcxx18FunctionPtrWrapperIvJPSt6vectorIN7autopas10MoleculeLJIdEESaIS4_EEEED0Ev
00000000001f4120 W _ZN5jlcxx18FunctionPtrWrapperIvJPSt6vectorIN7autopas10MoleculeLJIdEESaIS4_EEEED1Ev
00000000001f4120 W _ZN5jlcxx18FunctionPtrWrapperIvJPSt6vectorIN7autopas10MoleculeLJIdEESaIS4_EEEED2Ev
00000000001f60a0 W _ZN5jlcxx18FunctionPtrWrapperIvJPSt6vectorIdSaIdEEEE5thunkEv
00000000001f6090 W _ZN5jlcxx18FunctionPtrWrapperIvJPSt6vectorIdSaIdEEEE7pointerEv
00000000001fe510 W _ZN5jlcxx18FunctionPtrWrapperIvJPSt6vectorIdSaIdEEEED0Ev
00000000001f48c0 W _ZN5jlcxx18FunctionPtrWrapperIvJPSt6vectorIdSaIdEEEED1Ev
00000000001f48c0 W _ZN5jlcxx18FunctionPtrWrapperIvJPSt6vectorIdSaIdEEEED2Ev
00000000001f5b80 W _ZN5jlcxx18FunctionPtrWrapperIvJPSt8valarrayIN7autopas10MoleculeLJIdEEEEE5thunkEv
00000000001f5b70 W _ZN5jlcxx18FunctionPtrWrapperIvJPSt8valarrayIN7autopas10MoleculeLJIdEEEEE7pointerEv
00000000001fe4e0 W _ZN5jlcxx18FunctionPtrWrapperIvJPSt8valarrayIN7autopas10MoleculeLJIdEEEEED0Ev
00000000001f4110 W _ZN5jlcxx18FunctionPtrWrapperIvJPSt8valarrayIN7autopas10MoleculeLJIdEEEEED1Ev
00000000001f4110 W _ZN5jlcxx18FunctionPtrWrapperIvJPSt8valarrayIN7autopas10MoleculeLJIdEEEEED2Ev
00000000001f6080 W _ZN5jlcxx18FunctionPtrWrapperIvJPSt8valarrayIdEEE5thunkEv
00000000001f6070 W _ZN5jlcxx18FunctionPtrWrapperIvJPSt8valarrayIdEEE7pointerEv
00000000001fe500 W _ZN5jlcxx18FunctionPtrWrapperIvJPSt8valarrayIdEEED0Ev
00000000001f48b0 W _ZN5jlcxx18FunctionPtrWrapperIvJPSt8valarrayIdEEED1Ev
00000000001f48b0 W _ZN5jlcxx18FunctionPtrWrapperIvJPSt8valarrayIdEEED2Ev
00000000001f7400 W _ZN5jlcxx18FunctionPtrWrapperIvJRN7autopas7AutoPasINS1_10MoleculeLJIdEEEEEE5thunkEv
00000000001f73f0 W _ZN5jlcxx18FunctionPtrWrapperIvJRN7autopas7AutoPasINS1_10MoleculeLJIdEEEEEE7pointerEv
00000000001fe5b0 W _ZN5jlcxx18FunctionPtrWrapperIvJRN7autopas7AutoPasINS1_10MoleculeLJIdEEEEEED0Ev
00000000001f57d0 W _ZN5jlcxx18FunctionPtrWrapperIvJRN7autopas7AutoPasINS1_10MoleculeLJIdEEEEEED1Ev
00000000001f57d0 W _ZN5jlcxx18FunctionPtrWrapperIvJRN7autopas7AutoPasINS1_10MoleculeLJIdEEEEEED2Ev
00000000001cedcb t _ZN5jlcxx18julia_type_factoryI8HydrogenNS_15CxxWrappedTraitINS_20NoCxxWrappedSubtraitEEEE10julia_typeEv.isra.0
00000000001ceedc t _ZN5jlcxx18julia_type_factoryIN7autopas12ParticleBaseIdlEENS_15CxxWrappedTraitINS_20NoCxxWrappedSubtraitEEEE10julia_typeEv.isra.0
00000000001cefed t _ZN5jlcxx18julia_type_factoryIN7autopas12ParticleBaseIfiEENS_15CxxWrappedTraitINS_20NoCxxWrappedSubtraitEEEE10julia_typeEv.isra.0
00000000001cf20f t _ZN5jlcxx18julia_type_factoryIN7autopas25ParticleIteratorInterfaceINS1_10MoleculeLJIdEELb1EEENS_15CxxWrappedTraitINS_20NoCxxWrappedSubtraitEEEE10julia_typeEv.isra.0
00000000001cf0fe t _ZN5jlcxx18julia_type_factoryIN7autopas7AutoPasINS1_10MoleculeLJIdEEEENS_15CxxWrappedTraitINS_20NoCxxWrappedSubtraitEEEE10julia_typeEv.isra.0
00000000001cecba t _ZN5jlcxx18julia_type_factoryIN7autopas8internal29ParticleIteratorInterfaceImplINS1_10MoleculeLJIdEELb1EEENS_15CxxWrappedTraitINS_20NoCxxWrappedSubtraitEEEE10julia_typeEv.isra.0
00000000002aff50 W _ZN5jlcxx18julia_type_factoryIPKSt6vectorIN7autopas10MoleculeLJIdEESaIS4_EENS_15WrappedPtrTraitEE10julia_typeEv
00000000002a6460 W _ZN5jlcxx18julia_type_factoryIPKSt6vectorIdSaIdEENS_15WrappedPtrTraitEE10julia_typeEv
                 U _ZN5jlcxx19FunctionWrapperBaseC2EPNS_6ModuleESt4pairIP14_jl_datatype_tS5_E
0000000000289860 W _ZN5jlcxx19add_default_methodsIN7autopas23ParticleIteratorWrapperINS1_10MoleculeLJIdEELb1EEEEEvRNS_6ModuleE
0000000000285080 W _ZN5jlcxx19add_default_methodsIN7autopas8internal29ParticleIteratorInterfaceImplINS1_10MoleculeLJIdEELb1EEEEEvRNS_6ModuleE
0000000000287910 W _ZN5jlcxx20create_if_not_existsI8HydrogenEEvv
000000000026b3f0 W _ZN5jlcxx20create_if_not_existsIN7autopas10MoleculeLJIdEEEEvv
00000000002871a0 W _ZN5jlcxx20create_if_not_existsIN7autopas10MoleculeLJIfEEEEvv
00000000002890f0 W _ZN5jlcxx20create_if_not_existsIN7autopas23ParticleIteratorWrapperINS1_10MoleculeLJIdEELb1EEEEEvv
000000000025d300 W _ZN5jlcxx20create_if_not_existsIN7autopas25ParticleIteratorInterfaceINS1_10MoleculeLJIdEELb1EEEEEvv
0000000000286bc0 W _ZN5jlcxx20create_if_not_existsIN7autopas7options16IteratorBehaviorEEEvv
0000000000273670 W _ZN5jlcxx20create_if_not_existsINS_10BoxedValueI8HydrogenEEEEvv
0000000000282550 W _ZN5jlcxx20create_if_not_existsINS_10BoxedValueIN7autopas10MoleculeLJIdEEEEEEvv
0000000000281710 W _ZN5jlcxx20create_if_not_existsINS_10BoxedValueIN7autopas10MoleculeLJIfEEEEEEvv
0000000000283e30 W _ZN5jlcxx20create_if_not_existsINS_10BoxedValueIN7autopas12ParticleBaseIdlEEEEEEvv
0000000000283440 W _ZN5jlcxx20create_if_not_existsINS_10BoxedValueIN7autopas12ParticleBaseIfiEEEEEEvv
0000000000285a80 W _ZN5jlcxx20create_if_not_existsINS_10BoxedValueIN7autopas23ParticleIteratorWrapperINS2_10MoleculeLJIdEELb1EEEEEEEvv
00000000002a8f30 W _ZN5jlcxx20create_if_not_existsINS_10BoxedValueISt6vectorIN7autopas10MoleculeLJIdEESaIS5_EEEEEEvv
0000000000296550 W _ZN5jlcxx20create_if_not_existsINS_10BoxedValueISt6vectorIdSaIdEEEEEEvv
00000000002a9610 W _ZN5jlcxx20create_if_not_existsINS_10BoxedValueISt8valarrayIN7autopas10MoleculeLJIdEEEEEEEvv
0000000000296c30 W _ZN5jlcxx20create_if_not_existsINS_10BoxedValueISt8valarrayIdEEEEEvv
0000000000281df0 W _ZN5jlcxx20create_if_not_existsINS_8ArrayRefIdLi1EEEEEvv
0000000000286d50 W _ZN5jlcxx20create_if_not_existsINSt7__cxx1112basic_stringIcSt11char_traitsIcESaIcEEEEEvv
00000000002879a0 W _ZN5jlcxx20create_if_not_existsIP8HydrogenEEvv
0000000000283150 W _ZN5jlcxx20create_if_not_existsIPKN7autopas10MoleculeLJIdEEEEvv
000000000026b870 W _ZN5jlcxx20create_if_not_existsIPN7autopas10MoleculeLJIdEEEEvv
0000000000287620 W _ZN5jlcxx20create_if_not_existsIPN7autopas10MoleculeLJIfEEEEvv
000000000026b0a0 W _ZN5jlcxx20create_if_not_existsIPN7autopas12ParticleBaseIdlEEEEvv
000000000026aba0 W _ZN5jlcxx20create_if_not_existsIPN7autopas12ParticleBaseIfiEEEEvv
0000000000289570 W _ZN5jlcxx20create_if_not_existsIPN7autopas23ParticleIteratorWrapperINS1_10MoleculeLJIdEELb1EEEEEvv
000000000026bd10 W _ZN5jlcxx20create_if_not_existsIPN7autopas25ParticleIteratorInterfaceINS1_10MoleculeLJIdEELb1EEEEEvv
000000000026c9a0 W _ZN5jlcxx20create_if_not_existsIPN7autopas7AutoPasINS1_10MoleculeLJIdEEEEEEvv
000000000026c000 W _ZN5jlcxx20create_if_not_existsIPN7autopas8internal29ParticleIteratorInterfaceImplINS1_10MoleculeLJIdEELb1EEEEEvv
00000000002b03d0 W _ZN5jlcxx20create_if_not_existsIPSt6vectorIN7autopas10MoleculeLJIdEESaIS4_EEEEvv
00000000002a72c0 W _ZN5jlcxx20create_if_not_existsIPSt6vectorIdSaIdEEEEvv
00000000002ab630 W _ZN5jlcxx20create_if_not_existsIPSt8valarrayIN7autopas10MoleculeLJIdEEEEEvv
000000000029b9f0 W _ZN5jlcxx20create_if_not_existsIPSt8valarrayIdEEEvv
0000000000272f10 W _ZN5jlcxx20create_if_not_existsIRKN7autopas10MoleculeLJIdEEEEvv
0000000000287330 W _ZN5jlcxx20create_if_not_existsIRKN7autopas10MoleculeLJIfEEEEvv
0000000000289280 W _ZN5jlcxx20create_if_not_existsIRKN7autopas23ParticleIteratorWrapperINS1_10MoleculeLJIdEELb1EEEEEvv
00000000002afc60 W _ZN5jlcxx20create_if_not_existsIRKSt6vectorIN7autopas10MoleculeLJIdEESaIS4_EEEEvv
00000000002a6170 W _ZN5jlcxx20create_if_not_existsIRKSt6vectorIdSaIdEEEEvv
00000000002aadb0 W _ZN5jlcxx20create_if_not_existsIRKSt8valarrayIN7autopas10MoleculeLJIdEEEEEvv
000000000029b170 W _ZN5jlcxx20create_if_not_existsIRKSt8valarrayIdEEEvv
0000000000297310 W _ZN5jlcxx20create_if_not_existsIRKdEEvv
000000000026b580 W _ZN5jlcxx20create_if_not_existsIRN7autopas10MoleculeLJIdEEEEvv
0000000000269da0 W _ZN5jlcxx20create_if_not_existsIRN7autopas7AutoPasINS1_10MoleculeLJIdEEEEEEvv
00000000002b00e0 W _ZN5jlcxx20create_if_not_existsIRSt6vectorIN7autopas10MoleculeLJIdEESaIS4_EEEEvv
00000000002a65f0 W _ZN5jlcxx20create_if_not_existsIRSt6vectorIdSaIdEEEEvv
00000000002ab340 W _ZN5jlcxx20create_if_not_existsIRSt8valarrayIN7autopas10MoleculeLJIdEEEEEvv
000000000029b700 W _ZN5jlcxx20create_if_not_existsIRSt8valarrayIdEEEvv
00000000002afbc0 W _ZN5jlcxx20create_if_not_existsISt6vectorIN7autopas10MoleculeLJIdEESaIS4_EEEEvv
00000000002a60d0 W _ZN5jlcxx20create_if_not_existsISt6vectorIdSaIdEEEEvv
00000000002aac20 W _ZN5jlcxx20create_if_not_existsISt8valarrayIN7autopas10MoleculeLJIdEEEEEvv
000000000029afe0 W _ZN5jlcxx20create_if_not_existsISt8valarrayIdEEEvv
000000000026bb60 W _ZN5jlcxx20create_if_not_existsIbEEvv
000000000025f040 W _ZN5jlcxx20create_if_not_existsIdEEvv
000000000026a100 W _ZN5jlcxx20create_if_not_existsIfEEvv
000000000026a9f0 W _ZN5jlcxx20create_if_not_existsIiEEvv
000000000026aef0 W _ZN5jlcxx20create_if_not_existsIlEEvv
0000000000299f80 W _ZN5jlcxx20create_if_not_existsImEEvv
0000000000258a50 t _ZN5jlcxx22extract_pointer_nonullI8HydrogenEEPT_RKNS_13WrappedCppPtrE.isra.0
0000000000259590 t _ZN5jlcxx22extract_pointer_nonullIK8HydrogenEEPT_RKNS_13WrappedCppPtrE.isra.0
00000000001dc740 t _ZN5jlcxx22extract_pointer_nonullIKN7autopas10MoleculeLJIdEEEEPT_RKNS_13WrappedCppPtrE.isra.0
00000000001cfc3c t _ZN5jlcxx22extract_pointer_nonullIKN7autopas10MoleculeLJIdEEEEPT_RKNS_13WrappedCppPtrE.isra.0.cold
00000000001dbc00 t _ZN5jlcxx22extract_pointer_nonullIKN7autopas10MoleculeLJIfEEEEPT_RKNS_13WrappedCppPtrE.isra.0
00000000001cf320 t _ZN5jlcxx22extract_pointer_nonullIKN7autopas10MoleculeLJIfEEEEPT_RKNS_13WrappedCppPtrE.isra.0.cold
0000000000259350 t _ZN5jlcxx22extract_pointer_nonullIKN7autopas12ParticleBaseIdlEEEEPT_RKNS_13WrappedCppPtrE.isra.0
0000000000259110 t _ZN5jlcxx22extract_pointer_nonullIKN7autopas12ParticleBaseIfiEEEEPT_RKNS_13WrappedCppPtrE.isra.0
00000000001dbd00 t _ZN5jlcxx22extract_pointer_nonullIKN7autopas23ParticleIteratorWrapperINS1_10MoleculeLJIdEELb1EEEEEPT_RKNS_13WrappedCppPtrE.isra.0
00000000001cf3f4 t _ZN5jlcxx22extract_pointer_nonullIKN7autopas23ParticleIteratorWrapperINS1_10MoleculeLJIdEELb1EEEEEPT_RKNS_13WrappedCppPtrE.isra.0.cold
00000000001dc840 t _ZN5jlcxx22extract_pointer_nonullIKSt6vectorIN7autopas10MoleculeLJIdEESaIS4_EEEEPT_RKNS_13WrappedCppPtrE.isra.0
00000000001cfd10 t _ZN5jlcxx22extract_pointer_nonullIKSt6vectorIN7autopas10MoleculeLJIdEESaIS4_EEEEPT_RKNS_13WrappedCppPtrE.isra.0.cold
00000000001dc320 t _ZN5jlcxx22extract_pointer_nonullIKSt6vectorIdSaIdEEEEPT_RKNS_13WrappedCppPtrE.isra.0
00000000001cf8ec t _ZN5jlcxx22extract_pointer_nonullIKSt6vectorIdSaIdEEEEPT_RKNS_13WrappedCppPtrE.isra.0.cold
00000000001dc530 t _ZN5jlcxx22extract_pointer_nonullIKSt8valarrayIN7autopas10MoleculeLJIdEEEEEPT_RKNS_13WrappedCppPtrE.isra.0
00000000001cfa94 t _ZN5jlcxx22extract_pointer_nonullIKSt8valarrayIN7autopas10MoleculeLJIdEEEEEPT_RKNS_13WrappedCppPtrE.isra.0.cold
00000000001dc000 t _ZN5jlcxx22extract_pointer_nonullIKSt8valarrayIdEEEPT_RKNS_13WrappedCppPtrE.isra.0
00000000001cf670 t _ZN5jlcxx22extract_pointer_nonullIKSt8valarrayIdEEEPT_RKNS_13WrappedCppPtrE.isra.0.cold
00000000001dc220 t _ZN5jlcxx22extract_pointer_nonullIKdEEPT_RKNS_13WrappedCppPtrE.isra.0
00000000001cf818 t _ZN5jlcxx22extract_pointer_nonullIKdEEPT_RKNS_13WrappedCppPtrE.isra.0.cold
00000000001dca40 t _ZN5jlcxx22extract_pointer_nonullIN7autopas10MoleculeLJIdEEEEPT_RKNS_13WrappedCppPtrE.isra.0
00000000001cfeb8 t _ZN5jlcxx22extract_pointer_nonullIN7autopas10MoleculeLJIdEEEEPT_RKNS_13WrappedCppPtrE.isra.0.cold
00000000002597d0 t _ZN5jlcxx22extract_pointer_nonullIN7autopas10MoleculeLJIfEEEEPT_RKNS_13WrappedCppPtrE.isra.0
0000000000258ed0 t _ZN5jlcxx22extract_pointer_nonullIN7autopas23ParticleIteratorWrapperINS1_10MoleculeLJIdEELb1EEEEEPT_RKNS_13WrappedCppPtrE.isra.0
00000000001dbe00 t _ZN5jlcxx22extract_pointer_nonullIN7autopas7AutoPasINS1_10MoleculeLJIdEEEEEEPT_RKNS_13WrappedCppPtrE.isra.0
00000000001cf4c8 t _ZN5jlcxx22extract_pointer_nonullIN7autopas7AutoPasINS1_10MoleculeLJIdEEEEEEPT_RKNS_13WrappedCppPtrE.isra.0.cold
00000000001dbf00 t _ZN5jlcxx22extract_pointer_nonullIN7autopas7options16IteratorBehaviorEEEPT_RKNS_13WrappedCppPtrE.isra.0
00000000001cf59c t _ZN5jlcxx22extract_pointer_nonullIN7autopas7options16IteratorBehaviorEEEPT_RKNS_13WrappedCppPtrE.isra.0.cold
0000000000258c90 t _ZN5jlcxx22extract_pointer_nonullIN7autopas8internal29ParticleIteratorInterfaceImplINS1_10MoleculeLJIdEELb1EEEEEPT_RKNS_13WrappedCppPtrE.isra.0
00000000001dc940 t _ZN5jlcxx22extract_pointer_nonullISt6vectorIN7autopas10MoleculeLJIdEESaIS4_EEEEPT_RKNS_13WrappedCppPtrE.isra.0
00000000001cfde4 t _ZN5jlcxx22extract_pointer_nonullISt6vectorIN7autopas10MoleculeLJIdEESaIS4_EEEEPT_RKNS_13WrappedCppPtrE.isra.0.cold
00000000001dc420 t _ZN5jlcxx22extract_pointer_nonullISt6vectorIdSaIdEEEEPT_RKNS_13WrappedCppPtrE.isra.0
00000000001cf9c0 t _ZN5jlcxx22extract_pointer_nonullISt6vectorIdSaIdEEEEPT_RKNS_13WrappedCppPtrE.isra.0.cold
00000000001dc640 t _ZN5jlcxx22extract_pointer_nonullISt8valarrayIN7autopas10MoleculeLJIdEEEEEPT_RKNS_13WrappedCppPtrE.isra.0
00000000001cfb68 t _ZN5jlcxx22extract_pointer_nonullISt8valarrayIN7autopas10MoleculeLJIdEEEEEPT_RKNS_13WrappedCppPtrE.isra.0.cold
00000000001dc110 t _ZN5jlcxx22extract_pointer_nonullISt8valarrayIdEEEPT_RKNS_13WrappedCppPtrE.isra.0
00000000001cf744 t _ZN5jlcxx22extract_pointer_nonullISt8valarrayIdEEEPT_RKNS_13WrappedCppPtrE.isra.0.cold
                 U _ZN5jlcxx3stl11StlWrappers8instanceEv
00000000002acf30 W _ZN5jlcxx3stl11wrap_commonINS_11TypeWrapperISt6vectorIN7autopas10MoleculeLJIdEESaIS6_EEEEEEvRT_
00000000002a68e0 W _ZN5jlcxx3stl11wrap_commonINS_11TypeWrapperISt6vectorIdSaIdEEEEEEvRT_
00000000002ada80 W _ZN5jlcxx3stl14WrapVectorImplIN7autopas10MoleculeLJIdEEE4wrapIRNS_11TypeWrapperISt6vectorIS4_SaIS4_EEEEEEvOT_
00000000002a75b0 W _ZN5jlcxx3stl14WrapVectorImplIdE4wrapIRNS_11TypeWrapperISt6vectorIdSaIdEEEEEEvOT_
00000000002738a0 W _ZN5jlcxx6Module11constructorI8HydrogenJEEEvP14_jl_datatype_tb
00000000002a8220 W _ZN5jlcxx6Module11constructorI8HydrogenJiSt6vectorIdSaIdEES5_EEEvP14_jl_datatype_tb
0000000000282780 W _ZN5jlcxx6Module11constructorIN7autopas10MoleculeLJIdEEJEEEvP14_jl_datatype_tb
0000000000282c30 W _ZN5jlcxx6Module11constructorIN7autopas10MoleculeLJIdEEJNS_8ArrayRefIdLi1EEES6_iiEEEvP14_jl_datatype_tb
0000000000281940 W _ZN5jlcxx6Module11constructorIN7autopas10MoleculeLJIfEEJEEEvP14_jl_datatype_tb
0000000000282030 W _ZN5jlcxx6Module11constructorIN7autopas10MoleculeLJIfEEJNS_8ArrayRefIdLi1EEES6_iiEEEvP14_jl_datatype_tb
0000000000284060 W _ZN5jlcxx6Module11constructorIN7autopas12ParticleBaseIdlEEJEEEvP14_jl_datatype_tb
0000000000283670 W _ZN5jlcxx6Module11constructorIN7autopas12ParticleBaseIfiEEJEEEvP14_jl_datatype_tb
0000000000285cb0 W _ZN5jlcxx6Module11constructorIN7autopas23ParticleIteratorWrapperINS2_10MoleculeLJIdEELb1EEEJEEEvP14_jl_datatype_tb
0000000000290090 W _ZN5jlcxx6Module11constructorIN7autopas7AutoPasINS2_10MoleculeLJIdEEEEJEEEvP14_jl_datatype_tb
00000000002a9160 W _ZN5jlcxx6Module11constructorISt6vectorIN7autopas10MoleculeLJIdEESaIS5_EEJEEEvP14_jl_datatype_tb
0000000000296780 W _ZN5jlcxx6Module11constructorISt6vectorIdSaIdEEJEEEvP14_jl_datatype_tb
00000000002a9840 W _ZN5jlcxx6Module11constructorISt8valarrayIN7autopas10MoleculeLJIdEEEJEEEvP14_jl_datatype_tb
00000000002aa200 W _ZN5jlcxx6Module11constructorISt8valarrayIN7autopas10MoleculeLJIdEEEJPKS5_mEEEvP14_jl_datatype_tb
00000000002aa710 W _ZN5jlcxx6Module11constructorISt8valarrayIN7autopas10MoleculeLJIdEEEJRKS5_mEEEvP14_jl_datatype_tb
00000000002a9cf0 W _ZN5jlcxx6Module11constructorISt8valarrayIN7autopas10MoleculeLJIdEEEJmEEEvP14_jl_datatype_tb
0000000000296e60 W _ZN5jlcxx6Module11constructorISt8valarrayIdEJEEEvP14_jl_datatype_tb
000000000029aad0 W _ZN5jlcxx6Module11constructorISt8valarrayIdEJRKdmEEEvP14_jl_datatype_tb
000000000029a5c0 W _ZN5jlcxx6Module11constructorISt8valarrayIdEJmEEEvP14_jl_datatype_tb
                 U _ZN5jlcxx6Module12get_constantERKNSt7__cxx1112basic_stringIcSt11char_traitsIcESaIcEEE
                 U _ZN5jlcxx6Module12set_constantERKNSt7__cxx1112basic_stringIcSt11char_traitsIcESaIcEEEP11_jl_value_t
000000000025d610 W _ZN5jlcxx6Module15append_functionEPNS_19FunctionWrapperBaseE
0000000000287c90 W _ZN5jlcxx6Module17add_type_internalI8HydrogenNS_13ParameterListIJEEE14_jl_datatype_tEENS_11TypeWrapperIT_EERKNSt7__cxx1112basic_stringIcSt11char_traitsIcESaIcEEEPT1_
0000000000260cf0 W _ZN5jlcxx6Module17add_type_internalINS_10ParametricIJNS_7TypeVarILi1EEEEEENS_13ParameterListIJEEE14_jl_datatype_tEENS_11TypeWrapperIT_EERKNSt7__cxx1112basic_stringIcSt11char_traitsIcESaIcEEEPT1_
0000000000260130 W _ZN5jlcxx6Module17add_type_internalINS_10ParametricIJNS_7TypeVarILi1EEENS3_ILi2EEEEEENS_13ParameterListIJEEE14_jl_datatype_tEENS_11TypeWrapperIT_EERKNSt7__cxx1112basic_stringIcSt11char_traitsIcESaIcEEEPT1_
000000000025fa60 W _ZN5jlcxx6Module17add_type_internalINS_10ParametricIJNS_7TypeVarILi1EEENS3_ILi2EEEEEENS_13ParameterListIJEEEFP14_jl_datatype_tvEEENS_11TypeWrapperIT_EERKNSt7__cxx1112basic_stringIcSt11char_traitsIcESaIcEEEPT1_
000000000029a130 W _ZN5jlcxx6Module6methodINS_10BoxedValueISt8valarrayIdEEEJPKdmEEERNS_19FunctionWrapperBaseERKNSt7__cxx1112basic_stringIcSt11char_traitsIcESaIcEEESt8functionIFT_DpT0_EE
00000000001dd610 t _ZN5jlcxx6Module6methodIvJRN7autopas7AutoPasINS2_10MoleculeLJIdEEEEEEERNS_19FunctionWrapperBaseERKNSt7__cxx1112basic_stringIcSt11char_traitsIcESaIcEEEPFT_DpT0_Eb.isra.0
00000000001d02da t _ZN5jlcxx6Module6methodIvJRN7autopas7AutoPasINS2_10MoleculeLJIdEEEEEEERNS_19FunctionWrapperBaseERKNSt7__cxx1112basic_stringIcSt11char_traitsIcESaIcEEEPFT_DpT0_Eb.isra.0.cold
000000000025db90 W _ZN5jlcxx6Module9set_constIP11_jl_value_tEEvRKNSt7__cxx1112basic_stringIcSt11char_traitsIcESaIcEEEOT_
00000000001f1ee0 W _ZN5jlcxx6UpCastIN7autopas23ParticleIteratorWrapperINS1_10MoleculeLJIdEELb1EEEE5applyERS5_
00000000001f1e40 W _ZN5jlcxx6UpCastIN7autopas8internal29ParticleIteratorInterfaceImplINS1_10MoleculeLJIdEELb1EEEE5applyERS6_
00000000002625a0 W _ZN5jlcxx6createI8HydrogenLb0EJRiRSt6vectorIdSaIdEES6_EEENS_10BoxedValueIT_EEDpOT1_
00000000002620c0 W _ZN5jlcxx6createI8HydrogenLb1EJRiRSt6vectorIdSaIdEES6_EEENS_10BoxedValueIT_EEDpOT1_
000000000026a820 W _ZN5jlcxx6createIN7autopas10MoleculeLJIdEELb0EJRNS_8ArrayRefIdLi1EEES6_RiS7_EEENS_10BoxedValueIT_EEDpOT1_
000000000026a650 W _ZN5jlcxx6createIN7autopas10MoleculeLJIdEELb1EJRNS_8ArrayRefIdLi1EEES6_RiS7_EEENS_10BoxedValueIT_EEDpOT1_
000000000026a480 W _ZN5jlcxx6createIN7autopas10MoleculeLJIfEELb0EJRNS_8ArrayRefIdLi1EEES6_RiS7_EEENS_10BoxedValueIT_EEDpOT1_
000000000026a2b0 W _ZN5jlcxx6createIN7autopas10MoleculeLJIfEELb1EJRNS_8ArrayRefIdLi1EEES6_RiS7_EEENS_10BoxedValueIT_EEDpOT1_
00000000002a22a0 W _ZN5jlcxx6createISt6vectorIN7autopas10MoleculeLJIdEESaIS4_EELb1EJRKS6_EEENS_10BoxedValueIT_EEDpOT1_
00000000002a3e70 W _ZN5jlcxx6createISt8valarrayIN7autopas10MoleculeLJIdEEELb0EJRPKS4_RmEEENS_10BoxedValueIT_EEDpOT1_
00000000002a3b90 W _ZN5jlcxx6createISt8valarrayIN7autopas10MoleculeLJIdEEELb0EJRmEEENS_10BoxedValueIT_EEDpOT1_
00000000002a2b30 W _ZN5jlcxx6createISt8valarrayIN7autopas10MoleculeLJIdEEELb1EJRKS5_EEENS_10BoxedValueIT_EEDpOT1_
00000000002a3cc0 W _ZN5jlcxx6createISt8valarrayIN7autopas10MoleculeLJIdEEELb1EJRPKS4_RmEEENS_10BoxedValueIT_EEDpOT1_
00000000002a3a60 W _ZN5jlcxx6createISt8valarrayIN7autopas10MoleculeLJIdEEELb1EJRmEEENS_10BoxedValueIT_EEDpOT1_
000000000025e5e0 W _ZN5jlcxx6detail10make_fnameIJP14_jl_datatype_tEEEP11_jl_value_tRKNSt7__cxx1112basic_stringIcSt11char_traitsIcESaIcEEEDpT_
0000000000268620 W _ZN5jlcxx6detail11CallFunctorIN7autopas23ParticleIteratorWrapperINS2_10MoleculeLJIdEELb1EEEJPNS2_7AutoPasIS5_EENS2_7options16IteratorBehaviorEEE5applyEPKvNS_13WrappedCppPtrESF_
0000000000268470 W _ZN5jlcxx6detail11CallFunctorIN7autopas23ParticleIteratorWrapperINS2_10MoleculeLJIdEELb1EEEJRNS2_7AutoPasIS5_EENS2_7options16IteratorBehaviorEEE5applyEPKvNS_13WrappedCppPtrESF_
000000000020f6f0 W _ZN5jlcxx6detail11CallFunctorINS_10BoxedValueI8HydrogenEEJEE5applyEPKv
0000000000259750 W _ZN5jlcxx6detail11CallFunctorINS_10BoxedValueI8HydrogenEEJRKS3_EE5applyEPKvNS_13WrappedCppPtrE
000000000025a830 W _ZN5jlcxx6detail11CallFunctorINS_10BoxedValueI8HydrogenEEJiSt6vectorIdSaIdEES7_EE5applyEPKviNS_13WrappedCppPtrESB_
000000000020f570 W _ZN5jlcxx6detail11CallFunctorINS_10BoxedValueIN7autopas10MoleculeLJIdEEEEJEE5applyEPKv
0000000000217c80 W _ZN5jlcxx6detail11CallFunctorINS_10BoxedValueIN7autopas10MoleculeLJIdEEEEJNS_8ArrayRefIdLi1EEES8_iiEE5applyEPKvP10jl_array_tSD_ii
000000000025b170 W _ZN5jlcxx6detail11CallFunctorINS_10BoxedValueIN7autopas10MoleculeLJIdEEEEJRKS5_EE5applyEPKvNS_13WrappedCppPtrE
000000000020f5d0 W _ZN5jlcxx6detail11CallFunctorINS_10BoxedValueIN7autopas10MoleculeLJIfEEEEJEE5applyEPKv
0000000000217ba0 W _ZN5jlcxx6detail11CallFunctorINS_10BoxedValueIN7autopas10MoleculeLJIfEEEEJNS_8ArrayRefIdLi1EEES8_iiEE5applyEPKvP10jl_array_tSD_ii
0000000000259a60 W _ZN5jlcxx6detail11CallFunctorINS_10BoxedValueIN7autopas10MoleculeLJIfEEEEJRKS5_EE5applyEPKvNS_13WrappedCppPtrE
000000000020f750 W _ZN5jlcxx6detail11CallFunctorINS_10BoxedValueIN7autopas12ParticleBaseIdlEEEEJEE5applyEPKv
0000000000259510 W _ZN5jlcxx6detail11CallFunctorINS_10BoxedValueIN7autopas12ParticleBaseIdlEEEEJRKS5_EE5applyEPKvNS_13WrappedCppPtrE
000000000020f7b0 W _ZN5jlcxx6detail11CallFunctorINS_10BoxedValueIN7autopas12ParticleBaseIfiEEEEJEE5applyEPKv
00000000002592d0 W _ZN5jlcxx6detail11CallFunctorINS_10BoxedValueIN7autopas12ParticleBaseIfiEEEEJRKS5_EE5applyEPKvNS_13WrappedCppPtrE
000000000020f690 W _ZN5jlcxx6detail11CallFunctorINS_10BoxedValueIN7autopas23ParticleIteratorWrapperINS3_10MoleculeLJIdEELb1EEEEEJEE5applyEPKv
0000000000259fd0 W _ZN5jlcxx6detail11CallFunctorINS_10BoxedValueIN7autopas23ParticleIteratorWrapperINS3_10MoleculeLJIdEELb1EEEEEJRKS7_EE5applyEPKvNS_13WrappedCppPtrE
000000000020f630 W _ZN5jlcxx6detail11CallFunctorINS_10BoxedValueIN7autopas7AutoPasINS3_10MoleculeLJIdEEEEEEJEE5applyEPKv
000000000020f450 W _ZN5jlcxx6detail11CallFunctorINS_10BoxedValueISt6vectorIN7autopas10MoleculeLJIdEESaIS6_EEEEJEE5applyEPKv
000000000025ba40 W _ZN5jlcxx6detail11CallFunctorINS_10BoxedValueISt6vectorIN7autopas10MoleculeLJIdEESaIS6_EEEEJRKS8_EE5applyEPKvNS_13WrappedCppPtrE
000000000020f510 W _ZN5jlcxx6detail11CallFunctorINS_10BoxedValueISt6vectorIdSaIdEEEEJEE5applyEPKv
000000000025a680 W _ZN5jlcxx6detail11CallFunctorINS_10BoxedValueISt6vectorIdSaIdEEEEJRKS5_EE5applyEPKvNS_13WrappedCppPtrE
000000000020f3f0 W _ZN5jlcxx6detail11CallFunctorINS_10BoxedValueISt8valarrayIN7autopas10MoleculeLJIdEEEEEJEE5applyEPKv
0000000000217f40 W _ZN5jlcxx6detail11CallFunctorINS_10BoxedValueISt8valarrayIN7autopas10MoleculeLJIdEEEEEJPKS6_mEE5applyEPKvNS_13WrappedCppPtrEm
000000000025b990 W _ZN5jlcxx6detail11CallFunctorINS_10BoxedValueISt8valarrayIN7autopas10MoleculeLJIdEEEEEJRKS6_mEE5applyEPKvNS_13WrappedCppPtrEm
000000000025ae60 W _ZN5jlcxx6detail11CallFunctorINS_10BoxedValueISt8valarrayIN7autopas10MoleculeLJIdEEEEEJRKS7_EE5applyEPKvNS_13WrappedCppPtrE
0000000000217ea0 W _ZN5jlcxx6detail11CallFunctorINS_10BoxedValueISt8valarrayIN7autopas10MoleculeLJIdEEEEEJmEE5applyEPKvm
000000000020f4b0 W _ZN5jlcxx6detail11CallFunctorINS_10BoxedValueISt8valarrayIdEEEJEE5applyEPKv
0000000000217e00 W _ZN5jlcxx6detail11CallFunctorINS_10BoxedValueISt8valarrayIdEEEJPKdmEE5applyEPKvNS_13WrappedCppPtrEm
000000000025a150 W _ZN5jlcxx6detail11CallFunctorINS_10BoxedValueISt8valarrayIdEEEJRKS4_EE5applyEPKvNS_13WrappedCppPtrE
000000000025a5d0 W _ZN5jlcxx6detail11CallFunctorINS_10BoxedValueISt8valarrayIdEEEJRKdmEE5applyEPKvNS_13WrappedCppPtrEm
0000000000217d60 W _ZN5jlcxx6detail11CallFunctorINS_10BoxedValueISt8valarrayIdEEEJmEE5applyEPKvm
0000000000256c00 W _ZN5jlcxx6detail11CallFunctorINSt7__cxx1112basic_stringIcSt11char_traitsIcESaIcEEEJPKN7autopas10MoleculeLJIdEEEE5applyEPKvNS_13WrappedCppPtrE
00000000002570f0 W _ZN5jlcxx6detail11CallFunctorINSt7__cxx1112basic_stringIcSt11char_traitsIcESaIcEEEJPKN7autopas10MoleculeLJIfEEEE5applyEPKvNS_13WrappedCppPtrE
000000000025b1f0 W _ZN5jlcxx6detail11CallFunctorINSt7__cxx1112basic_stringIcSt11char_traitsIcESaIcEEEJRKN7autopas10MoleculeLJIdEEEE5applyEPKvNS_13WrappedCppPtrE
0000000000259ae0 W _ZN5jlcxx6detail11CallFunctorINSt7__cxx1112basic_stringIcSt11char_traitsIcESaIcEEEJRKN7autopas10MoleculeLJIfEEEE5applyEPKvNS_13WrappedCppPtrE
000000000025bac0 W _ZN5jlcxx6detail11CallFunctorIRKN7autopas10MoleculeLJIdEEJRKSt6vectorIS4_SaIS4_EElEE5applyEPKvNS_13WrappedCppPtrEl
000000000025af60 W _ZN5jlcxx6detail11CallFunctorIRKN7autopas10MoleculeLJIdEEJRKSt8valarrayIS4_ElEE5applyEPKvNS_13WrappedCppPtrEl
000000000025a700 W _ZN5jlcxx6detail11CallFunctorIRKdJRKSt6vectorIdSaIdEElEE5applyEPKvNS_13WrappedCppPtrEl
000000000025a250 W _ZN5jlcxx6detail11CallFunctorIRKdJRKSt8valarrayIdElEE5applyEPKvNS_13WrappedCppPtrEl
000000000025bc80 W _ZN5jlcxx6detail11CallFunctorIRN7autopas10MoleculeLJIdEEJRSt6vectorIS4_SaIS4_EElEE5applyEPKvNS_13WrappedCppPtrEl
000000000025b0c0 W _ZN5jlcxx6detail11CallFunctorIRN7autopas10MoleculeLJIdEEJRSt8valarrayIS4_ElEE5applyEPKvNS_13WrappedCppPtrEl
0000000000259090 W _ZN5jlcxx6detail11CallFunctorIRN7autopas25ParticleIteratorInterfaceINS2_10MoleculeLJIdEELb1EEEJRNS2_23ParticleIteratorWrapperIS5_Lb1EEEEE5applyEPKvNS_13WrappedCppPtrE
0000000000258e50 W _ZN5jlcxx6detail11CallFunctorIRN7autopas25ParticleIteratorInterfaceINS2_10MoleculeLJIdEELb1EEEJRNS2_8internal29ParticleIteratorInterfaceImplIS5_Lb1EEEEE5applyEPKvNS_13WrappedCppPtrE
000000000025ab70 W _ZN5jlcxx6detail11CallFunctorIRdJRSt6vectorIdSaIdEElEE5applyEPKvNS_13WrappedCppPtrEl
000000000025a3b0 W _ZN5jlcxx6detail11CallFunctorIRdJRSt8valarrayIdElEE5applyEPKvNS_13WrappedCppPtrEl
00000000002a2670 W _ZN5jlcxx6detail11CallFunctorISt6vectorIN7autopas10MoleculeLJIdEESaIS5_EEJPNS3_7AutoPasIS5_EEEE5applyEPKvNS_13WrappedCppPtrE
00000000002a24e0 W _ZN5jlcxx6detail11CallFunctorISt6vectorIN7autopas10MoleculeLJIdEESaIS5_EEJRNS3_7AutoPasIS5_EEEE5applyEPKvNS_13WrappedCppPtrE
000000000028eeb0 W _ZN5jlcxx6detail11CallFunctorISt6vectorIdSaIdEEJdddEE5applyEPKvddd
000000000020fe50 W _ZN5jlcxx6detail11CallFunctorIbJPKN7autopas23ParticleIteratorWrapperINS2_10MoleculeLJIdEELb1EEEEE5applyEPKvNS_13WrappedCppPtrE
000000000025a050 W _ZN5jlcxx6detail11CallFunctorIbJRKN7autopas23ParticleIteratorWrapperINS2_10MoleculeLJIdEELb1EEEEE5applyEPKvNS_13WrappedCppPtrE
000000000020f8b0 W _ZN5jlcxx6detail11CallFunctorImJPKSt6vectorIN7autopas10MoleculeLJIdEESaIS5_EEEE5applyEPKvNS_13WrappedCppPtrE
000000000020fb30 W _ZN5jlcxx6detail11CallFunctorImJPKSt6vectorIdSaIdEEEE5applyEPKvNS_13WrappedCppPtrE
000000000020f9f0 W _ZN5jlcxx6detail11CallFunctorImJPKSt8valarrayIN7autopas10MoleculeLJIdEEEEE5applyEPKvNS_13WrappedCppPtrE
000000000020fc70 W _ZN5jlcxx6detail11CallFunctorImJPKSt8valarrayIdEEE5applyEPKvNS_13WrappedCppPtrE
000000000025bb70 W _ZN5jlcxx6detail11CallFunctorImJRKSt6vectorIN7autopas10MoleculeLJIdEESaIS5_EEEE5applyEPKvNS_13WrappedCppPtrE
000000000025a7b0 W _ZN5jlcxx6detail11CallFunctorImJRKSt6vectorIdSaIdEEEE5applyEPKvNS_13WrappedCppPtrE
000000000025aee0 W _ZN5jlcxx6detail11CallFunctorImJRKSt8valarrayIN7autopas10MoleculeLJIdEEEEE5applyEPKvNS_13WrappedCppPtrE
000000000025a1d0 W _ZN5jlcxx6detail11CallFunctorImJRKSt8valarrayIdEEE5applyEPKvNS_13WrappedCppPtrE
00000000002102b0 W _ZN5jlcxx6detail11CallFunctorIvJP8HydrogenEE5applyEPKvNS_13WrappedCppPtrE
000000000020f810 W _ZN5jlcxx6detail11CallFunctorIvJPN7autopas10MoleculeLJIdEEEE5applyEPKvNS_13WrappedCppPtrE
0000000000217ad0 W _ZN5jlcxx6detail11CallFunctorIvJPN7autopas10MoleculeLJIdEENS_8ArrayRefIdLi1EEEEE5applyEPKvNS_13WrappedCppPtrEP10jl_array_t
000000000020fef0 W _ZN5jlcxx6detail11CallFunctorIvJPN7autopas10MoleculeLJIfEEEE5applyEPKvNS_13WrappedCppPtrE
0000000000217a00 W _ZN5jlcxx6detail11CallFunctorIvJPN7autopas10MoleculeLJIfEENS_8ArrayRefIdLi1EEEEE5applyEPKvNS_13WrappedCppPtrEP10jl_array_t
0000000000210170 W _ZN5jlcxx6detail11CallFunctorIvJPN7autopas12ParticleBaseIdlEEEE5applyEPKvNS_13WrappedCppPtrE
0000000000210210 W _ZN5jlcxx6detail11CallFunctorIvJPN7autopas12ParticleBaseIfiEEEE5applyEPKvNS_13WrappedCppPtrE
000000000020ff90 W _ZN5jlcxx6detail11CallFunctorIvJPN7autopas23ParticleIteratorWrapperINS2_10MoleculeLJIdEELb1EEEEE5applyEPKvNS_13WrappedCppPtrE
00000000002100d0 W _ZN5jlcxx6detail11CallFunctorIvJPN7autopas25ParticleIteratorInterfaceINS2_10MoleculeLJIdEELb1EEEEE5applyEPKvNS_13WrappedCppPtrE
000000000020fdb0 W _ZN5jlcxx6detail11CallFunctorIvJPN7autopas7AutoPasINS2_10MoleculeLJIdEEEEEE5applyEPKvNS_13WrappedCppPtrE
000000000025b770 W _ZN5jlcxx6detail11CallFunctorIvJPN7autopas7AutoPasINS2_10MoleculeLJIdEEEERKS5_EE5applyEPKvNS_13WrappedCppPtrESD_
0000000000210030 W _ZN5jlcxx6detail11CallFunctorIvJPN7autopas8internal29ParticleIteratorInterfaceImplINS2_10MoleculeLJIdEELb1EEEEE5applyEPKvNS_13WrappedCppPtrE
000000000020f950 W _ZN5jlcxx6detail11CallFunctorIvJPSt6vectorIN7autopas10MoleculeLJIdEESaIS5_EEEE5applyEPKvNS_13WrappedCppPtrE
000000000025b8e0 W _ZN5jlcxx6detail11CallFunctorIvJPSt6vectorIN7autopas10MoleculeLJIdEESaIS5_EERKS5_EE5applyEPKvNS_13WrappedCppPtrESE_
000000000020fbd0 W _ZN5jlcxx6detail11CallFunctorIvJPSt6vectorIdSaIdEEEE5applyEPKvNS_13WrappedCppPtrE
000000000025a520 W _ZN5jlcxx6detail11CallFunctorIvJPSt6vectorIdSaIdEERKdEE5applyEPKvNS_13WrappedCppPtrESB_
000000000020fa90 W _ZN5jlcxx6detail11CallFunctorIvJPSt8valarrayIN7autopas10MoleculeLJIdEEEEE5applyEPKvNS_13WrappedCppPtrE
000000000020fd10 W _ZN5jlcxx6detail11CallFunctorIvJPSt8valarrayIdEEE5applyEPKvNS_13WrappedCppPtrE
0000000000258c10 W _ZN5jlcxx6detail11CallFunctorIvJR8HydrogenEE5applyEPKvNS_13WrappedCppPtrE
000000000025bf70 W _ZN5jlcxx6detail11CallFunctorIvJRN7autopas10MoleculeLJIdEENS_8ArrayRefIdLi1EEEEE5applyEPKvNS_13WrappedCppPtrEP10jl_array_t
0000000000259990 W _ZN5jlcxx6detail11CallFunctorIvJRN7autopas10MoleculeLJIfEENS_8ArrayRefIdLi1EEEEE5applyEPKvNS_13WrappedCppPtrEP10jl_array_t
000000000025a0d0 W _ZN5jlcxx6detail11CallFunctorIvJRN7autopas7AutoPasINS2_10MoleculeLJIdEEEEEE5applyEPKvNS_13WrappedCppPtrE
000000000025b6e0 W _ZN5jlcxx6detail11CallFunctorIvJRN7autopas7AutoPasINS2_10MoleculeLJIdEEEERKS5_EE5applyEPKvNS_13WrappedCppPtrESD_
000000000025bea0 W _ZN5jlcxx6detail11CallFunctorIvJRSt6vectorIN7autopas10MoleculeLJIdEESaIS5_EENS_8ArrayRefIS5_Li1EEEEE5applyEPKvNS_13WrappedCppPtrEP10jl_array_t
000000000025bbf0 W _ZN5jlcxx6detail11CallFunctorIvJRSt6vectorIN7autopas10MoleculeLJIdEESaIS5_EERKS5_EE5applyEPKvNS_13WrappedCppPtrESE_
000000000025bd30 W _ZN5jlcxx6detail11CallFunctorIvJRSt6vectorIN7autopas10MoleculeLJIdEESaIS5_EERKS5_lEE5applyEPKvNS_13WrappedCppPtrESE_l
000000000025bdf0 W _ZN5jlcxx6detail11CallFunctorIvJRSt6vectorIN7autopas10MoleculeLJIdEESaIS5_EElEE5applyEPKvNS_13WrappedCppPtrEl
000000000025ad90 W _ZN5jlcxx6detail11CallFunctorIvJRSt6vectorIdSaIdEENS_8ArrayRefIdLi1EEEEE5applyEPKvNS_13WrappedCppPtrEP10jl_array_t
000000000025aae0 W _ZN5jlcxx6detail11CallFunctorIvJRSt6vectorIdSaIdEERKdEE5applyEPKvNS_13WrappedCppPtrESB_
000000000025ac20 W _ZN5jlcxx6detail11CallFunctorIvJRSt6vectorIdSaIdEERKdlEE5applyEPKvNS_13WrappedCppPtrESB_l
000000000025ace0 W _ZN5jlcxx6detail11CallFunctorIvJRSt6vectorIdSaIdEElEE5applyEPKvNS_13WrappedCppPtrEl
000000000025b820 W _ZN5jlcxx6detail11CallFunctorIvJRSt8valarrayIN7autopas10MoleculeLJIdEEERKS5_lEE5applyEPKvNS_13WrappedCppPtrESD_l
000000000025b010 W _ZN5jlcxx6detail11CallFunctorIvJRSt8valarrayIN7autopas10MoleculeLJIdEEElEE5applyEPKvNS_13WrappedCppPtrEl
000000000025a460 W _ZN5jlcxx6detail11CallFunctorIvJRSt8valarrayIdERKdlEE5applyEPKvNS_13WrappedCppPtrESA_l
000000000025a300 W _ZN5jlcxx6detail11CallFunctorIvJRSt8valarrayIdElEE5applyEPKvNS_13WrappedCppPtrEl
000000000024a7b0 W _ZN5jlcxx6detail13get_finalizerEv
00000000001fe9f0 W _ZN5jlcxx6detail8finalizeI8HydrogenEEvPT_
00000000001fe450 W _ZN5jlcxx6detail8finalizeIN7autopas10MoleculeLJIdEEEEvPT_
00000000001fe490 W _ZN5jlcxx6detail8finalizeIN7autopas10MoleculeLJIfEEEEvPT_
000000000021a100 W _ZN5jlcxx6detail8finalizeIN7autopas12ParticleBaseIdlEEEEvPT_
000000000021a0b0 W _ZN5jlcxx6detail8finalizeIN7autopas12ParticleBaseIfiEEEEvPT_
00000000001f1f30 W _ZN5jlcxx6detail8finalizeIN7autopas23ParticleIteratorWrapperINS2_10MoleculeLJIdEELb1EEEEEvPT_
00000000001f1e20 W _ZN5jlcxx6detail8finalizeIN7autopas25ParticleIteratorInterfaceINS2_10MoleculeLJIdEELb1EEEEEvPT_
0000000000268e40 W _ZN5jlcxx6detail8finalizeIN7autopas7AutoPasINS2_10MoleculeLJIdEEEEEEvPT_
00000000001f1e50 W _ZN5jlcxx6detail8finalizeIN7autopas8internal29ParticleIteratorInterfaceImplINS2_10MoleculeLJIdEELb1EEEEEvPT_
00000000001ff2b0 W _ZN5jlcxx6detail8finalizeISt6vectorIN7autopas10MoleculeLJIdEESaIS5_EEEEvPT_
00000000001fea50 W _ZN5jlcxx6detail8finalizeISt6vectorIdSaIdEEEEvPT_
0000000000210440 W _ZN5jlcxx6detail8finalizeISt8valarrayIN7autopas10MoleculeLJIdEEEEEvPT_
00000000002103a0 W _ZN5jlcxx6detail8finalizeISt8valarrayIdEEEvPT_
                 U _ZN5jlcxx8registryEv
0000000000422100 T _ZN6spdlog10should_logENS_5level10level_enumE
0000000000421ed0 T _ZN6spdlog11flush_everyENSt6chrono8durationIlSt5ratioILl1ELl1EEEE
0000000000421c40 T _ZN6spdlog11set_patternENSt7__cxx1112basic_stringIcSt11char_traitsIcESaIcEEENS_17pattern_time_typeE
00000000001d4f87 t _ZN6spdlog11set_patternENSt7__cxx1112basic_stringIcSt11char_traitsIcESaIcEEENS_17pattern_time_typeE.cold
000000000043cd10 T _ZN6spdlog12async_logger14backend_flush_Ev
00000000001d512c t _ZN6spdlog12async_logger14backend_flush_Ev.cold
000000000043cd90 T _ZN6spdlog12async_logger16backend_sink_it_ERKNS_7details7log_msgE
00000000001d5220 t _ZN6spdlog12async_logger16backend_sink_it_ERKNS_7details7log_msgE.cold
000000000043eee0 T _ZN6spdlog12async_logger5cloneENSt7__cxx1112basic_stringIcSt11char_traitsIcESaIcEEE
00000000001d56cc t _ZN6spdlog12async_logger5cloneENSt7__cxx1112basic_stringIcSt11char_traitsIcESaIcEEE.cold
000000000043e7d0 T _ZN6spdlog12async_logger6flush_Ev
00000000001d55ea t _ZN6spdlog12async_logger6flush_Ev.cold
000000000043e570 T _ZN6spdlog12async_logger8sink_it_ERKNS_7details7log_msgE
00000000001d55a2 t _ZN6spdlog12async_logger8sink_it_ERKNS_7details7log_msgE.cold
000000000043ed40 T _ZN6spdlog12async_loggerC1ENSt7__cxx1112basic_stringIcSt11char_traitsIcESaIcEEESt10shared_ptrINS_5sinks4sinkEESt8weak_ptrINS_7details11thread_poolEENS_21async_overflow_policyE
000000000043ea30 T _ZN6spdlog12async_loggerC1ENSt7__cxx1112basic_stringIcSt11char_traitsIcESaIcEEESt16initializer_listISt10shared_ptrINS_5sinks4sinkEEESt8weak_ptrINS_7details11thread_poolEENS_21async_overflow_policyE
000000000043ed40 T _ZN6spdlog12async_loggerC2ENSt7__cxx1112basic_stringIcSt11char_traitsIcESaIcEEESt10shared_ptrINS_5sinks4sinkEESt8weak_ptrINS_7details11thread_poolEENS_21async_overflow_policyE
00000000001d5696 t _ZN6spdlog12async_loggerC2ENSt7__cxx1112basic_stringIcSt11char_traitsIcESaIcEEESt10shared_ptrINS_5sinks4sinkEESt8weak_ptrINS_7details11thread_poolEENS_21async_overflow_policyE.cold
000000000043ea30 T _ZN6spdlog12async_loggerC2ENSt7__cxx1112basic_stringIcSt11char_traitsIcESaIcEEESt16initializer_listISt10shared_ptrINS_5sinks4sinkEEESt8weak_ptrINS_7details11thread_poolEENS_21async_overflow_policyE
00000000001d5632 t _ZN6spdlog12async_loggerC2ENSt7__cxx1112basic_stringIcSt11char_traitsIcESaIcEEESt16initializer_listISt10shared_ptrINS_5sinks4sinkEEESt8weak_ptrINS_7details11thread_poolEENS_21async_overflow_policyE.cold
000000000043f390 W _ZN6spdlog12async_loggerD0Ev
000000000043f140 W _ZN6spdlog12async_loggerD1Ev
000000000043f140 W _ZN6spdlog12async_loggerD2Ev
0000000000421bc0 T _ZN6spdlog13set_formatterESt10unique_ptrINS_9formatterESt14default_deleteIS1_EE
00000000001d4f70 t _ZN6spdlog13set_formatterESt10unique_ptrINS_9formatterESt14default_deleteIS1_EE.cold
0000000000422050 T _ZN6spdlog14default_loggerEv
00000000004220c0 T _ZN6spdlog14dump_backtraceEv
0000000000422680 T _ZN6spdlog15register_loggerESt10shared_ptrINS_6loggerEE
00000000001d5051 t _ZN6spdlog15register_loggerESt10shared_ptrINS_6loggerEE.cold
000000000043b5d0 W _ZN6spdlog15stderr_color_mtINS_18async_factory_implILNS_21async_overflow_policyE0EEEEESt10shared_ptrINS_6loggerEERKNSt7__cxx1112basic_stringIcSt11char_traitsIcESaIcEEENS_10color_modeE
0000000000438180 W _ZN6spdlog15stderr_color_mtINS_19synchronous_factoryEEESt10shared_ptrINS_6loggerEERKNSt7__cxx1112basic_stringIcSt11char_traitsIcESaIcEEENS_10color_modeE
000000000043ac30 W _ZN6spdlog15stderr_color_stINS_18async_factory_implILNS_21async_overflow_policyE0EEEEESt10shared_ptrINS_6loggerEERKNSt7__cxx1112basic_stringIcSt11char_traitsIcESaIcEEENS_10color_modeE
0000000000439d00 W _ZN6spdlog15stderr_color_stINS_19synchronous_factoryEEESt10shared_ptrINS_6loggerEERKNSt7__cxx1112basic_stringIcSt11char_traitsIcESaIcEEENS_10color_modeE
000000000043c910 W _ZN6spdlog15stdout_color_mtINS_18async_factory_implILNS_21async_overflow_policyE0EEEEESt10shared_ptrINS_6loggerEERKNSt7__cxx1112basic_stringIcSt11char_traitsIcESaIcEEENS_10color_modeE
0000000000437a90 W _ZN6spdlog15stdout_color_mtINS_19synchronous_factoryEEESt10shared_ptrINS_6loggerEERKNSt7__cxx1112basic_stringIcSt11char_traitsIcESaIcEEENS_10color_modeE
000000000043bf70 W _ZN6spdlog15stdout_color_stINS_18async_factory_implILNS_21async_overflow_policyE0EEEEESt10shared_ptrINS_6loggerEERKNSt7__cxx1112basic_stringIcSt11char_traitsIcESaIcEEENS_10color_modeE
0000000000439610 W _ZN6spdlog15stdout_color_stINS_19synchronous_factoryEEESt10shared_ptrINS_6loggerEERKNSt7__cxx1112basic_stringIcSt11char_traitsIcESaIcEEENS_10color_modeE
00000000001d4604 T _ZN6spdlog15throw_spdlog_exENSt7__cxx1112basic_stringIcSt11char_traitsIcESaIcEEE
00000000001d45ad T _ZN6spdlog15throw_spdlog_exERKNSt7__cxx1112basic_stringIcSt11char_traitsIcESaIcEEEi
0000000000421e50 T _ZN6spdlog16enable_backtraceEm
0000000000421e70 T _ZN6spdlog17disable_backtraceEv
0000000000422940 T _ZN6spdlog17initialize_loggerESt10shared_ptrINS_6loggerEE
00000000001d50ca t _ZN6spdlog17initialize_loggerESt10shared_ptrINS_6loggerEE.cold
00000000004212d0 T _ZN6spdlog17pattern_formatter11set_patternENSt7__cxx1112basic_stringIcSt11char_traitsIcESaIcEEE
000000000042c060 W _ZN6spdlog17pattern_formatter12handle_flag_INS_7details13scoped_padderEEEvcNS2_12padding_infoE
000000000042d220 W _ZN6spdlog17pattern_formatter12handle_flag_INS_7details18null_scoped_padderEEEvcNS2_12padding_infoE
000000000041e240 T _ZN6spdlog17pattern_formatter15handle_padspec_ERN9__gnu_cxx17__normal_iteratorIPKcNSt7__cxx1112basic_stringIcSt11char_traitsIcESaIcEEEEESB_
0000000000420c10 T _ZN6spdlog17pattern_formatter16compile_pattern_ERKNSt7__cxx1112basic_stringIcSt11char_traitsIcESaIcEEE
00000000001d4cce t _ZN6spdlog17pattern_formatter16compile_pattern_ERKNSt7__cxx1112basic_stringIcSt11char_traitsIcESaIcEEE.cold
000000000041e130 T _ZN6spdlog17pattern_formatter6formatERKNS_7details7log_msgERN3fmt2v819basic_memory_bufferIcLm250ESaIcEEE
000000000041e0b0 T _ZN6spdlog17pattern_formatter9get_time_ERKNS_7details7log_msgE
00000000004213b0 T _ZN6spdlog17pattern_formatterC1ENS_17pattern_time_typeENSt7__cxx1112basic_stringIcSt11char_traitsIcESaIcEEE
0000000000420f00 T _ZN6spdlog17pattern_formatterC1ENSt7__cxx1112basic_stringIcSt11char_traitsIcESaIcEEENS_17pattern_time_typeES6_St13unordered_mapIcSt10unique_ptrINS_21custom_flag_formatterESt14default_deleteISA_EESt4hashIcESt8equal_toIcESaISt4pairIKcSD_EEE
00000000004213b0 T _ZN6spdlog17pattern_formatterC2ENS_17pattern_time_typeENSt7__cxx1112basic_stringIcSt11char_traitsIcESaIcEEE
00000000001d4d5a t _ZN6spdlog17pattern_formatterC2ENS_17pattern_time_typeENSt7__cxx1112basic_stringIcSt11char_traitsIcESaIcEEE.cold
0000000000420f00 T _ZN6spdlog17pattern_formatterC2ENSt7__cxx1112basic_stringIcSt11char_traitsIcESaIcEEENS_17pattern_time_typeES6_St13unordered_mapIcSt10unique_ptrINS_21custom_flag_formatterESt14default_deleteISA_EESt4hashIcESt8equal_toIcESaISt4pairIKcSD_EEE
00000000001d4d02 t _ZN6spdlog17pattern_formatterC2ENSt7__cxx1112basic_stringIcSt11char_traitsIcESaIcEEENS_17pattern_time_typeES6_St13unordered_mapIcSt10unique_ptrINS_21custom_flag_formatterESt14default_deleteISA_EESt4hashIcESt8equal_toIcESaISt4pairIKcSD_EEE.cold
0000000000425a00 W _ZN6spdlog17pattern_formatterD0Ev
00000000004258b0 W _ZN6spdlog17pattern_formatterD1Ev
00000000004258b0 W _ZN6spdlog17pattern_formatterD2Ev
0000000000421ef0 T _ZN6spdlog17set_error_handlerEPFvRKNSt7__cxx1112basic_stringIcSt11char_traitsIcESaIcEEEE
00000000001d4fd2 t _ZN6spdlog17set_error_handlerEPFvRKNSt7__cxx1112basic_stringIcSt11char_traitsIcESaIcEEEE.cold
000000000043ada0 W _ZN6spdlog18async_factory_implILNS_21async_overflow_policyE0EE6createINS_5sinks21ansicolor_stderr_sinkINS_7details13console_mutexEEEJRNS_10color_modeEEEESt10shared_ptrINS_12async_loggerEENSt7__cxx1112basic_stringIcSt11char_traitsIcESaIcEEEDpOT0_
000000000043a400 W _ZN6spdlog18async_factory_implILNS_21async_overflow_policyE0EE6createINS_5sinks21ansicolor_stderr_sinkINS_7details17console_nullmutexEEEJRNS_10color_modeEEEESt10shared_ptrINS_12async_loggerEENSt7__cxx1112basic_stringIcSt11char_traitsIcESaIcEEEDpOT0_
000000000043c0e0 W _ZN6spdlog18async_factory_implILNS_21async_overflow_policyE0EE6createINS_5sinks21ansicolor_stdout_sinkINS_7details13console_mutexEEEJRNS_10color_modeEEEESt10shared_ptrINS_12async_loggerEENSt7__cxx1112basic_stringIcSt11char_traitsIcESaIcEEEDpOT0_
000000000043b740 W _ZN6spdlog18async_factory_implILNS_21async_overflow_policyE0EE6createINS_5sinks21ansicolor_stdout_sinkINS_7details17console_nullmutexEEEJRNS_10color_modeEEEESt10shared_ptrINS_12async_loggerEENSt7__cxx1112basic_stringIcSt11char_traitsIcESaIcEEEDpOT0_
00000000004220a0 T _ZN6spdlog18default_logger_rawEv
00000000004222a0 T _ZN6spdlog18set_default_loggerESt10shared_ptrINS_6loggerEE
00000000001d5002 t _ZN6spdlog18set_default_loggerESt10shared_ptrINS_6loggerEE.cold
0000000000422030 T _ZN6spdlog26set_automatic_registrationEb
0000000000421b60 T _ZN6spdlog3getERKNSt7__cxx1112basic_stringIcSt11char_traitsIcESaIcEEE
0000000000421fd0 T _ZN6spdlog4dropERKNSt7__cxx1112basic_stringIcSt11char_traitsIcESaIcEEE
00000000004203a0 T _ZN6spdlog4swapERNS_6loggerES1_
000000000041c210 T _ZN6spdlog5level14to_short_c_strENS0_10level_enumE
000000000041c1f0 T _ZN6spdlog5level14to_string_viewENS0_10level_enumE
000000000041c230 T _ZN6spdlog5level8from_strERKNSt7__cxx1112basic_stringIcSt11char_traitsIcESaIcEEE
00000000004e55a0 d _ZN6spdlog5levelL17short_level_namesE
00000000005009e0 d _ZN6spdlog5levelL18level_string_viewsE
000000000020f2d0 W _ZN6spdlog5sinks12ostream_sinkISt5mutexE6flush_Ev
000000000020f2e0 W _ZN6spdlog5sinks12ostream_sinkISt5mutexE8sink_it_ERKNS_7details7log_msgE
00000000001ff3f0 W _ZN6spdlog5sinks12ostream_sinkISt5mutexED0Ev
00000000001f57f0 W _ZN6spdlog5sinks12ostream_sinkISt5mutexED1Ev
00000000001f57f0 W _ZN6spdlog5sinks12ostream_sinkISt5mutexED2Ev
0000000000435f80 W _ZN6spdlog5sinks14ansicolor_sinkINS_7details13console_mutexEE10to_string_B5cxx11ERKN3fmt2v817basic_string_viewIcEE
00000000004366a0 W _ZN6spdlog5sinks14ansicolor_sinkINS_7details13console_mutexEE11set_patternERKNSt7__cxx1112basic_stringIcSt11char_traitsIcESaIcEEE
0000000000435d60 W _ZN6spdlog5sinks14ansicolor_sinkINS_7details13console_mutexEE12print_ccode_ERKN3fmt2v817basic_string_viewIcEE
0000000000435d80 W _ZN6spdlog5sinks14ansicolor_sinkINS_7details13console_mutexEE12print_range_ERKN3fmt2v819basic_memory_bufferIcLm250ESaIcEEEmm
0000000000435d50 W _ZN6spdlog5sinks14ansicolor_sinkINS_7details13console_mutexEE12should_colorEv
00000000004353e0 W _ZN6spdlog5sinks14ansicolor_sinkINS_7details13console_mutexEE13set_formatterESt10unique_ptrINS_9formatterESt14default_deleteIS6_EE
0000000000435d10 W _ZN6spdlog5sinks14ansicolor_sinkINS_7details13console_mutexEE14set_color_modeENS_10color_modeE
0000000000435db0 W _ZN6spdlog5sinks14ansicolor_sinkINS_7details13console_mutexEE3logERKNS2_7log_msgE
0000000000435380 W _ZN6spdlog5sinks14ansicolor_sinkINS_7details13console_mutexEE5flushEv
0000000000436060 W _ZN6spdlog5sinks14ansicolor_sinkINS_7details13console_mutexEE9set_colorENS_5level10level_enumEN3fmt2v817basic_string_viewIcEE
0000000000436cc0 W _ZN6spdlog5sinks14ansicolor_sinkINS_7details13console_mutexEEC1EP8_IO_FILENS_10color_modeE
0000000000436cc0 W _ZN6spdlog5sinks14ansicolor_sinkINS_7details13console_mutexEEC2EP8_IO_FILENS_10color_modeE
00000000004357c0 W _ZN6spdlog5sinks14ansicolor_sinkINS_7details13console_mutexEED0Ev
0000000000435150 W _ZN6spdlog5sinks14ansicolor_sinkINS_7details13console_mutexEED1Ev
0000000000435150 W _ZN6spdlog5sinks14ansicolor_sinkINS_7details13console_mutexEED2Ev
0000000000436460 W _ZN6spdlog5sinks14ansicolor_sinkINS_7details17console_nullmutexEE10to_string_B5cxx11ERKN3fmt2v817basic_string_viewIcEE
0000000000436980 W _ZN6spdlog5sinks14ansicolor_sinkINS_7details17console_nullmutexEE11set_patternERKNSt7__cxx1112basic_stringIcSt11char_traitsIcESaIcEEE
0000000000436280 W _ZN6spdlog5sinks14ansicolor_sinkINS_7details17console_nullmutexEE12print_ccode_ERKN3fmt2v817basic_string_viewIcEE
00000000004362a0 W _ZN6spdlog5sinks14ansicolor_sinkINS_7details17console_nullmutexEE12print_range_ERKN3fmt2v819basic_memory_bufferIcLm250ESaIcEEEmm
0000000000436270 W _ZN6spdlog5sinks14ansicolor_sinkINS_7details17console_nullmutexEE12should_colorEv
0000000000435060 W _ZN6spdlog5sinks14ansicolor_sinkINS_7details17console_nullmutexEE13set_formatterESt10unique_ptrINS_9formatterESt14default_deleteIS6_EE
0000000000436210 W _ZN6spdlog5sinks14ansicolor_sinkINS_7details17console_nullmutexEE14set_color_modeENS_10color_modeE
00000000004362d0 W _ZN6spdlog5sinks14ansicolor_sinkINS_7details17console_nullmutexEE3logERKNS2_7log_msgE
0000000000435310 W _ZN6spdlog5sinks14ansicolor_sinkINS_7details17console_nullmutexEE5flushEv
0000000000436540 W _ZN6spdlog5sinks14ansicolor_sinkINS_7details17console_nullmutexEE9set_colorENS_5level10level_enumEN3fmt2v817basic_string_viewIcEE
0000000000438840 W _ZN6spdlog5sinks14ansicolor_sinkINS_7details17console_nullmutexEEC1EP8_IO_FILENS_10color_modeE
0000000000438840 W _ZN6spdlog5sinks14ansicolor_sinkINS_7details17console_nullmutexEEC2EP8_IO_FILENS_10color_modeE
0000000000435840 W _ZN6spdlog5sinks14ansicolor_sinkINS_7details17console_nullmutexEED0Ev
00000000004351e0 W _ZN6spdlog5sinks14ansicolor_sinkINS_7details17console_nullmutexEED1Ev
00000000004351e0 W _ZN6spdlog5sinks14ansicolor_sinkINS_7details17console_nullmutexEED2Ev
0000000000438150 W _ZN6spdlog5sinks21ansicolor_stderr_sinkINS_7details13console_mutexEEC1ENS_10color_modeE
0000000000438150 W _ZN6spdlog5sinks21ansicolor_stderr_sinkINS_7details13console_mutexEEC2ENS_10color_modeE
00000000004358c0 W _ZN6spdlog5sinks21ansicolor_stderr_sinkINS_7details13console_mutexEED0Ev
00000000004356a0 W _ZN6spdlog5sinks21ansicolor_stderr_sinkINS_7details13console_mutexEED1Ev
00000000004356a0 W _ZN6spdlog5sinks21ansicolor_stderr_sinkINS_7details13console_mutexEED2Ev
0000000000439cd0 W _ZN6spdlog5sinks21ansicolor_stderr_sinkINS_7details17console_nullmutexEEC1ENS_10color_modeE
0000000000439cd0 W _ZN6spdlog5sinks21ansicolor_stderr_sinkINS_7details17console_nullmutexEEC2ENS_10color_modeE
0000000000435a40 W _ZN6spdlog5sinks21ansicolor_stderr_sinkINS_7details17console_nullmutexEED0Ev
0000000000435580 W _ZN6spdlog5sinks21ansicolor_stderr_sinkINS_7details17console_nullmutexEED1Ev
0000000000435580 W _ZN6spdlog5sinks21ansicolor_stderr_sinkINS_7details17console_nullmutexEED2Ev
0000000000437a60 W _ZN6spdlog5sinks21ansicolor_stdout_sinkINS_7details13console_mutexEEC1ENS_10color_modeE
0000000000437a60 W _ZN6spdlog5sinks21ansicolor_stdout_sinkINS_7details13console_mutexEEC2ENS_10color_modeE
0000000000435940 W _ZN6spdlog5sinks21ansicolor_stdout_sinkINS_7details13console_mutexEED0Ev
0000000000435610 W _ZN6spdlog5sinks21ansicolor_stdout_sinkINS_7details13console_mutexEED1Ev
0000000000435610 W _ZN6spdlog5sinks21ansicolor_stdout_sinkINS_7details13console_mutexEED2Ev
00000000004395e0 W _ZN6spdlog5sinks21ansicolor_stdout_sinkINS_7details17console_nullmutexEEC1ENS_10color_modeE
00000000004395e0 W _ZN6spdlog5sinks21ansicolor_stdout_sinkINS_7details17console_nullmutexEEC2ENS_10color_modeE
00000000004359c0 W _ZN6spdlog5sinks21ansicolor_stdout_sinkINS_7details17console_nullmutexEED0Ev
0000000000435730 W _ZN6spdlog5sinks21ansicolor_stdout_sinkINS_7details17console_nullmutexEED1Ev
0000000000435730 W _ZN6spdlog5sinks21ansicolor_stdout_sinkINS_7details17console_nullmutexEED2Ev
000000000041fbb0 T _ZN6spdlog5sinks4sink9set_levelENS_5level10level_enumE
0000000000424950 W _ZN6spdlog5sinks9base_sinkINS_7details10null_mutexEE11set_patternERKNSt7__cxx1112basic_stringIcSt11char_traitsIcESaIcEEE
000000000042edd0 W _ZN6spdlog5sinks9base_sinkINS_7details10null_mutexEE12set_pattern_ERKNSt7__cxx1112basic_stringIcSt11char_traitsIcESaIcEEE
0000000000424960 W _ZN6spdlog5sinks9base_sinkINS_7details10null_mutexEE13set_formatterESt10unique_ptrINS_9formatterESt14default_deleteIS6_EE
00000000004249e0 W _ZN6spdlog5sinks9base_sinkINS_7details10null_mutexEE14set_formatter_ESt10unique_ptrINS_9formatterESt14default_deleteIS6_EE
0000000000424930 W _ZN6spdlog5sinks9base_sinkINS_7details10null_mutexEE3logERKNS2_7log_msgE
0000000000424940 W _ZN6spdlog5sinks9base_sinkINS_7details10null_mutexEE5flushEv
0000000000427800 W _ZN6spdlog5sinks9base_sinkINS_7details10null_mutexEEC1ESt10unique_ptrINS_9formatterESt14default_deleteIS6_EE
000000000042f0d0 W _ZN6spdlog5sinks9base_sinkINS_7details10null_mutexEEC1Ev
0000000000427800 W _ZN6spdlog5sinks9base_sinkINS_7details10null_mutexEEC2ESt10unique_ptrINS_9formatterESt14default_deleteIS6_EE
000000000042f0d0 W _ZN6spdlog5sinks9base_sinkINS_7details10null_mutexEEC2Ev
0000000000425790 W _ZN6spdlog5sinks9base_sinkISt5mutexE11set_patternERKNSt7__cxx1112basic_stringIcSt11char_traitsIcESaIcEEE
000000000042ebc0 W _ZN6spdlog5sinks9base_sinkISt5mutexE12set_pattern_ERKNSt7__cxx1112basic_stringIcSt11char_traitsIcESaIcEEE
00000000004257f0 W _ZN6spdlog5sinks9base_sinkISt5mutexE13set_formatterESt10unique_ptrINS_9formatterESt14default_deleteIS5_EE
00000000004248f0 W _ZN6spdlog5sinks9base_sinkISt5mutexE14set_formatter_ESt10unique_ptrINS_9formatterESt14default_deleteIS5_EE
0000000000425730 W _ZN6spdlog5sinks9base_sinkISt5mutexE3logERKNS_7details7log_msgE
00000000004256d0 W _ZN6spdlog5sinks9base_sinkISt5mutexE5flushEv
00000000004277c0 W _ZN6spdlog5sinks9base_sinkISt5mutexEC1ESt10unique_ptrINS_9formatterESt14default_deleteIS5_EE
000000000042efe0 W _ZN6spdlog5sinks9base_sinkISt5mutexEC1Ev
00000000004277c0 W _ZN6spdlog5sinks9base_sinkISt5mutexEC2ESt10unique_ptrINS_9formatterESt14default_deleteIS5_EE
000000000042efe0 W _ZN6spdlog5sinks9base_sinkISt5mutexEC2Ev
00000000004210e0 T _ZN6spdlog6logger11set_patternENSt7__cxx1112basic_stringIcSt11char_traitsIcESaIcEEENS_17pattern_time_typeE
00000000001d4d3a t _ZN6spdlog6logger11set_patternENSt7__cxx1112basic_stringIcSt11char_traitsIcESaIcEEENS_17pattern_time_typeE.cold
000000000041f8d0 T _ZN6spdlog6logger12err_handler_ERKNSt7__cxx1112basic_stringIcSt11char_traitsIcESaIcEEE
00000000001d4900 t _ZN6spdlog6logger12err_handler_ERKNSt7__cxx1112basic_stringIcSt11char_traitsIcESaIcEEE.cold
000000000041f0d0 T _ZN6spdlog6logger13set_formatterESt10unique_ptrINS_9formatterESt14default_deleteIS2_EE
00000000001d4812 t _ZN6spdlog6logger13set_formatterESt10unique_ptrINS_9formatterESt14default_deleteIS2_EE.cold
000000000041f8b0 T _ZN6spdlog6logger13should_flush_ERKNS_7details7log_msgE
000000000041f8a0 T _ZN6spdlog6logger14dump_backtraceEv
000000000041f750 T _ZN6spdlog6logger15dump_backtrace_Ev
00000000001d48e0 t _ZN6spdlog6logger15dump_backtrace_Ev.cold
000000000041f2c0 T _ZN6spdlog6logger16enable_backtraceEm
000000000041f340 T _ZN6spdlog6logger17disable_backtraceEv
000000000041f4d0 T _ZN6spdlog6logger17set_error_handlerESt8functionIFvRKNSt7__cxx1112basic_stringIcSt11char_traitsIcESaIcEEEEE
0000000000297620 W _ZN6spdlog6logger4log_IJNSt7__cxx1112basic_stringIcSt11char_traitsIcESaIcEEEEEEvNS_10source_locENS_5level10level_enumEN3fmt2v817basic_string_viewIcEEDpOT_
000000000040b5b0 W _ZN6spdlog6logger4log_IJPKcEEEvNS_10source_locENS_5level10level_enumEN3fmt2v817basic_string_viewIcEEDpOT_
0000000000343c00 W _ZN6spdlog6logger4log_IJRNSt7__cxx1112basic_stringIcSt11char_traitsIcESaIcEEEEEEvNS_10source_locENS_5level10level_enumEN3fmt2v817basic_string_viewIcEEDpOT_
0000000000357dd0 W _ZN6spdlog6logger4log_IJRdS2_dEEEvNS_10source_locENS_5level10level_enumEN3fmt2v817basic_string_viewIcEEDpOT_
00000000002d33d0 W _ZN6spdlog6logger4log_IJRiEEEvNS_10source_locENS_5level10level_enumEN3fmt2v817basic_string_viewIcEEDpOT_
00000000002ed0d0 W _ZN6spdlog6logger4log_IJdEEEvNS_10source_locENS_5level10level_enumEN3fmt2v817basic_string_viewIcEEDpOT_
00000000004202e0 T _ZN6spdlog6logger4swapERS0_
000000000041b6c0 W _ZN6spdlog6logger4warnIJPKcEEEvN3fmt2v819basic_format_stringIcJDpNS5_13type_identityIT_E4typeEEEEDpOS8_
00000000004201a0 T _ZN6spdlog6logger5cloneENSt7__cxx1112basic_stringIcSt11char_traitsIcESaIcEEE
00000000001d4c7e t _ZN6spdlog6logger5cloneENSt7__cxx1112basic_stringIcSt11char_traitsIcESaIcEEE.cold
0000000000344010 W _ZN6spdlog6logger5debugIJRNSt7__cxx1112basic_stringIcSt11char_traitsIcESaIcEEEEEEvN3fmt2v819basic_format_stringIcJDpNSA_13type_identityIT_E4typeEEEEDpOSD_
00000000001ed970 t _ZN6spdlog6logger5debugIJRNSt7__cxx1112basic_stringIcSt11char_traitsIcESaIcEEEEEEvN3fmt2v819basic_format_stringIcJDpNSA_13type_identityIT_E4typeEEEEDpOSD_.constprop.0
00000000001ed9b0 t _ZN6spdlog6logger5debugIJRdS2_dEEEvN3fmt2v819basic_format_stringIcJDpNS4_13type_identityIT_E4typeEEEEDpOS7_.constprop.0
00000000001e4930 t _ZN6spdlog6logger5debugIJRiEEEvN3fmt2v819basic_format_stringIcJDpNS4_13type_identityIT_E4typeEEEEDpOS7_.constprop.0
00000000001e4970 t _ZN6spdlog6logger5debugIJdEEEvN3fmt2v819basic_format_stringIcJDpNS3_13type_identityIT_E4typeEEEEDpOS6_.constprop.0
00000000001e49b0 t _ZN6spdlog6logger5debugIJdEEEvN3fmt2v819basic_format_stringIcJDpNS3_13type_identityIT_E4typeEEEEDpOS6_.constprop.1
000000000041f3b0 T _ZN6spdlog6logger5flushEv
000000000041f4c0 T _ZN6spdlog6logger5sinksEv
00000000002d37d0 W _ZN6spdlog6logger5traceIJRiEEEvN3fmt2v819basic_format_stringIcJDpNS4_13type_identityIT_E4typeEEEEDpOS7_
000000000041fa40 T _ZN6spdlog6logger6flush_Ev
00000000001d4910 t _ZN6spdlog6logger6flush_Ev.cold
000000000041f710 T _ZN6spdlog6logger7log_it_ERKNS_7details7log_msgEbb
000000000041f420 T _ZN6spdlog6logger8flush_onENS_5level10level_enumE
000000000041fad0 T _ZN6spdlog6logger8sink_it_ERKNS_7details7log_msgE
00000000001d49f2 t _ZN6spdlog6logger8sink_it_ERKNS_7details7log_msgE.cold
000000000041f030 T _ZN6spdlog6logger9set_levelENS_5level10level_enumE
000000000041ef60 T _ZN6spdlog6loggerC1EOS0_
000000000041ff40 T _ZN6spdlog6loggerC1ERKS0_
0000000000427600 W _ZN6spdlog6loggerC1IPKSt10shared_ptrINS_5sinks4sinkEEEENSt7__cxx1112basic_stringIcSt11char_traitsIcESaIcEEET_SE_
000000000041ef60 T _ZN6spdlog6loggerC2EOS0_
000000000041ff40 T _ZN6spdlog6loggerC2ERKS0_
00000000001d4c32 t _ZN6spdlog6loggerC2ERKS0_.cold
0000000000427600 W _ZN6spdlog6loggerC2IPKSt10shared_ptrINS_5sinks4sinkEEEENSt7__cxx1112basic_stringIcSt11char_traitsIcESaIcEEET_SE_
00000000002b06c0 W _ZN6spdlog6loggerD0Ev
0000000000235c10 W _ZN6spdlog6loggerD1Ev
0000000000235c10 W _ZN6spdlog6loggerD2Ev
0000000000420380 T _ZN6spdlog6loggeraSES0_
000000000041cb50 T _ZN6spdlog7details10backtracer11foreach_popESt8functionIFvRKNS0_7log_msgEEE
00000000001d46f2 t _ZN6spdlog7details10backtracer11foreach_popESt8functionIFvRKNS0_7log_msgEEE.cold
000000000041c740 T _ZN6spdlog7details10backtracer6enableEm
00000000001d46d2 t _ZN6spdlog7details10backtracer6enableEm.cold
000000000041c8d0 T _ZN6spdlog7details10backtracer7disableEv
000000000041e990 T _ZN6spdlog7details10backtracer9push_backERKNS0_7log_msgE
00000000001d47cc t _ZN6spdlog7details10backtracer9push_backERKNS0_7log_msgE.cold
000000000041c910 T _ZN6spdlog7details10backtracerC1EOS1_
000000000041fbd0 T _ZN6spdlog7details10backtracerC1ERKS1_
000000000041c910 T _ZN6spdlog7details10backtracerC2EOS1_
000000000041fbd0 T _ZN6spdlog7details10backtracerC2ERKS1_
00000000001d4b4c t _ZN6spdlog7details10backtracerC2ERKS1_.cold
000000000041ca30 T _ZN6spdlog7details10backtraceraSES1_
00000000001d46e2 t _ZN6spdlog7details10backtraceraSES1_.cold
000000000042b440 W _ZN6spdlog7details10fmt_helper10append_intIiEEvT_RN3fmt2v819basic_memory_bufferIcLm250ESaIcEEE
0000000000430ac0 W _ZN6spdlog7details10fmt_helper4pad2EiRN3fmt2v819basic_memory_bufferIcLm250ESaIcEEE
0000000000428600 W _ZN6spdlog7details11A_formatterINS0_13scoped_padderEE6formatERKNS0_7log_msgERK2tmRN3fmt2v819basic_memory_bufferIcLm250ESaIcEEE
00000000004253c0 W _ZN6spdlog7details11A_formatterINS0_13scoped_padderEED0Ev
0000000000424a90 W _ZN6spdlog7details11A_formatterINS0_13scoped_padderEED1Ev
0000000000424a90 W _ZN6spdlog7details11A_formatterINS0_13scoped_padderEED2Ev
0000000000426160 W _ZN6spdlog7details11A_formatterINS0_18null_scoped_padderEE6formatERKNS0_7log_msgERK2tmRN3fmt2v819basic_memory_bufferIcLm250ESaIcEEE
0000000000425160 W _ZN6spdlog7details11A_formatterINS0_18null_scoped_padderEED0Ev
0000000000424d20 W _ZN6spdlog7details11A_formatterINS0_18null_scoped_padderEED1Ev
0000000000424d20 W _ZN6spdlog7details11A_formatterINS0_18null_scoped_padderEED2Ev
00000000004282c0 W _ZN6spdlog7details11B_formatterINS0_13scoped_padderEE6formatERKNS0_7log_msgERK2tmRN3fmt2v819basic_memory_bufferIcLm250ESaIcEEE
00000000004253a0 W _ZN6spdlog7details11B_formatterINS0_13scoped_padderEED0Ev
0000000000424ab0 W _ZN6spdlog7details11B_formatterINS0_13scoped_padderEED1Ev
0000000000424ab0 W _ZN6spdlog7details11B_formatterINS0_13scoped_padderEED2Ev
00000000004260e0 W _ZN6spdlog7details11B_formatterINS0_18null_scoped_padderEE6formatERKNS0_7log_msgERK2tmRN3fmt2v819basic_memory_bufferIcLm250ESaIcEEE
0000000000425140 W _ZN6spdlog7details11B_formatterINS0_18null_scoped_padderEED0Ev
0000000000424d40 W _ZN6spdlog7details11B_formatterINS0_18null_scoped_padderEED1Ev
0000000000424d40 W _ZN6spdlog7details11B_formatterINS0_18null_scoped_padderEED2Ev
0000000000432ed0 W _ZN6spdlog7details11C_formatterINS0_13scoped_padderEE6formatERKNS0_7log_msgERK2tmRN3fmt2v819basic_memory_bufferIcLm250ESaIcEEE
0000000000425380 W _ZN6spdlog7details11C_formatterINS0_13scoped_padderEED0Ev
0000000000424ad0 W _ZN6spdlog7details11C_formatterINS0_13scoped_padderEED1Ev
0000000000424ad0 W _ZN6spdlog7details11C_formatterINS0_13scoped_padderEED2Ev
0000000000431fb0 W _ZN6spdlog7details11C_formatterINS0_18null_scoped_padderEE6formatERKNS0_7log_msgERK2tmRN3fmt2v819basic_memory_bufferIcLm250ESaIcEEE
0000000000425120 W _ZN6spdlog7details11C_formatterINS0_18null_scoped_padderEED0Ev
0000000000424d60 W _ZN6spdlog7details11C_formatterINS0_18null_scoped_padderEED1Ev
0000000000424d60 W _ZN6spdlog7details11C_formatterINS0_18null_scoped_padderEED2Ev
0000000000433d20 W _ZN6spdlog7details11D_formatterINS0_13scoped_padderEE6formatERKNS0_7log_msgERK2tmRN3fmt2v819basic_memory_bufferIcLm250ESaIcEEE
0000000000425360 W _ZN6spdlog7details11D_formatterINS0_13scoped_padderEED0Ev
0000000000424af0 W _ZN6spdlog7details11D_formatterINS0_13scoped_padderEED1Ev
0000000000424af0 W _ZN6spdlog7details11D_formatterINS0_13scoped_padderEED2Ev
00000000004342d0 W _ZN6spdlog7details11D_formatterINS0_18null_scoped_padderEE6formatERKNS0_7log_msgERK2tmRN3fmt2v819basic_memory_bufferIcLm250ESaIcEEE
0000000000425100 W _ZN6spdlog7details11D_formatterINS0_18null_scoped_padderEED0Ev
0000000000424d80 W _ZN6spdlog7details11D_formatterINS0_18null_scoped_padderEED1Ev
0000000000424d80 W _ZN6spdlog7details11D_formatterINS0_18null_scoped_padderEED2Ev
0000000000428d60 W _ZN6spdlog7details11E_formatterINS0_13scoped_padderEE6formatERKNS0_7log_msgERK2tmRN3fmt2v819basic_memory_bufferIcLm250ESaIcEEE
00000000004252c0 W _ZN6spdlog7details11E_formatterINS0_13scoped_padderEED0Ev
0000000000424b90 W _ZN6spdlog7details11E_formatterINS0_13scoped_padderEED1Ev
0000000000424b90 W _ZN6spdlog7details11E_formatterINS0_13scoped_padderEED2Ev
00000000004263a0 W _ZN6spdlog7details11E_formatterINS0_18null_scoped_padderEE6formatERKNS0_7log_msgERK2tmRN3fmt2v819basic_memory_bufferIcLm250ESaIcEEE
0000000000425060 W _ZN6spdlog7details11E_formatterINS0_18null_scoped_padderEED0Ev
0000000000424e20 W _ZN6spdlog7details11E_formatterINS0_18null_scoped_padderEED1Ev
0000000000424e20 W _ZN6spdlog7details11E_formatterINS0_18null_scoped_padderEED2Ev
000000000042a060 W _ZN6spdlog7details11F_formatterINS0_13scoped_padderEE6formatERKNS0_7log_msgERK2tmRN3fmt2v819basic_memory_bufferIcLm250ESaIcEEE
00000000004252d0 W _ZN6spdlog7details11F_formatterINS0_13scoped_padderEED0Ev
0000000000424b80 W _ZN6spdlog7details11F_formatterINS0_13scoped_padderEED1Ev
0000000000424b80 W _ZN6spdlog7details11F_formatterINS0_13scoped_padderEED2Ev
0000000000426e70 W _ZN6spdlog7details11F_formatterINS0_18null_scoped_padderEE6formatERKNS0_7log_msgERK2tmRN3fmt2v819basic_memory_bufferIcLm250ESaIcEEE
0000000000425070 W _ZN6spdlog7details11F_formatterINS0_18null_scoped_padderEED0Ev
0000000000424e10 W _ZN6spdlog7details11F_formatterINS0_18null_scoped_padderEED1Ev
0000000000424e10 W _ZN6spdlog7details11F_formatterINS0_18null_scoped_padderEED2Ev
00000000004329d0 W _ZN6spdlog7details11H_formatterINS0_13scoped_padderEE6formatERKNS0_7log_msgERK2tmRN3fmt2v819basic_memory_bufferIcLm250ESaIcEEE
0000000000425330 W _ZN6spdlog7details11H_formatterINS0_13scoped_padderEED0Ev
0000000000424b20 W _ZN6spdlog7details11H_formatterINS0_13scoped_padderEED1Ev
0000000000424b20 W _ZN6spdlog7details11H_formatterINS0_13scoped_padderEED2Ev
0000000000431c10 W _ZN6spdlog7details11H_formatterINS0_18null_scoped_padderEE6formatERKNS0_7log_msgERK2tmRN3fmt2v819basic_memory_bufferIcLm250ESaIcEEE
00000000004250d0 W _ZN6spdlog7details11H_formatterINS0_18null_scoped_padderEED0Ev
0000000000424db0 W _ZN6spdlog7details11H_formatterINS0_18null_scoped_padderEED1Ev
0000000000424db0 W _ZN6spdlog7details11H_formatterINS0_18null_scoped_padderEED2Ev
0000000000433160 W _ZN6spdlog7details11I_formatterINS0_13scoped_padderEE6formatERKNS0_7log_msgERK2tmRN3fmt2v819basic_memory_bufferIcLm250ESaIcEEE
0000000000425320 W _ZN6spdlog7details11I_formatterINS0_13scoped_padderEED0Ev
0000000000424b30 W _ZN6spdlog7details11I_formatterINS0_13scoped_padderEED1Ev
0000000000424b30 W _ZN6spdlog7details11I_formatterINS0_13scoped_padderEED2Ev
0000000000432110 W _ZN6spdlog7details11I_formatterINS0_18null_scoped_padderEE6formatERKNS0_7log_msgERK2tmRN3fmt2v819basic_memory_bufferIcLm250ESaIcEEE
00000000004250c0 W _ZN6spdlog7details11I_formatterINS0_18null_scoped_padderEED0Ev
0000000000424dc0 W _ZN6spdlog7details11I_formatterINS0_18null_scoped_padderEED1Ev
0000000000424dc0 W _ZN6spdlog7details11I_formatterINS0_18null_scoped_padderEED2Ev
0000000000432750 W _ZN6spdlog7details11M_formatterINS0_13scoped_padderEE6formatERKNS0_7log_msgERK2tmRN3fmt2v819basic_memory_bufferIcLm250ESaIcEEE
0000000000425310 W _ZN6spdlog7details11M_formatterINS0_13scoped_padderEED0Ev
0000000000424b40 W _ZN6spdlog7details11M_formatterINS0_13scoped_padderEED1Ev
0000000000424b40 W _ZN6spdlog7details11M_formatterINS0_13scoped_padderEED2Ev
0000000000431ae0 W _ZN6spdlog7details11M_formatterINS0_18null_scoped_padderEE6formatERKNS0_7log_msgERK2tmRN3fmt2v819basic_memory_bufferIcLm250ESaIcEEE
00000000004250b0 W _ZN6spdlog7details11M_formatterINS0_18null_scoped_padderEED0Ev
0000000000424dd0 W _ZN6spdlog7details11M_formatterINS0_18null_scoped_padderEED1Ev
0000000000424dd0 W _ZN6spdlog7details11M_formatterINS0_18null_scoped_padderEED2Ev
0000000000434ca0 W _ZN6spdlog7details11R_formatterINS0_13scoped_padderEE6formatERKNS0_7log_msgERK2tmRN3fmt2v819basic_memory_bufferIcLm250ESaIcEEE
0000000000425290 W _ZN6spdlog7details11R_formatterINS0_13scoped_padderEED0Ev
0000000000424bc0 W _ZN6spdlog7details11R_formatterINS0_13scoped_padderEED1Ev
0000000000424bc0 W _ZN6spdlog7details11R_formatterINS0_13scoped_padderEED2Ev
00000000004337b0 W _ZN6spdlog7details11R_formatterINS0_18null_scoped_padderEE6formatERKNS0_7log_msgERK2tmRN3fmt2v819basic_memory_bufferIcLm250ESaIcEEE
0000000000425030 W _ZN6spdlog7details11R_formatterINS0_18null_scoped_padderEED0Ev
0000000000424e50 W _ZN6spdlog7details11R_formatterINS0_18null_scoped_padderEED1Ev
0000000000424e50 W _ZN6spdlog7details11R_formatterINS0_18null_scoped_padderEED2Ev
00000000004324d0 W _ZN6spdlog7details11S_formatterINS0_13scoped_padderEE6formatERKNS0_7log_msgERK2tmRN3fmt2v819basic_memory_bufferIcLm250ESaIcEEE
0000000000425300 W _ZN6spdlog7details11S_formatterINS0_13scoped_padderEED0Ev
0000000000424b50 W _ZN6spdlog7details11S_formatterINS0_13scoped_padderEED1Ev
0000000000424b50 W _ZN6spdlog7details11S_formatterINS0_13scoped_padderEED2Ev
00000000004319a0 W _ZN6spdlog7details11S_formatterINS0_18null_scoped_padderEE6formatERKNS0_7log_msgERK2tmRN3fmt2v819basic_memory_bufferIcLm250ESaIcEEE
00000000004250a0 W _ZN6spdlog7details11S_formatterINS0_18null_scoped_padderEED0Ev
0000000000424de0 W _ZN6spdlog7details11S_formatterINS0_18null_scoped_padderEED1Ev
0000000000424de0 W _ZN6spdlog7details11S_formatterINS0_18null_scoped_padderEED2Ev
0000000000433a20 W _ZN6spdlog7details11T_formatterINS0_13scoped_padderEE6formatERKNS0_7log_msgERK2tmRN3fmt2v819basic_memory_bufferIcLm250ESaIcEEE
0000000000425280 W _ZN6spdlog7details11T_formatterINS0_13scoped_padderEED0Ev
0000000000424bd0 W _ZN6spdlog7details11T_formatterINS0_13scoped_padderEED1Ev
0000000000424bd0 W _ZN6spdlog7details11T_formatterINS0_13scoped_padderEED2Ev
0000000000434030 W _ZN6spdlog7details11T_formatterINS0_18null_scoped_padderEE6formatERKNS0_7log_msgERK2tmRN3fmt2v819basic_memory_bufferIcLm250ESaIcEEE
0000000000425020 W _ZN6spdlog7details11T_formatterINS0_18null_scoped_padderEED0Ev
0000000000424e60 W _ZN6spdlog7details11T_formatterINS0_18null_scoped_padderEED1Ev
0000000000424e60 W _ZN6spdlog7details11T_formatterINS0_18null_scoped_padderEED2Ev
00000000004292d0 W _ZN6spdlog7details11Y_formatterINS0_13scoped_padderEE6formatERKNS0_7log_msgERK2tmRN3fmt2v819basic_memory_bufferIcLm250ESaIcEEE
0000000000425370 W _ZN6spdlog7details11Y_formatterINS0_13scoped_padderEED0Ev
0000000000424ae0 W _ZN6spdlog7details11Y_formatterINS0_13scoped_padderEED1Ev
0000000000424ae0 W _ZN6spdlog7details11Y_formatterINS0_13scoped_padderEED2Ev
00000000004266b0 W _ZN6spdlog7details11Y_formatterINS0_18null_scoped_padderEE6formatERKNS0_7log_msgERK2tmRN3fmt2v819basic_memory_bufferIcLm250ESaIcEEE
0000000000425110 W _ZN6spdlog7details11Y_formatterINS0_18null_scoped_padderEED0Ev
0000000000424d70 W _ZN6spdlog7details11Y_formatterINS0_18null_scoped_padderEED1Ev
0000000000424d70 W _ZN6spdlog7details11Y_formatterINS0_18null_scoped_padderEED2Ev
0000000000428120 W _ZN6spdlog7details11a_formatterINS0_13scoped_padderEE6formatERKNS0_7log_msgERK2tmRN3fmt2v819basic_memory_bufferIcLm250ESaIcEEE
00000000004253d0 W _ZN6spdlog7details11a_formatterINS0_13scoped_padderEED0Ev
0000000000424a80 W _ZN6spdlog7details11a_formatterINS0_13scoped_padderEED1Ev
0000000000424a80 W _ZN6spdlog7details11a_formatterINS0_13scoped_padderEED2Ev
00000000004261a0 W _ZN6spdlog7details11a_formatterINS0_18null_scoped_padderEE6formatERKNS0_7log_msgERK2tmRN3fmt2v819basic_memory_bufferIcLm250ESaIcEEE
0000000000425170 W _ZN6spdlog7details11a_formatterINS0_18null_scoped_padderEED0Ev
0000000000424d10 W _ZN6spdlog7details11a_formatterINS0_18null_scoped_padderEED1Ev
0000000000424d10 W _ZN6spdlog7details11a_formatterINS0_18null_scoped_padderEED2Ev
0000000000428460 W _ZN6spdlog7details11b_formatterINS0_13scoped_padderEE6formatERKNS0_7log_msgERK2tmRN3fmt2v819basic_memory_bufferIcLm250ESaIcEEE
00000000004253b0 W _ZN6spdlog7details11b_formatterINS0_13scoped_padderEED0Ev
0000000000424aa0 W _ZN6spdlog7details11b_formatterINS0_13scoped_padderEED1Ev
0000000000424aa0 W _ZN6spdlog7details11b_formatterINS0_13scoped_padderEED2Ev
0000000000426120 W _ZN6spdlog7details11b_formatterINS0_18null_scoped_padderEE6formatERKNS0_7log_msgERK2tmRN3fmt2v819basic_memory_bufferIcLm250ESaIcEEE
0000000000425150 W _ZN6spdlog7details11b_formatterINS0_18null_scoped_padderEED0Ev
0000000000424d30 W _ZN6spdlog7details11b_formatterINS0_18null_scoped_padderEED1Ev
0000000000424d30 W _ZN6spdlog7details11b_formatterINS0_18null_scoped_padderEED2Ev
00000000004315c0 W _ZN6spdlog7details11c_formatterINS0_13scoped_padderEE6formatERKNS0_7log_msgERK2tmRN3fmt2v819basic_memory_bufferIcLm250ESaIcEEE
0000000000425390 W _ZN6spdlog7details11c_formatterINS0_13scoped_padderEED0Ev
0000000000424ac0 W _ZN6spdlog7details11c_formatterINS0_13scoped_padderEED1Ev
0000000000424ac0 W _ZN6spdlog7details11c_formatterINS0_13scoped_padderEED2Ev
00000000004312c0 W _ZN6spdlog7details11c_formatterINS0_18null_scoped_padderEE6formatERKNS0_7log_msgERK2tmRN3fmt2v819basic_memory_bufferIcLm250ESaIcEEE
0000000000425130 W _ZN6spdlog7details11c_formatterINS0_18null_scoped_padderEED0Ev
0000000000424d50 W _ZN6spdlog7details11c_formatterINS0_18null_scoped_padderEED1Ev
0000000000424d50 W _ZN6spdlog7details11c_formatterINS0_18null_scoped_padderEED2Ev
0000000000432250 W _ZN6spdlog7details11d_formatterINS0_13scoped_padderEE6formatERKNS0_7log_msgERK2tmRN3fmt2v819basic_memory_bufferIcLm250ESaIcEEE
0000000000425340 W _ZN6spdlog7details11d_formatterINS0_13scoped_padderEED0Ev
0000000000424b10 W _ZN6spdlog7details11d_formatterINS0_13scoped_padderEED1Ev
0000000000424b10 W _ZN6spdlog7details11d_formatterINS0_13scoped_padderEED2Ev
0000000000431d40 W _ZN6spdlog7details11d_formatterINS0_18null_scoped_padderEE6formatERKNS0_7log_msgERK2tmRN3fmt2v819basic_memory_bufferIcLm250ESaIcEEE
00000000004250e0 W _ZN6spdlog7details11d_formatterINS0_18null_scoped_padderEED0Ev
0000000000424da0 W _ZN6spdlog7details11d_formatterINS0_18null_scoped_padderEED1Ev
0000000000424da0 W _ZN6spdlog7details11d_formatterINS0_18null_scoped_padderEED2Ev
000000000042b9e0 W _ZN6spdlog7details11e_formatterINS0_13scoped_padderEE6formatERKNS0_7log_msgERK2tmRN3fmt2v819basic_memory_bufferIcLm250ESaIcEEE
00000000004252f0 W _ZN6spdlog7details11e_formatterINS0_13scoped_padderEED0Ev
0000000000424b60 W _ZN6spdlog7details11e_formatterINS0_13scoped_padderEED1Ev
0000000000424b60 W _ZN6spdlog7details11e_formatterINS0_13scoped_padderEED2Ev
000000000042a480 W _ZN6spdlog7details11e_formatterINS0_18null_scoped_padderEE6formatERKNS0_7log_msgERK2tmRN3fmt2v819basic_memory_bufferIcLm250ESaIcEEE
0000000000425090 W _ZN6spdlog7details11e_formatterINS0_18null_scoped_padderEED0Ev
0000000000424df0 W _ZN6spdlog7details11e_formatterINS0_18null_scoped_padderEED1Ev
0000000000424df0 W _ZN6spdlog7details11e_formatterINS0_18null_scoped_padderEED2Ev
000000000042a690 W _ZN6spdlog7details11f_formatterINS0_13scoped_padderEE6formatERKNS0_7log_msgERK2tmRN3fmt2v819basic_memory_bufferIcLm250ESaIcEEE
00000000004252e0 W _ZN6spdlog7details11f_formatterINS0_13scoped_padderEED0Ev
0000000000424b70 W _ZN6spdlog7details11f_formatterINS0_13scoped_padderEED1Ev
0000000000424b70 W _ZN6spdlog7details11f_formatterINS0_13scoped_padderEED2Ev
0000000000427120 W _ZN6spdlog7details11f_formatterINS0_18null_scoped_padderEE6formatERKNS0_7log_msgERK2tmRN3fmt2v819basic_memory_bufferIcLm250ESaIcEEE
0000000000425080 W _ZN6spdlog7details11f_formatterINS0_18null_scoped_padderEED0Ev
0000000000424e00 W _ZN6spdlog7details11f_formatterINS0_18null_scoped_padderEED1Ev
0000000000424e00 W _ZN6spdlog7details11f_formatterINS0_18null_scoped_padderEED2Ev
0000000000432c50 W _ZN6spdlog7details11m_formatterINS0_13scoped_padderEE6formatERKNS0_7log_msgERK2tmRN3fmt2v819basic_memory_bufferIcLm250ESaIcEEE
0000000000425350 W _ZN6spdlog7details11m_formatterINS0_13scoped_padderEED0Ev
0000000000424b00 W _ZN6spdlog7details11m_formatterINS0_13scoped_padderEED1Ev
0000000000424b00 W _ZN6spdlog7details11m_formatterINS0_13scoped_padderEED2Ev
0000000000431e70 W _ZN6spdlog7details11m_formatterINS0_18null_scoped_padderEE6formatERKNS0_7log_msgERK2tmRN3fmt2v819basic_memory_bufferIcLm250ESaIcEEE
00000000004250f0 W _ZN6spdlog7details11m_formatterINS0_18null_scoped_padderEED0Ev
0000000000424d90 W _ZN6spdlog7details11m_formatterINS0_18null_scoped_padderEED1Ev
0000000000424d90 W _ZN6spdlog7details11m_formatterINS0_18null_scoped_padderEED2Ev
000000000042bd70 W _ZN6spdlog7details11make_uniqueINS0_14full_formatterEJRNS0_12padding_infoEEEESt10unique_ptrIT_St14default_deleteIS6_EEDpOT0_
000000000042b770 W _ZN6spdlog7details11make_uniqueINS0_19aggregate_formatterEJEEESt10unique_ptrIT_St14default_deleteIS4_EEDpOT0_
0000000000436c00 W _ZN6spdlog7details11make_uniqueINS_17pattern_formatterEJEEESt10unique_ptrIT_St14default_deleteIS4_EEDpOT0_
000000000042e730 W _ZN6spdlog7details11make_uniqueINS_17pattern_formatterEJNSt7__cxx1112basic_stringIcSt11char_traitsIcESaIcEEERNS_17pattern_time_typeEEEESt10unique_ptrIT_St14default_deleteISC_EEDpOT0_
000000000042e960 W _ZN6spdlog7details11make_uniqueINS_17pattern_formatterEJRKNSt7__cxx1112basic_stringIcSt11char_traitsIcESaIcEEEEEESt10unique_ptrIT_St14default_deleteISC_EEDpOT0_
000000000042e3e0 W _ZN6spdlog7details11make_uniqueINS_17pattern_formatterEJRKNSt7__cxx1112basic_stringIcSt11char_traitsIcESaIcEEERKNS_17pattern_time_typeESA_St13unordered_mapIcSt10unique_ptrINS_21custom_flag_formatterESt14default_deleteISG_EESt4hashIcESt8equal_toIcESaISt4pairIKcSJ_EEEEEESF_IT_SH_IST_EEDpOT0_
0000000000427ca0 W _ZN6spdlog7details11p_formatterINS0_13scoped_padderEE6formatERKNS0_7log_msgERK2tmRN3fmt2v819basic_memory_bufferIcLm250ESaIcEEE
00000000004252b0 W _ZN6spdlog7details11p_formatterINS0_13scoped_padderEED0Ev
0000000000424ba0 W _ZN6spdlog7details11p_formatterINS0_13scoped_padderEED1Ev
0000000000424ba0 W _ZN6spdlog7details11p_formatterINS0_13scoped_padderEED2Ev
00000000004260b0 W _ZN6spdlog7details11p_formatterINS0_18null_scoped_padderEE6formatERKNS0_7log_msgERK2tmRN3fmt2v819basic_memory_bufferIcLm250ESaIcEEE
0000000000425050 W _ZN6spdlog7details11p_formatterINS0_18null_scoped_padderEED0Ev
0000000000424e30 W _ZN6spdlog7details11p_formatterINS0_18null_scoped_padderEED1Ev
0000000000424e30 W _ZN6spdlog7details11p_formatterINS0_18null_scoped_padderEED2Ev
00000000004345a0 W _ZN6spdlog7details11r_formatterINS0_13scoped_padderEE6formatERKNS0_7log_msgERK2tmRN3fmt2v819basic_memory_bufferIcLm250ESaIcEEE
00000000004252a0 W _ZN6spdlog7details11r_formatterINS0_13scoped_padderEED0Ev
0000000000424bb0 W _ZN6spdlog7details11r_formatterINS0_13scoped_padderEED1Ev
0000000000424bb0 W _ZN6spdlog7details11r_formatterINS0_13scoped_padderEED2Ev
00000000004333e0 W _ZN6spdlog7details11r_formatterINS0_18null_scoped_padderEE6formatERKNS0_7log_msgERK2tmRN3fmt2v819basic_memory_bufferIcLm250ESaIcEEE
0000000000425040 W _ZN6spdlog7details11r_formatterINS0_18null_scoped_padderEED0Ev
0000000000424e40 W _ZN6spdlog7details11r_formatterINS0_18null_scoped_padderEED1Ev
0000000000424e40 W _ZN6spdlog7details11r_formatterINS0_18null_scoped_padderEED2Ev
0000000000428ac0 W _ZN6spdlog7details11t_formatterINS0_13scoped_padderEE6formatERKNS0_7log_msgERK2tmRN3fmt2v819basic_memory_bufferIcLm250ESaIcEEE
00000000004253f0 W _ZN6spdlog7details11t_formatterINS0_13scoped_padderEED0Ev
0000000000424a60 W _ZN6spdlog7details11t_formatterINS0_13scoped_padderEED1Ev
0000000000424a60 W _ZN6spdlog7details11t_formatterINS0_13scoped_padderEED2Ev
0000000000426240 W _ZN6spdlog7details11t_formatterINS0_18null_scoped_padderEE6formatERKNS0_7log_msgERK2tmRN3fmt2v819basic_memory_bufferIcLm250ESaIcEEE
0000000000425190 W _ZN6spdlog7details11t_formatterINS0_18null_scoped_padderEED0Ev
0000000000424cf0 W _ZN6spdlog7details11t_formatterINS0_18null_scoped_padderEED1Ev
0000000000424cf0 W _ZN6spdlog7details11t_formatterINS0_18null_scoped_padderEED2Ev
000000000043df80 T _ZN6spdlog7details11thread_pool10post_flushEOSt10shared_ptrINS_12async_loggerEENS_21async_overflow_policyE
00000000001d5582 t _ZN6spdlog7details11thread_pool10post_flushEOSt10shared_ptrINS_12async_loggerEENS_21async_overflow_policyE.cold
000000000043d6e0 T _ZN6spdlog7details11thread_pool10queue_sizeEv
000000000043e520 T _ZN6spdlog7details11thread_pool12worker_loop_Ev
000000000043d6a0 T _ZN6spdlog7details11thread_pool15overrun_counterEv
000000000043d740 T _ZN6spdlog7details11thread_pool15post_async_msg_EONS0_9async_msgENS_21async_overflow_policyE
000000000043e120 T _ZN6spdlog7details11thread_pool17process_next_msg_Ev
00000000001d5592 t _ZN6spdlog7details11thread_pool17process_next_msg_Ev.cold
000000000043de40 T _ZN6spdlog7details11thread_pool8post_logEOSt10shared_ptrINS_12async_loggerEERKNS0_7log_msgENS_21async_overflow_policyE
00000000001d5572 t _ZN6spdlog7details11thread_pool8post_logEOSt10shared_ptrINS_12async_loggerEERKNS0_7log_msgENS_21async_overflow_policyE.cold
000000000043d610 T _ZN6spdlog7details11thread_poolC1Emm
000000000043d0b0 T _ZN6spdlog7details11thread_poolC1EmmSt8functionIFvvEE
000000000043d610 T _ZN6spdlog7details11thread_poolC2Emm
00000000001d551c t _ZN6spdlog7details11thread_poolC2Emm.cold
000000000043d0b0 T _ZN6spdlog7details11thread_poolC2EmmSt8functionIFvvEE
00000000001d5410 t _ZN6spdlog7details11thread_poolC2EmmSt8functionIFvvEE.cold
000000000043da80 T _ZN6spdlog7details11thread_poolD1Ev
000000000043da80 T _ZN6spdlog7details11thread_poolD2Ev
00000000001d553c t _ZN6spdlog7details11thread_poolD2Ev.cold
0000000000427e20 W _ZN6spdlog7details11v_formatterINS0_13scoped_padderEE6formatERKNS0_7log_msgERK2tmRN3fmt2v819basic_memory_bufferIcLm250ESaIcEEE
00000000004253e0 W _ZN6spdlog7details11v_formatterINS0_13scoped_padderEED0Ev
0000000000424a70 W _ZN6spdlog7details11v_formatterINS0_13scoped_padderEED1Ev
0000000000424a70 W _ZN6spdlog7details11v_formatterINS0_13scoped_padderEED2Ev
0000000000425b50 W _ZN6spdlog7details11v_formatterINS0_18null_scoped_padderEE6formatERKNS0_7log_msgERK2tmRN3fmt2v819basic_memory_bufferIcLm250ESaIcEEE
0000000000425180 W _ZN6spdlog7details11v_formatterINS0_18null_scoped_padderEED0Ev
0000000000424d00 W _ZN6spdlog7details11v_formatterINS0_18null_scoped_padderEED1Ev
0000000000424d00 W _ZN6spdlog7details11v_formatterINS0_18null_scoped_padderEED2Ev
00000000004348f0 W _ZN6spdlog7details11z_formatterINS0_13scoped_padderEE6formatERKNS0_7log_msgERK2tmRN3fmt2v819basic_memory_bufferIcLm250ESaIcEEE
0000000000425270 W _ZN6spdlog7details11z_formatterINS0_13scoped_padderEED0Ev
0000000000424be0 W _ZN6spdlog7details11z_formatterINS0_13scoped_padderEED1Ev
0000000000424be0 W _ZN6spdlog7details11z_formatterINS0_13scoped_padderEED2Ev
0000000000433600 W _ZN6spdlog7details11z_formatterINS0_18null_scoped_padderEE6formatERKNS0_7log_msgERK2tmRN3fmt2v819basic_memory_bufferIcLm250ESaIcEEE
0000000000425010 W _ZN6spdlog7details11z_formatterINS0_18null_scoped_padderEED0Ev
0000000000424e70 W _ZN6spdlog7details11z_formatterINS0_18null_scoped_padderEED1Ev
0000000000424e70 W _ZN6spdlog7details11z_formatterINS0_18null_scoped_padderEED2Ev
0000000000424880 W _ZN6spdlog7details12ch_formatter6formatERKNS0_7log_msgERK2tmRN3fmt2v819basic_memory_bufferIcLm250ESaIcEEE
0000000000424f70 W _ZN6spdlog7details12ch_formatterD0Ev
0000000000424c70 W _ZN6spdlog7details12ch_formatterD1Ev
0000000000424c70 W _ZN6spdlog7details12ch_formatterD2Ev
0000000000429030 W _ZN6spdlog7details13pid_formatterINS0_13scoped_padderEE6formatERKNS0_7log_msgERK2tmRN3fmt2v819basic_memory_bufferIcLm250ESaIcEEE
0000000000425260 W _ZN6spdlog7details13pid_formatterINS0_13scoped_padderEED0Ev
0000000000424bf0 W _ZN6spdlog7details13pid_formatterINS0_13scoped_padderEED1Ev
0000000000424bf0 W _ZN6spdlog7details13pid_formatterINS0_13scoped_padderEED2Ev
0000000000427450 W _ZN6spdlog7details13pid_formatterINS0_18null_scoped_padderEE6formatERKNS0_7log_msgERK2tmRN3fmt2v819basic_memory_bufferIcLm250ESaIcEEE
0000000000425000 W _ZN6spdlog7details13pid_formatterINS0_18null_scoped_padderEED0Ev
0000000000424e80 W _ZN6spdlog7details13pid_formatterINS0_18null_scoped_padderEED1Ev
0000000000424e80 W _ZN6spdlog7details13pid_formatterINS0_18null_scoped_padderEED2Ev
0000000000427590 W _ZN6spdlog7details13scoped_padderD1Ev
0000000000427590 W _ZN6spdlog7details13scoped_padderD2Ev
0000000000430c00 W _ZN6spdlog7details14full_formatter6formatERKNS0_7log_msgERK2tmRN3fmt2v819basic_memory_bufferIcLm250ESaIcEEE
0000000000425490 W _ZN6spdlog7details14full_formatterD0Ev
0000000000425440 W _ZN6spdlog7details14full_formatterD1Ev
0000000000425440 W _ZN6spdlog7details14full_formatterD2Ev
000000000041e490 T _ZN6spdlog7details14log_msg_buffer19update_string_viewsEv
000000000041e4b0 T _ZN6spdlog7details14log_msg_bufferC1EOS1_
000000000041e690 T _ZN6spdlog7details14log_msg_bufferC1ERKNS0_7log_msgE
000000000041eaa0 T _ZN6spdlog7details14log_msg_bufferC1ERKS1_
000000000041e4b0 T _ZN6spdlog7details14log_msg_bufferC2EOS1_
000000000041e690 T _ZN6spdlog7details14log_msg_bufferC2ERKNS0_7log_msgE
00000000001d47a6 t _ZN6spdlog7details14log_msg_bufferC2ERKNS0_7log_msgE.cold
000000000041eaa0 T _ZN6spdlog7details14log_msg_bufferC2ERKS1_
00000000001d47dc t _ZN6spdlog7details14log_msg_bufferC2ERKS1_.cold
000000000041e5a0 T _ZN6spdlog7details14log_msg_bufferaSEOS1_
000000000041eda0 T _ZN6spdlog7details14log_msg_bufferaSERKS1_
0000000000427fa0 W _ZN6spdlog7details14name_formatterINS0_13scoped_padderEE6formatERKNS0_7log_msgERK2tmRN3fmt2v819basic_memory_bufferIcLm250ESaIcEEE
0000000000425420 W _ZN6spdlog7details14name_formatterINS0_13scoped_padderEED0Ev
0000000000424a30 W _ZN6spdlog7details14name_formatterINS0_13scoped_padderEED1Ev
0000000000424a30 W _ZN6spdlog7details14name_formatterINS0_13scoped_padderEED2Ev
0000000000425e90 W _ZN6spdlog7details14name_formatterINS0_18null_scoped_padderEE6formatERKNS0_7log_msgERK2tmRN3fmt2v819basic_memory_bufferIcLm250ESaIcEEE
00000000004251c0 W _ZN6spdlog7details14name_formatterINS0_18null_scoped_padderEED0Ev
0000000000424cc0 W _ZN6spdlog7details14name_formatterINS0_18null_scoped_padderEED1Ev
0000000000424cc0 W _ZN6spdlog7details14name_formatterINS0_18null_scoped_padderEED2Ev
0000000000428930 W _ZN6spdlog7details15level_formatterINS0_13scoped_padderEE6formatERKNS0_7log_msgERK2tmRN3fmt2v819basic_memory_bufferIcLm250ESaIcEEE
0000000000425410 W _ZN6spdlog7details15level_formatterINS0_13scoped_padderEED0Ev
0000000000424a40 W _ZN6spdlog7details15level_formatterINS0_13scoped_padderEED1Ev
0000000000424a40 W _ZN6spdlog7details15level_formatterINS0_13scoped_padderEED2Ev
00000000004273e0 W _ZN6spdlog7details15level_formatterINS0_18null_scoped_padderEE6formatERKNS0_7log_msgERK2tmRN3fmt2v819basic_memory_bufferIcLm250ESaIcEEE
00000000004251b0 W _ZN6spdlog7details15level_formatterINS0_18null_scoped_padderEED0Ev
0000000000424cd0 W _ZN6spdlog7details15level_formatterINS0_18null_scoped_padderEED1Ev
0000000000424cd0 W _ZN6spdlog7details15level_formatterINS0_18null_scoped_padderEED2Ev
000000000043ce70 T _ZN6spdlog7details15periodic_workerC1ERKSt8functionIFvvEENSt6chrono8durationIlSt5ratioILl1ELl1EEEE
000000000043ce70 T _ZN6spdlog7details15periodic_workerC2ERKSt8functionIFvvEENSt6chrono8durationIlSt5ratioILl1ELl1EEEE
00000000001d5388 t _ZN6spdlog7details15periodic_workerC2ERKSt8functionIFvvEENSt6chrono8durationIlSt5ratioILl1ELl1EEEE.cold
000000000043d040 T _ZN6spdlog7details15periodic_workerD1Ev
000000000043d040 T _ZN6spdlog7details15periodic_workerD2Ev
0000000000429550 W _ZN6spdlog7details17elapsed_formatterINS0_13scoped_padderENSt6chrono8durationIlSt5ratioILl1ELl1000000000EEEEE6formatERKNS0_7log_msgERK2tmRN3fmt2v819basic_memory_bufferIcLm250ESaIcEEE
0000000000425200 W _ZN6spdlog7details17elapsed_formatterINS0_13scoped_padderENSt6chrono8durationIlSt5ratioILl1ELl1000000000EEEEED0Ev
0000000000424c80 W _ZN6spdlog7details17elapsed_formatterINS0_13scoped_padderENSt6chrono8durationIlSt5ratioILl1ELl1000000000EEEEED1Ev
0000000000424c80 W _ZN6spdlog7details17elapsed_formatterINS0_13scoped_padderENSt6chrono8durationIlSt5ratioILl1ELl1000000000EEEEED2Ev
0000000000429ac0 W _ZN6spdlog7details17elapsed_formatterINS0_13scoped_padderENSt6chrono8durationIlSt5ratioILl1ELl1000000EEEEE6formatERKNS0_7log_msgERK2tmRN3fmt2v819basic_memory_bufferIcLm250ESaIcEEE
00000000004251f0 W _ZN6spdlog7details17elapsed_formatterINS0_13scoped_padderENSt6chrono8durationIlSt5ratioILl1ELl1000000EEEEED0Ev
0000000000424c90 W _ZN6spdlog7details17elapsed_formatterINS0_13scoped_padderENSt6chrono8durationIlSt5ratioILl1ELl1000000EEEEED1Ev
0000000000424c90 W _ZN6spdlog7details17elapsed_formatterINS0_13scoped_padderENSt6chrono8durationIlSt5ratioILl1ELl1000000EEEEED2Ev
00000000004297f0 W _ZN6spdlog7details17elapsed_formatterINS0_13scoped_padderENSt6chrono8durationIlSt5ratioILl1ELl1000EEEEE6formatERKNS0_7log_msgERK2tmRN3fmt2v819basic_memory_bufferIcLm250ESaIcEEE
00000000004251e0 W _ZN6spdlog7details17elapsed_formatterINS0_13scoped_padderENSt6chrono8durationIlSt5ratioILl1ELl1000EEEEED0Ev
0000000000424ca0 W _ZN6spdlog7details17elapsed_formatterINS0_13scoped_padderENSt6chrono8durationIlSt5ratioILl1ELl1000EEEEED1Ev
0000000000424ca0 W _ZN6spdlog7details17elapsed_formatterINS0_13scoped_padderENSt6chrono8durationIlSt5ratioILl1ELl1000EEEEED2Ev
0000000000429d90 W _ZN6spdlog7details17elapsed_formatterINS0_13scoped_padderENSt6chrono8durationIlSt5ratioILl1ELl1EEEEE6formatERKNS0_7log_msgERK2tmRN3fmt2v819basic_memory_bufferIcLm250ESaIcEEE
00000000004251d0 W _ZN6spdlog7details17elapsed_formatterINS0_13scoped_padderENSt6chrono8durationIlSt5ratioILl1ELl1EEEEED0Ev
0000000000424cb0 W _ZN6spdlog7details17elapsed_formatterINS0_13scoped_padderENSt6chrono8durationIlSt5ratioILl1ELl1EEEEED1Ev
0000000000424cb0 W _ZN6spdlog7details17elapsed_formatterINS0_13scoped_padderENSt6chrono8durationIlSt5ratioILl1ELl1EEEEED2Ev
0000000000426540 W _ZN6spdlog7details17elapsed_formatterINS0_18null_scoped_padderENSt6chrono8durationIlSt5ratioILl1ELl1000000000EEEEE6formatERKNS0_7log_msgERK2tmRN3fmt2v819basic_memory_bufferIcLm250ESaIcEEE
0000000000424fb0 W _ZN6spdlog7details17elapsed_formatterINS0_18null_scoped_padderENSt6chrono8durationIlSt5ratioILl1ELl1000000000EEEEED0Ev
0000000000424ee0 W _ZN6spdlog7details17elapsed_formatterINS0_18null_scoped_padderENSt6chrono8durationIlSt5ratioILl1ELl1000000000EEEEED1Ev
0000000000424ee0 W _ZN6spdlog7details17elapsed_formatterINS0_18null_scoped_padderENSt6chrono8durationIlSt5ratioILl1ELl1000000000EEEEED2Ev
0000000000426810 W _ZN6spdlog7details17elapsed_formatterINS0_18null_scoped_padderENSt6chrono8durationIlSt5ratioILl1ELl1000000EEEEE6formatERKNS0_7log_msgERK2tmRN3fmt2v819basic_memory_bufferIcLm250ESaIcEEE
0000000000424fa0 W _ZN6spdlog7details17elapsed_formatterINS0_18null_scoped_padderENSt6chrono8durationIlSt5ratioILl1ELl1000000EEEEED0Ev
0000000000424ef0 W _ZN6spdlog7details17elapsed_formatterINS0_18null_scoped_padderENSt6chrono8durationIlSt5ratioILl1ELl1000000EEEEED1Ev
0000000000424ef0 W _ZN6spdlog7details17elapsed_formatterINS0_18null_scoped_padderENSt6chrono8durationIlSt5ratioILl1ELl1000000EEEEED2Ev
00000000004269b0 W _ZN6spdlog7details17elapsed_formatterINS0_18null_scoped_padderENSt6chrono8durationIlSt5ratioILl1ELl1000EEEEE6formatERKNS0_7log_msgERK2tmRN3fmt2v819basic_memory_bufferIcLm250ESaIcEEE
0000000000424f90 W _ZN6spdlog7details17elapsed_formatterINS0_18null_scoped_padderENSt6chrono8durationIlSt5ratioILl1ELl1000EEEEED0Ev
0000000000424f00 W _ZN6spdlog7details17elapsed_formatterINS0_18null_scoped_padderENSt6chrono8durationIlSt5ratioILl1ELl1000EEEEED1Ev
0000000000424f00 W _ZN6spdlog7details17elapsed_formatterINS0_18null_scoped_padderENSt6chrono8durationIlSt5ratioILl1ELl1000EEEEED2Ev
0000000000426b50 W _ZN6spdlog7details17elapsed_formatterINS0_18null_scoped_padderENSt6chrono8durationIlSt5ratioILl1ELl1EEEEE6formatERKNS0_7log_msgERK2tmRN3fmt2v819basic_memory_bufferIcLm250ESaIcEEE
0000000000424f80 W _ZN6spdlog7details17elapsed_formatterINS0_18null_scoped_padderENSt6chrono8durationIlSt5ratioILl1ELl1EEEEED0Ev
0000000000424f10 W _ZN6spdlog7details17elapsed_formatterINS0_18null_scoped_padderENSt6chrono8durationIlSt5ratioILl1ELl1EEEEED1Ev
0000000000424f10 W _ZN6spdlog7details17elapsed_formatterINS0_18null_scoped_padderENSt6chrono8durationIlSt5ratioILl1ELl1EEEEED2Ev
0000000000425cf0 W _ZN6spdlog7details19aggregate_formatter6formatERKNS0_7log_msgERK2tmRN3fmt2v819basic_memory_bufferIcLm250ESaIcEEE
0000000000425510 W _ZN6spdlog7details19aggregate_formatterD0Ev
00000000004254d0 W _ZN6spdlog7details19aggregate_formatterD1Ev
00000000004254d0 W _ZN6spdlog7details19aggregate_formatterD2Ev
000000000043fcc0 W _ZN6spdlog7details19mpmc_blocking_queueINS0_9async_msgEE11dequeue_forERS2_NSt6chrono8durationIlSt5ratioILl1ELl1000EEEE
000000000043fb60 W _ZN6spdlog7details19mpmc_blocking_queueINS0_9async_msgEE14enqueue_nowaitEOS2_
000000000043fed0 W _ZN6spdlog7details19mpmc_blocking_queueINS0_9async_msgEE15overrun_counterEv
000000000043ff10 W _ZN6spdlog7details19mpmc_blocking_queueINS0_9async_msgEE4sizeEv
000000000043f970 W _ZN6spdlog7details19mpmc_blocking_queueINS0_9async_msgEE7enqueueEOS2_
000000000043f7e0 W _ZN6spdlog7details19mpmc_blocking_queueINS0_9async_msgEEC1Em
000000000043f7e0 W _ZN6spdlog7details19mpmc_blocking_queueINS0_9async_msgEEC2Em
000000000043f6a0 W _ZN6spdlog7details19mpmc_blocking_queueINS0_9async_msgEED1Ev
000000000043f6a0 W _ZN6spdlog7details19mpmc_blocking_queueINS0_9async_msgEED2Ev
00000000004248e0 W _ZN6spdlog7details20color_stop_formatter6formatERKNS0_7log_msgERK2tmRN3fmt2v819basic_memory_bufferIcLm250ESaIcEEE
0000000000424f50 W _ZN6spdlog7details20color_stop_formatterD0Ev
0000000000424c10 W _ZN6spdlog7details20color_stop_formatterD1Ev
0000000000424c10 W _ZN6spdlog7details20color_stop_formatterD2Ev
00000000004248d0 W _ZN6spdlog7details21color_start_formatter6formatERKNS0_7log_msgERK2tmRN3fmt2v819basic_memory_bufferIcLm250ESaIcEEE
0000000000424f60 W _ZN6spdlog7details21color_start_formatterD0Ev
0000000000424c00 W _ZN6spdlog7details21color_start_formatterD1Ev
0000000000424c00 W _ZN6spdlog7details21color_start_formatterD2Ev
00000000004287a0 W _ZN6spdlog7details21short_level_formatterINS0_13scoped_padderEE6formatERKNS0_7log_msgERK2tmRN3fmt2v819basic_memory_bufferIcLm250ESaIcEEE
0000000000425400 W _ZN6spdlog7details21short_level_formatterINS0_13scoped_padderEED0Ev
0000000000424a50 W _ZN6spdlog7details21short_level_formatterINS0_13scoped_padderEED1Ev
0000000000424a50 W _ZN6spdlog7details21short_level_formatterINS0_13scoped_padderEED2Ev
0000000000427410 W _ZN6spdlog7details21short_level_formatterINS0_18null_scoped_padderEE6formatERKNS0_7log_msgERK2tmRN3fmt2v819basic_memory_bufferIcLm250ESaIcEEE
00000000004251a0 W _ZN6spdlog7details21short_level_formatterINS0_18null_scoped_padderEED0Ev
0000000000424ce0 W _ZN6spdlog7details21short_level_formatterINS0_18null_scoped_padderEED1Ev
0000000000424ce0 W _ZN6spdlog7details21short_level_formatterINS0_18null_scoped_padderEED2Ev
000000000042ade0 W _ZN6spdlog7details24short_filename_formatterINS0_13scoped_padderEE6formatERKNS0_7log_msgERK2tmRN3fmt2v819basic_memory_bufferIcLm250ESaIcEEE
0000000000425240 W _ZN6spdlog7details24short_filename_formatterINS0_13scoped_padderEED0Ev
0000000000424c30 W _ZN6spdlog7details24short_filename_formatterINS0_13scoped_padderEED1Ev
0000000000424c30 W _ZN6spdlog7details24short_filename_formatterINS0_13scoped_padderEED2Ev
00000000004261e0 W _ZN6spdlog7details24short_filename_formatterINS0_18null_scoped_padderEE6formatERKNS0_7log_msgERK2tmRN3fmt2v819basic_memory_bufferIcLm250ESaIcEEE
0000000000425430 W _ZN6spdlog7details24short_filename_formatterINS0_18null_scoped_padderEED0Ev
0000000000424ea0 W _ZN6spdlog7details24short_filename_formatterINS0_18null_scoped_padderEED1Ev
0000000000424ea0 W _ZN6spdlog7details24short_filename_formatterINS0_18null_scoped_padderEED2Ev
000000000042af90 W _ZN6spdlog7details24source_linenum_formatterINS0_13scoped_padderEE6formatERKNS0_7log_msgERK2tmRN3fmt2v819basic_memory_bufferIcLm250ESaIcEEE
0000000000425220 W _ZN6spdlog7details24source_linenum_formatterINS0_13scoped_padderEED0Ev
0000000000424c50 W _ZN6spdlog7details24source_linenum_formatterINS0_13scoped_padderEED1Ev
0000000000424c50 W _ZN6spdlog7details24source_linenum_formatterINS0_13scoped_padderEED2Ev
0000000000426d00 W _ZN6spdlog7details24source_linenum_formatterINS0_18null_scoped_padderEE6formatERKNS0_7log_msgERK2tmRN3fmt2v819basic_memory_bufferIcLm250ESaIcEEE
0000000000424fd0 W _ZN6spdlog7details24source_linenum_formatterINS0_18null_scoped_padderEED0Ev
0000000000424ec0 W _ZN6spdlog7details24source_linenum_formatterINS0_18null_scoped_padderEED1Ev
0000000000424ec0 W _ZN6spdlog7details24source_linenum_formatterINS0_18null_scoped_padderEED2Ev
000000000042aac0 W _ZN6spdlog7details25source_filename_formatterINS0_13scoped_padderEE6formatERKNS0_7log_msgERK2tmRN3fmt2v819basic_memory_bufferIcLm250ESaIcEEE
0000000000425230 W _ZN6spdlog7details25source_filename_formatterINS0_13scoped_padderEED0Ev
0000000000424c40 W _ZN6spdlog7details25source_filename_formatterINS0_13scoped_padderEED1Ev
0000000000424c40 W _ZN6spdlog7details25source_filename_formatterINS0_13scoped_padderEED2Ev
0000000000426070 W _ZN6spdlog7details25source_filename_formatterINS0_18null_scoped_padderEE6formatERKNS0_7log_msgERK2tmRN3fmt2v819basic_memory_bufferIcLm250ESaIcEEE
0000000000424fe0 W _ZN6spdlog7details25source_filename_formatterINS0_18null_scoped_padderEED0Ev
0000000000424eb0 W _ZN6spdlog7details25source_filename_formatterINS0_18null_scoped_padderEED1Ev
0000000000424eb0 W _ZN6spdlog7details25source_filename_formatterINS0_18null_scoped_padderEED2Ev
000000000042ac50 W _ZN6spdlog7details25source_funcname_formatterINS0_13scoped_padderEE6formatERKNS0_7log_msgERK2tmRN3fmt2v819basic_memory_bufferIcLm250ESaIcEEE
0000000000425210 W _ZN6spdlog7details25source_funcname_formatterINS0_13scoped_padderEED0Ev
0000000000424c60 W _ZN6spdlog7details25source_funcname_formatterINS0_13scoped_padderEED1Ev
0000000000424c60 W _ZN6spdlog7details25source_funcname_formatterINS0_13scoped_padderEED2Ev
0000000000426030 W _ZN6spdlog7details25source_funcname_formatterINS0_18null_scoped_padderEE6formatERKNS0_7log_msgERK2tmRN3fmt2v819basic_memory_bufferIcLm250ESaIcEEE
0000000000424fc0 W _ZN6spdlog7details25source_funcname_formatterINS0_18null_scoped_padderEED0Ev
0000000000424ed0 W _ZN6spdlog7details25source_funcname_formatterINS0_18null_scoped_padderEED1Ev
0000000000424ed0 W _ZN6spdlog7details25source_funcname_formatterINS0_18null_scoped_padderEED2Ev
000000000042b1b0 W _ZN6spdlog7details25source_location_formatterINS0_13scoped_padderEE6formatERKNS0_7log_msgERK2tmRN3fmt2v819basic_memory_bufferIcLm250ESaIcEEE
0000000000425250 W _ZN6spdlog7details25source_location_formatterINS0_13scoped_padderEED0Ev
0000000000424c20 W _ZN6spdlog7details25source_location_formatterINS0_13scoped_padderEED1Ev
0000000000424c20 W _ZN6spdlog7details25source_location_formatterINS0_13scoped_padderEED2Ev
0000000000427b70 W _ZN6spdlog7details25source_location_formatterINS0_18null_scoped_padderEE6formatERKNS0_7log_msgERK2tmRN3fmt2v819basic_memory_bufferIcLm250ESaIcEEE
0000000000424ff0 W _ZN6spdlog7details25source_location_formatterINS0_18null_scoped_padderEED0Ev
0000000000424e90 W _ZN6spdlog7details25source_location_formatterINS0_18null_scoped_padderEED1Ev
0000000000424e90 W _ZN6spdlog7details25source_location_formatterINS0_18null_scoped_padderEED2Ev
000000000041d7b0 T _ZN6spdlog7details2os10_thread_idEv
000000000041dc80 T _ZN6spdlog7details2os10create_dirENSt7__cxx1112basic_stringIcSt11char_traitsIcESaIcEEE
000000000041dc60 T _ZN6spdlog7details2os11in_terminalEP8_IO_FILE
000000000041d640 T _ZN6spdlog7details2os11path_existsERKNSt7__cxx1112basic_stringIcSt11char_traitsIcESaIcEEE
000000000041d8b0 T _ZN6spdlog7details2os15filename_to_strERKNSt7__cxx1112basic_stringIcSt11char_traitsIcESaIcEEE
000000000041d690 T _ZN6spdlog7details2os16remove_if_existsERKNSt7__cxx1112basic_stringIcSt11char_traitsIcESaIcEEE
000000000041d810 T _ZN6spdlog7details2os16sleep_for_millisEj
000000000041d9a0 T _ZN6spdlog7details2os17is_color_terminalEv
000000000041d780 T _ZN6spdlog7details2os18utc_minutes_offsetERK2tm
000000000041d4e0 T _ZN6spdlog7details2os3nowEv
000000000041d990 T _ZN6spdlog7details2os3pidEv
000000000041dfc0 T _ZN6spdlog7details2os6getenvB5cxx11EPKc
000000000041d570 T _ZN6spdlog7details2os6gmtimeERKl
000000000041d590 T _ZN6spdlog7details2os6gmtimeEv
000000000041d620 T _ZN6spdlog7details2os6removeERKNSt7__cxx1112basic_stringIcSt11char_traitsIcESaIcEEE
000000000041d630 T _ZN6spdlog7details2os6renameERKNSt7__cxx1112basic_stringIcSt11char_traitsIcESaIcEEES9_
000000000041d5f0 T _ZN6spdlog7details2os7fopen_sEPP8_IO_FILERKNSt7__cxx1112basic_stringIcSt11char_traitsIcESaIcEEESC_
000000000041de90 T _ZN6spdlog7details2os8dir_nameENSt7__cxx1112basic_stringIcSt11char_traitsIcESaIcEEE
000000000041d6c0 T _ZN6spdlog7details2os8filesizeEP8_IO_FILE
00000000001d476f t _ZN6spdlog7details2os8filesizeEP8_IO_FILE.cold
000000000041d4f0 T _ZN6spdlog7details2os9localtimeERKl
000000000041d510 T _ZN6spdlog7details2os9localtimeEv
000000000041d7c0 T _ZN6spdlog7details2os9thread_idEv
0000000000481479 r _ZN6spdlog7details2osL20folder_seps_filenameE
000000000041e410 T _ZN6spdlog7details7log_msgC1EN3fmt2v817basic_string_viewIcEENS_5level10level_enumES5_
000000000041e3b0 T _ZN6spdlog7details7log_msgC1ENS_10source_locEN3fmt2v817basic_string_viewIcEENS_5level10level_enumES6_
000000000041e360 T _ZN6spdlog7details7log_msgC1ENSt6chrono10time_pointINS2_3_V212system_clockENS2_8durationIlSt5ratioILl1ELl1000000000EEEEEENS_10source_locEN3fmt2v817basic_string_viewIcEENS_5level10level_enumESF_
000000000041e410 T _ZN6spdlog7details7log_msgC2EN3fmt2v817basic_string_viewIcEENS_5level10level_enumES5_
000000000041e3b0 T _ZN6spdlog7details7log_msgC2ENS_10source_locEN3fmt2v817basic_string_viewIcEENS_5level10level_enumES6_
000000000041e360 T _ZN6spdlog7details7log_msgC2ENSt6chrono10time_pointINS2_3_V212system_clockENS2_8durationIlSt5ratioILl1ELl1000000000EEEEEENS_10source_locEN3fmt2v817basic_string_viewIcEENS_5level10level_enumESF_
0000000000420a00 T _ZN6spdlog7details8registry10set_levelsESt13unordered_mapINSt7__cxx1112basic_stringIcSt11char_traitsIcESaIcEEENS_5level10level_enumESt4hashIS8_ESt8equal_toIS8_ESaISt4pairIKS8_SA_EEEPSA_
00000000001d4cbe t _ZN6spdlog7details8registry10set_levelsESt13unordered_mapINSt7__cxx1112basic_stringIcSt11char_traitsIcESaIcEEENS_5level10level_enumESt4hashIS8_ESt8equal_toIS8_ESaISt4pairIKS8_SA_EEEPSA_.cold
000000000041ceb0 T _ZN6spdlog7details8registry11flush_everyENSt6chrono8durationIlSt5ratioILl1ELl1EEEE
00000000001d4702 t _ZN6spdlog7details8registry11flush_everyENSt6chrono8durationIlSt5ratioILl1ELl1EEEE.cold
000000000041f1d0 T _ZN6spdlog7details8registry13set_formatterESt10unique_ptrINS_9formatterESt14default_deleteIS3_EE
00000000001d4840 t _ZN6spdlog7details8registry13set_formatterESt10unique_ptrINS_9formatterESt14default_deleteIS3_EE.cold
000000000041cce0 T _ZN6spdlog7details8registry14default_loggerEv
000000000041cd50 T _ZN6spdlog7details8registry15get_default_rawEv
0000000000422570 T _ZN6spdlog7details8registry15register_loggerESt10shared_ptrINS_6loggerEE
00000000001d5032 t _ZN6spdlog7details8registry15register_loggerESt10shared_ptrINS_6loggerEE.cold
000000000041f2d0 T _ZN6spdlog7details8registry16enable_backtraceEm
00000000001d4860 t _ZN6spdlog7details8registry16enable_backtraceEm.cold
0000000000422380 T _ZN6spdlog7details8registry16register_logger_ESt10shared_ptrINS_6loggerEE
00000000001d501a t _ZN6spdlog7details8registry16register_logger_ESt10shared_ptrINS_6loggerEE.cold
000000000041d2f0 T _ZN6spdlog7details8registry16throw_if_exists_ERKNSt7__cxx1112basic_stringIcSt11char_traitsIcESaIcEEE
00000000001d4734 t _ZN6spdlog7details8registry16throw_if_exists_ERKNSt7__cxx1112basic_stringIcSt11char_traitsIcESaIcEEE.cold
000000000041f350 T _ZN6spdlog7details8registry17disable_backtraceEv
00000000001d4870 t _ZN6spdlog7details8registry17disable_backtraceEv.cold
0000000000422760 T _ZN6spdlog7details8registry17initialize_loggerESt10shared_ptrINS_6loggerEE
00000000001d5068 t _ZN6spdlog7details8registry17initialize_loggerESt10shared_ptrINS_6loggerEE.cold
000000000041f570 T _ZN6spdlog7details8registry17set_error_handlerESt8functionIFvRKNSt7__cxx1112basic_stringIcSt11char_traitsIcESaIcEEEEE
00000000001d48a0 t _ZN6spdlog7details8registry17set_error_handlerESt8functionIFvRKNSt7__cxx1112basic_stringIcSt11char_traitsIcESaIcEEEEE.cold
0000000000422120 T _ZN6spdlog7details8registry18set_default_loggerESt10shared_ptrINS_6loggerEE
00000000001d4ff2 t _ZN6spdlog7details8registry18set_default_loggerESt10shared_ptrINS_6loggerEE.cold
000000000041d2b0 T _ZN6spdlog7details8registry26set_automatic_registrationEb
000000000041cbd0 T _ZN6spdlog7details8registry3getERKNSt7__cxx1112basic_stringIcSt11char_traitsIcESaIcEEE
0000000000420960 T _ZN6spdlog7details8registry4dropERKNSt7__cxx1112basic_stringIcSt11char_traitsIcESaIcEEE
00000000001d4cae t _ZN6spdlog7details8registry4dropERKNSt7__cxx1112basic_stringIcSt11char_traitsIcESaIcEEE.cold
000000000041ce30 T _ZN6spdlog7details8registry6get_tpEv
000000000041cd60 T _ZN6spdlog7details8registry6set_tpESt10shared_ptrINS0_11thread_poolEE
000000000041cfc0 T _ZN6spdlog7details8registry8drop_allEv
000000000041f430 T _ZN6spdlog7details8registry8flush_onENS_5level10level_enumE
00000000001d4890 t _ZN6spdlog7details8registry8flush_onENS_5level10level_enumE.cold
0000000000421ad0 T _ZN6spdlog7details8registry8instanceEv
00000000001d4f60 t _ZN6spdlog7details8registry8instanceEv.cold
000000000041d190 T _ZN6spdlog7details8registry8shutdownEv
000000000041d2a0 T _ZN6spdlog7details8registry8tp_mutexEv
00000000004203b0 T _ZN6spdlog7details8registry9apply_allERKSt8functionIFvSt10shared_ptrINS_6loggerEEEE
00000000001d4c8e t _ZN6spdlog7details8registry9apply_allERKSt8functionIFvSt10shared_ptrINS_6loggerEEEE.cold
000000000041f3c0 T _ZN6spdlog7details8registry9flush_allEv
00000000001d4880 t _ZN6spdlog7details8registry9flush_allEv.cold
000000000041f040 T _ZN6spdlog7details8registry9set_levelENS_5level10level_enumE
00000000001d4802 t _ZN6spdlog7details8registry9set_levelENS_5level10level_enumE.cold
00000000004215c0 T _ZN6spdlog7details8registryC1Ev
00000000004215c0 T _ZN6spdlog7details8registryC2Ev
00000000001d4da2 t _ZN6spdlog7details8registryC2Ev.cold
00000000004206a0 T _ZN6spdlog7details8registryD1Ev
00000000004206a0 T _ZN6spdlog7details8registryD2Ev
000000000043f5e0 W _ZN6spdlog7details9async_msgD1Ev
000000000043f5e0 W _ZN6spdlog7details9async_msgD2Ev
00000000004e53e0 d _ZN6spdlog7detailsL11full_monthsE
00000000004e54e0 d _ZN6spdlog7detailsL4daysE
00000000004e5440 d _ZN6spdlog7detailsL6monthsE
00000000004e54a0 d _ZN6spdlog7detailsL9full_daysE
0000000000421ff0 T _ZN6spdlog8drop_allEv
0000000000421eb0 T _ZN6spdlog8flush_onENS_5level10level_enumE
0000000000422010 T _ZN6spdlog8shutdownEv
0000000000421fb0 T _ZN6spdlog9apply_allERKSt8functionIFvSt10shared_ptrINS_6loggerEEEE
00000000004220e0 T _ZN6spdlog9get_levelEv
0000000000421e90 T _ZN6spdlog9set_levelENS_5level10level_enumE
000000000041c440 T _ZN6spdlog9spdlog_exC1ENSt7__cxx1112basic_stringIcSt11char_traitsIcESaIcEEE
000000000041c4a0 T _ZN6spdlog9spdlog_exC1ERKNSt7__cxx1112basic_stringIcSt11char_traitsIcESaIcEEEi
000000000041c440 T _ZN6spdlog9spdlog_exC2ENSt7__cxx1112basic_stringIcSt11char_traitsIcESaIcEEE
000000000041c4a0 T _ZN6spdlog9spdlog_exC2ERKNSt7__cxx1112basic_stringIcSt11char_traitsIcESaIcEEEi
00000000001d456e t _ZN6spdlog9spdlog_exC2ERKNSt7__cxx1112basic_stringIcSt11char_traitsIcESaIcEEEi.cold
0000000000425690 W _ZN6spdlog9spdlog_exD0Ev
0000000000425610 W _ZN6spdlog9spdlog_exD1Ev
0000000000425610 W _ZN6spdlog9spdlog_exD2Ev
00000000003efeb0 W _ZN7autopas10FullSearch11addEvidenceElm
00000000003e8f60 W _ZN7autopas10FullSearch4tuneEb
00000000003dfa20 W _ZN7autopas10FullSearch5resetEm
00000000003e8a00 W _ZN7autopas10FullSearchD0Ev
00000000003e88f0 W _ZN7autopas10FullSearchD1Ev
00000000003e88f0 W _ZN7autopas10FullSearchD2Ev
00000000001f1d10 W _ZN7autopas10MoleculeLJIdE4setVEN5jlcxx8ArrayRefIdLi1EEE
00000000001f1c90 W _ZN7autopas10MoleculeLJIdE6setPosEN5jlcxx8ArrayRefIdLi1EEE
00000000001fe440 W _ZN7autopas10MoleculeLJIdED0Ev
00000000001f1df0 W _ZN7autopas10MoleculeLJIdED1Ev
00000000001f1df0 W _ZN7autopas10MoleculeLJIdED2Ev
00000000001f1ba0 W _ZN7autopas10MoleculeLJIfE4setVEN5jlcxx8ArrayRefIdLi1EEE
00000000001f1b20 W _ZN7autopas10MoleculeLJIfE6setPosEN5jlcxx8ArrayRefIdLi1EEE
00000000001fe480 W _ZN7autopas10MoleculeLJIfED0Ev
00000000001f1c80 W _ZN7autopas10MoleculeLJIfED1Ev
00000000001f1c80 W _ZN7autopas10MoleculeLJIfED2Ev
00000000002b4050 W _ZN7autopas11LinkedCellsINS_10MoleculeLJIdEEE15addParticleImplERKS2_
00000000002b1ff0 W _ZN7autopas11LinkedCellsINS_10MoleculeLJIdEEE15iteratePairwiseEPNS_18TraversalInterfaceE
00000000002d7da0 W _ZN7autopas11LinkedCellsINS_10MoleculeLJIdEEE15updateContainerEb
00000000001e3e50 t _ZN7autopas11LinkedCellsINS_10MoleculeLJIdEEE15updateContainerEb._omp_fn.0
00000000002d0250 W _ZN7autopas11LinkedCellsINS_10MoleculeLJIdEEE17getRegionIteratorERKSt5arrayIdLm3EES7_NS_7options16IteratorBehaviorE
00000000002d9b60 W _ZN7autopas11LinkedCellsINS_10MoleculeLJIdEEE18updateHaloParticleERKS2_
00000000002b3ec0 W _ZN7autopas11LinkedCellsINS_10MoleculeLJIdEEE19addHaloParticleImplERKS2_
00000000002b3ca0 W _ZN7autopas11LinkedCellsINS_10MoleculeLJIdEEE19deleteHaloParticlesEv
00000000001f6920 W _ZN7autopas11LinkedCellsINS_10MoleculeLJIdEEE20rebuildNeighborListsEPNS_18TraversalInterfaceE
00000000001f6900 W _ZN7autopas11LinkedCellsINS_10MoleculeLJIdEEE23getParticleCellTypeEnumEv
00000000002d70d0 W _ZN7autopas11LinkedCellsINS_10MoleculeLJIdEEE5beginENS_7options16IteratorBehaviorE
0000000000237230 W _ZN7autopas11LinkedCellsINS_10MoleculeLJIdEEED0Ev
0000000000236980 W _ZN7autopas11LinkedCellsINS_10MoleculeLJIdEEED1Ev
0000000000236980 W _ZN7autopas11LinkedCellsINS_10MoleculeLJIdEEED2Ev
0000000000218b40 W _ZN7autopas11VerletListsINS_10MoleculeLJIdEEE15iteratePairwiseEPNS_18TraversalInterfaceE
00000000002edcb0 W _ZN7autopas11VerletListsINS_10MoleculeLJIdEEE20rebuildNeighborListsEPNS_18TraversalInterfaceE
00000000002f2e90 W _ZN7autopas11VerletListsINS_10MoleculeLJIdEEE20updateVerletListsAoSEb
00000000002ed4d0 W _ZN7autopas11VerletListsINS_10MoleculeLJIdEEE33generateSoAListFromAoSVerletListsEv
00000000002457f0 W _ZN7autopas11VerletListsINS_10MoleculeLJIdEEED0Ev
00000000002455b0 W _ZN7autopas11VerletListsINS_10MoleculeLJIdEEED1Ev
00000000002455b0 W _ZN7autopas11VerletListsINS_10MoleculeLJIdEEED2Ev
0000000000270f10 W _ZN7autopas12LogicHandlerINS_10MoleculeLJIdEEE11addParticleERKS2_
000000000028db60 W _ZN7autopas12LogicHandlerINS_10MoleculeLJIdEEE15updateContainerEv
00000000001fe4d0 W _ZN7autopas12ParticleBaseIdlED0Ev
00000000001f1e10 W _ZN7autopas12ParticleBaseIdlED1Ev
00000000001f1e10 W _ZN7autopas12ParticleBaseIdlED2Ev
00000000001fe4c0 W _ZN7autopas12ParticleBaseIfiED0Ev
00000000001f1e00 W _ZN7autopas12ParticleBaseIfiED1Ev
00000000001f1e00 W _ZN7autopas12ParticleBaseIfiED2Ev
00000000003efd90 W _ZN7autopas12RandomSearch11addEvidenceElm
00000000003ec750 W _ZN7autopas12RandomSearch14removeN3OptionENS_7options13Newton3OptionE
0000000000402130 W _ZN7autopas12RandomSearch26selectOptimalConfigurationEv
00000000004029b0 W _ZN7autopas12RandomSearch4tuneEb
00000000003e8800 W _ZN7autopas12RandomSearch5resetEm
00000000003e8b10 W _ZN7autopas12RandomSearchD0Ev
00000000003e8ce0 W _ZN7autopas12RandomSearchD1Ev
00000000003e8ce0 W _ZN7autopas12RandomSearchD2Ev
00000000003fa2f0 W _ZN7autopas14BayesianSearch11addEvidenceElm
00000000003fa520 W _ZN7autopas14BayesianSearch14removeN3OptionENS_7options13Newton3OptionE
00000000003fec60 W _ZN7autopas14BayesianSearch18sampleAcquisitionsEmNS_7options25AcquisitionFunctionOptionE
00000000003ff080 W _ZN7autopas14BayesianSearch4tuneEb
00000000003fa3e0 W _ZN7autopas14BayesianSearch5resetEm
00000000003ff9a0 W _ZN7autopas14BayesianSearchC1ERKSt3setINS_7options15ContainerOptionESt4lessIS3_ESaIS3_EERKNS_9NumberSetIdEERKS1_INS2_15TraversalOptionES4_ISE_ESaISE_EERKS1_INS_19LoadEstimatorOptionES4_ISK_ESaISK_EERKS1_INS2_16DataLayoutOptionES4_ISQ_ESaISQ_EERKS1_INS2_13Newton3OptionES4_ISW_ESaISW_EEmNS2_25AcquisitionFunctionOptionEmm
00000000003ff9a0 W _ZN7autopas14BayesianSearchC2ERKSt3setINS_7options15ContainerOptionESt4lessIS3_ESaIS3_EERKNS_9NumberSetIdEERKS1_INS2_15TraversalOptionES4_ISE_ESaISE_EERKS1_INS_19LoadEstimatorOptionES4_ISK_ESaISK_EERKS1_INS2_16DataLayoutOptionES4_ISQ_ESaISQ_EERKS1_INS2_13Newton3OptionES4_ISW_ESaISW_EEmNS2_25AcquisitionFunctionOptionEmm
00000000003e6ec0 W _ZN7autopas14BayesianSearchD0Ev
00000000003e6870 W _ZN7autopas14BayesianSearchD1Ev
00000000003e6870 W _ZN7autopas14BayesianSearchD2Ev
00000000002197b0 W _ZN7autopas14LCC01TraversalINS_16FullParticleCellINS_10MoleculeLJIdEEEENS_27VLCAllCellsGeneratorFunctorIS3_EELNS_7options16DataLayoutOption5ValueE0ELb0ELb0EE21traverseParticlePairsEv
0000000000248300 W _ZN7autopas14LCC01TraversalINS_16FullParticleCellINS_10MoleculeLJIdEEEENS_27VLCAllCellsGeneratorFunctorIS3_EELNS_7options16DataLayoutOption5ValueE0ELb0ELb0EED0Ev
00000000002470a0 W _ZN7autopas14LCC01TraversalINS_16FullParticleCellINS_10MoleculeLJIdEEEENS_27VLCAllCellsGeneratorFunctorIS3_EELNS_7options16DataLayoutOption5ValueE0ELb0ELb0EED1Ev
00000000002470a0 W _ZN7autopas14LCC01TraversalINS_16FullParticleCellINS_10MoleculeLJIdEEEENS_27VLCAllCellsGeneratorFunctorIS3_EELNS_7options16DataLayoutOption5ValueE0ELb0ELb0EED2Ev
00000000003c1320 W _ZN7autopas14LCC01TraversalINS_16FullParticleCellINS_10MoleculeLJIdEEEENS_27VLCAllCellsGeneratorFunctorIS3_EELNS_7options16DataLayoutOption5ValueE0ELb0ELb1EE15processBaseCellERSt6vectorIS4_SaIS4_EEmmm
0000000000337c40 W _ZN7autopas14LCC01TraversalINS_16FullParticleCellINS_10MoleculeLJIdEEEENS_27VLCAllCellsGeneratorFunctorIS3_EELNS_7options16DataLayoutOption5ValueE0ELb0ELb1EE21traverseParticlePairsEv
0000000000247dc0 W _ZN7autopas14LCC01TraversalINS_16FullParticleCellINS_10MoleculeLJIdEEEENS_27VLCAllCellsGeneratorFunctorIS3_EELNS_7options16DataLayoutOption5ValueE0ELb0ELb1EED0Ev
0000000000246770 W _ZN7autopas14LCC01TraversalINS_16FullParticleCellINS_10MoleculeLJIdEEEENS_27VLCAllCellsGeneratorFunctorIS3_EELNS_7options16DataLayoutOption5ValueE0ELb0ELb1EED1Ev
0000000000246770 W _ZN7autopas14LCC01TraversalINS_16FullParticleCellINS_10MoleculeLJIdEEEENS_27VLCAllCellsGeneratorFunctorIS3_EELNS_7options16DataLayoutOption5ValueE0ELb0ELb1EED2Ev
0000000000218f90 W _ZN7autopas14LCC01TraversalINS_16FullParticleCellINS_10MoleculeLJIdEEEENS_27VLCAllCellsGeneratorFunctorIS3_EELNS_7options16DataLayoutOption5ValueE0ELb1ELb0EE21traverseParticlePairsEv
00000000002475e0 W _ZN7autopas14LCC01TraversalINS_16FullParticleCellINS_10MoleculeLJIdEEEENS_27VLCAllCellsGeneratorFunctorIS3_EELNS_7options16DataLayoutOption5ValueE0ELb1ELb0EED0Ev
0000000000247340 W _ZN7autopas14LCC01TraversalINS_16FullParticleCellINS_10MoleculeLJIdEEEENS_27VLCAllCellsGeneratorFunctorIS3_EELNS_7options16DataLayoutOption5ValueE0ELb1ELb0EED1Ev
0000000000247340 W _ZN7autopas14LCC01TraversalINS_16FullParticleCellINS_10MoleculeLJIdEEEENS_27VLCAllCellsGeneratorFunctorIS3_EELNS_7options16DataLayoutOption5ValueE0ELb1ELb0EED2Ev
00000000003c1dc0 W _ZN7autopas14LCC01TraversalINS_16FullParticleCellINS_10MoleculeLJIdEEEENS_27VLCAllCellsGeneratorFunctorIS3_EELNS_7options16DataLayoutOption5ValueE0ELb1ELb1EE15processBaseCellERSt6vectorIS4_SaIS4_EEmmm
00000000003381a0 W _ZN7autopas14LCC01TraversalINS_16FullParticleCellINS_10MoleculeLJIdEEEENS_27VLCAllCellsGeneratorFunctorIS3_EELNS_7options16DataLayoutOption5ValueE0ELb1ELb1EE21traverseParticlePairsEv
00000000002479d0 W _ZN7autopas14LCC01TraversalINS_16FullParticleCellINS_10MoleculeLJIdEEEENS_27VLCAllCellsGeneratorFunctorIS3_EELNS_7options16DataLayoutOption5ValueE0ELb1ELb1EED0Ev
00000000002464d0 W _ZN7autopas14LCC01TraversalINS_16FullParticleCellINS_10MoleculeLJIdEEEENS_27VLCAllCellsGeneratorFunctorIS3_EELNS_7options16DataLayoutOption5ValueE0ELb1ELb1EED1Ev
00000000002464d0 W _ZN7autopas14LCC01TraversalINS_16FullParticleCellINS_10MoleculeLJIdEEEENS_27VLCAllCellsGeneratorFunctorIS3_EELNS_7options16DataLayoutOption5ValueE0ELb1ELb1EED2Ev
0000000000218e60 W _ZN7autopas14LCC01TraversalINS_16FullParticleCellINS_10MoleculeLJIdEEEENS_27VLCAllCellsGeneratorFunctorIS3_EELNS_7options16DataLayoutOption5ValueE1ELb0ELb0EE21traverseParticlePairsEv
0000000000247880 W _ZN7autopas14LCC01TraversalINS_16FullParticleCellINS_10MoleculeLJIdEEEENS_27VLCAllCellsGeneratorFunctorIS3_EELNS_7options16DataLayoutOption5ValueE1ELb0ELb0EED0Ev
00000000002468c0 W _ZN7autopas14LCC01TraversalINS_16FullParticleCellINS_10MoleculeLJIdEEEENS_27VLCAllCellsGeneratorFunctorIS3_EELNS_7options16DataLayoutOption5ValueE1ELb0ELb0EED1Ev
00000000002468c0 W _ZN7autopas14LCC01TraversalINS_16FullParticleCellINS_10MoleculeLJIdEEEENS_27VLCAllCellsGeneratorFunctorIS3_EELNS_7options16DataLayoutOption5ValueE1ELb0ELb0EED2Ev
00000000003bfe60 W _ZN7autopas14LCC01TraversalINS_16FullParticleCellINS_10MoleculeLJIdEEEENS_27VLCAllCellsGeneratorFunctorIS3_EELNS_7options16DataLayoutOption5ValueE1ELb0ELb1EE15processBaseCellERSt6vectorIS4_SaIS4_EEmmm
0000000000337ef0 W _ZN7autopas14LCC01TraversalINS_16FullParticleCellINS_10MoleculeLJIdEEEENS_27VLCAllCellsGeneratorFunctorIS3_EELNS_7options16DataLayoutOption5ValueE1ELb0ELb1EE21traverseParticlePairsEv
0000000000247f10 W _ZN7autopas14LCC01TraversalINS_16FullParticleCellINS_10MoleculeLJIdEEEENS_27VLCAllCellsGeneratorFunctorIS3_EELNS_7options16DataLayoutOption5ValueE1ELb0ELb1EED0Ev
0000000000246cb0 W _ZN7autopas14LCC01TraversalINS_16FullParticleCellINS_10MoleculeLJIdEEEENS_27VLCAllCellsGeneratorFunctorIS3_EELNS_7options16DataLayoutOption5ValueE1ELb0ELb1EED1Ev
0000000000246cb0 W _ZN7autopas14LCC01TraversalINS_16FullParticleCellINS_10MoleculeLJIdEEEENS_27VLCAllCellsGeneratorFunctorIS3_EELNS_7options16DataLayoutOption5ValueE1ELb0ELb1EED2Ev
0000000000218c00 W _ZN7autopas14LCC01TraversalINS_16FullParticleCellINS_10MoleculeLJIdEEEENS_27VLCAllCellsGeneratorFunctorIS3_EELNS_7options16DataLayoutOption5ValueE1ELb1ELb0EE21traverseParticlePairsEv
00000000002485a0 W _ZN7autopas14LCC01TraversalINS_16FullParticleCellINS_10MoleculeLJIdEEEENS_27VLCAllCellsGeneratorFunctorIS3_EELNS_7options16DataLayoutOption5ValueE1ELb1ELb0EED0Ev
0000000000246e00 W _ZN7autopas14LCC01TraversalINS_16FullParticleCellINS_10MoleculeLJIdEEEENS_27VLCAllCellsGeneratorFunctorIS3_EELNS_7options16DataLayoutOption5ValueE1ELb1ELb0EED1Ev
0000000000246e00 W _ZN7autopas14LCC01TraversalINS_16FullParticleCellINS_10MoleculeLJIdEEEENS_27VLCAllCellsGeneratorFunctorIS3_EELNS_7options16DataLayoutOption5ValueE1ELb1ELb0EED2Ev
00000000003c08c0 W _ZN7autopas14LCC01TraversalINS_16FullParticleCellINS_10MoleculeLJIdEEEENS_27VLCAllCellsGeneratorFunctorIS3_EELNS_7options16DataLayoutOption5ValueE1ELb1ELb1EE15processBaseCellERSt6vectorIS4_SaIS4_EEmmm
0000000000338450 W _ZN7autopas14LCC01TraversalINS_16FullParticleCellINS_10MoleculeLJIdEEEENS_27VLCAllCellsGeneratorFunctorIS3_EELNS_7options16DataLayoutOption5ValueE1ELb1ELb1EE21traverseParticlePairsEv
00000000002486f0 W _ZN7autopas14LCC01TraversalINS_16FullParticleCellINS_10MoleculeLJIdEEEENS_27VLCAllCellsGeneratorFunctorIS3_EELNS_7options16DataLayoutOption5ValueE1ELb1ELb1EED0Ev
0000000000246620 W _ZN7autopas14LCC01TraversalINS_16FullParticleCellINS_10MoleculeLJIdEEEENS_27VLCAllCellsGeneratorFunctorIS3_EELNS_7options16DataLayoutOption5ValueE1ELb1ELb1EED1Ev
0000000000246620 W _ZN7autopas14LCC01TraversalINS_16FullParticleCellINS_10MoleculeLJIdEEEENS_27VLCAllCellsGeneratorFunctorIS3_EELNS_7options16DataLayoutOption5ValueE1ELb1ELb1EED2Ev
00000000002191f0 W _ZN7autopas14LCC01TraversalINS_16FullParticleCellINS_10MoleculeLJIdEEEENS_27VLCCellPairGeneratorFunctorIS3_EELNS_7options16DataLayoutOption5ValueE0ELb0ELb0EE21traverseParticlePairsEv
00000000002481b0 W _ZN7autopas14LCC01TraversalINS_16FullParticleCellINS_10MoleculeLJIdEEEENS_27VLCCellPairGeneratorFunctorIS3_EELNS_7options16DataLayoutOption5ValueE0ELb0ELb0EED0Ev
0000000000246a10 W _ZN7autopas14LCC01TraversalINS_16FullParticleCellINS_10MoleculeLJIdEEEENS_27VLCCellPairGeneratorFunctorIS3_EELNS_7options16DataLayoutOption5ValueE0ELb0ELb0EED1Ev
0000000000246a10 W _ZN7autopas14LCC01TraversalINS_16FullParticleCellINS_10MoleculeLJIdEEEENS_27VLCCellPairGeneratorFunctorIS3_EELNS_7options16DataLayoutOption5ValueE0ELb0ELb0EED2Ev
00000000003c3d20 W _ZN7autopas14LCC01TraversalINS_16FullParticleCellINS_10MoleculeLJIdEEEENS_27VLCCellPairGeneratorFunctorIS3_EELNS_7options16DataLayoutOption5ValueE0ELb0ELb1EE15processBaseCellERSt6vectorIS4_SaIS4_EEmmm
00000000003389b0 W _ZN7autopas14LCC01TraversalINS_16FullParticleCellINS_10MoleculeLJIdEEEENS_27VLCCellPairGeneratorFunctorIS3_EELNS_7options16DataLayoutOption5ValueE0ELb0ELb1EE21traverseParticlePairsEv
0000000000248060 W _ZN7autopas14LCC01TraversalINS_16FullParticleCellINS_10MoleculeLJIdEEEENS_27VLCCellPairGeneratorFunctorIS3_EELNS_7options16DataLayoutOption5ValueE0ELb0ELb1EED0Ev
00000000002471f0 W _ZN7autopas14LCC01TraversalINS_16FullParticleCellINS_10MoleculeLJIdEEEENS_27VLCCellPairGeneratorFunctorIS3_EELNS_7options16DataLayoutOption5ValueE0ELb0ELb1EED1Ev
00000000002471f0 W _ZN7autopas14LCC01TraversalINS_16FullParticleCellINS_10MoleculeLJIdEEEENS_27VLCCellPairGeneratorFunctorIS3_EELNS_7options16DataLayoutOption5ValueE0ELb0ELb1EED2Ev
0000000000218d30 W _ZN7autopas14LCC01TraversalINS_16FullParticleCellINS_10MoleculeLJIdEEEENS_27VLCCellPairGeneratorFunctorIS3_EELNS_7options16DataLayoutOption5ValueE0ELb1ELb0EE21traverseParticlePairsEv
0000000000247c70 W _ZN7autopas14LCC01TraversalINS_16FullParticleCellINS_10MoleculeLJIdEEEENS_27VLCCellPairGeneratorFunctorIS3_EELNS_7options16DataLayoutOption5ValueE0ELb1ELb0EED0Ev
0000000000246b60 W _ZN7autopas14LCC01TraversalINS_16FullParticleCellINS_10MoleculeLJIdEEEENS_27VLCCellPairGeneratorFunctorIS3_EELNS_7options16DataLayoutOption5ValueE0ELb1ELb0EED1Ev
0000000000246b60 W _ZN7autopas14LCC01TraversalINS_16FullParticleCellINS_10MoleculeLJIdEEEENS_27VLCCellPairGeneratorFunctorIS3_EELNS_7options16DataLayoutOption5ValueE0ELb1ELb0EED2Ev
00000000003c47c0 W _ZN7autopas14LCC01TraversalINS_16FullParticleCellINS_10MoleculeLJIdEEEENS_27VLCCellPairGeneratorFunctorIS3_EELNS_7options16DataLayoutOption5ValueE0ELb1ELb1EE15processBaseCellERSt6vectorIS4_SaIS4_EEmmm
0000000000337990 W _ZN7autopas14LCC01TraversalINS_16FullParticleCellINS_10MoleculeLJIdEEEENS_27VLCCellPairGeneratorFunctorIS3_EELNS_7options16DataLayoutOption5ValueE0ELb1ELb1EE21traverseParticlePairsEv
0000000000247b20 W _ZN7autopas14LCC01TraversalINS_16FullParticleCellINS_10MoleculeLJIdEEEENS_27VLCCellPairGeneratorFunctorIS3_EELNS_7options16DataLayoutOption5ValueE0ELb1ELb1EED0Ev
0000000000246380 W _ZN7autopas14LCC01TraversalINS_16FullParticleCellINS_10MoleculeLJIdEEEENS_27VLCCellPairGeneratorFunctorIS3_EELNS_7options16DataLayoutOption5ValueE0ELb1ELb1EED1Ev
0000000000246380 W _ZN7autopas14LCC01TraversalINS_16FullParticleCellINS_10MoleculeLJIdEEEENS_27VLCCellPairGeneratorFunctorIS3_EELNS_7options16DataLayoutOption5ValueE0ELb1ELb1EED2Ev
00000000002190c0 W _ZN7autopas14LCC01TraversalINS_16FullParticleCellINS_10MoleculeLJIdEEEENS_27VLCCellPairGeneratorFunctorIS3_EELNS_7options16DataLayoutOption5ValueE1ELb0ELb0EE21traverseParticlePairsEv
0000000000248450 W _ZN7autopas14LCC01TraversalINS_16FullParticleCellINS_10MoleculeLJIdEEEENS_27VLCCellPairGeneratorFunctorIS3_EELNS_7options16DataLayoutOption5ValueE1ELb0ELb0EED0Ev
0000000000247490 W _ZN7autopas14LCC01TraversalINS_16FullParticleCellINS_10MoleculeLJIdEEEENS_27VLCCellPairGeneratorFunctorIS3_EELNS_7options16DataLayoutOption5ValueE1ELb0ELb0EED1Ev
0000000000247490 W _ZN7autopas14LCC01TraversalINS_16FullParticleCellINS_10MoleculeLJIdEEEENS_27VLCCellPairGeneratorFunctorIS3_EELNS_7options16DataLayoutOption5ValueE1ELb0ELb0EED2Ev
00000000003c2860 W _ZN7autopas14LCC01TraversalINS_16FullParticleCellINS_10MoleculeLJIdEEEENS_27VLCCellPairGeneratorFunctorIS3_EELNS_7options16DataLayoutOption5ValueE1ELb0ELb1EE15processBaseCellERSt6vectorIS4_SaIS4_EEmmm
0000000000338c60 W _ZN7autopas14LCC01TraversalINS_16FullParticleCellINS_10MoleculeLJIdEEEENS_27VLCCellPairGeneratorFunctorIS3_EELNS_7options16DataLayoutOption5ValueE1ELb0ELb1EE21traverseParticlePairsEv
0000000000248840 W _ZN7autopas14LCC01TraversalINS_16FullParticleCellINS_10MoleculeLJIdEEEENS_27VLCCellPairGeneratorFunctorIS3_EELNS_7options16DataLayoutOption5ValueE1ELb0ELb1EED0Ev
00000000002460e0 W _ZN7autopas14LCC01TraversalINS_16FullParticleCellINS_10MoleculeLJIdEEEENS_27VLCCellPairGeneratorFunctorIS3_EELNS_7options16DataLayoutOption5ValueE1ELb0ELb1EED1Ev
00000000002460e0 W _ZN7autopas14LCC01TraversalINS_16FullParticleCellINS_10MoleculeLJIdEEEENS_27VLCCellPairGeneratorFunctorIS3_EELNS_7options16DataLayoutOption5ValueE1ELb0ELb1EED2Ev
0000000000218a10 W _ZN7autopas14LCC01TraversalINS_16FullParticleCellINS_10MoleculeLJIdEEEENS_27VLCCellPairGeneratorFunctorIS3_EELNS_7options16DataLayoutOption5ValueE1ELb1ELb0EE21traverseParticlePairsEv
0000000000248990 W _ZN7autopas14LCC01TraversalINS_16FullParticleCellINS_10MoleculeLJIdEEEENS_27VLCCellPairGeneratorFunctorIS3_EELNS_7options16DataLayoutOption5ValueE1ELb1ELb0EED0Ev
0000000000246f50 W _ZN7autopas14LCC01TraversalINS_16FullParticleCellINS_10MoleculeLJIdEEEENS_27VLCCellPairGeneratorFunctorIS3_EELNS_7options16DataLayoutOption5ValueE1ELb1ELb0EED1Ev
0000000000246f50 W _ZN7autopas14LCC01TraversalINS_16FullParticleCellINS_10MoleculeLJIdEEEENS_27VLCCellPairGeneratorFunctorIS3_EELNS_7options16DataLayoutOption5ValueE1ELb1ELb0EED2Ev
00000000003c32c0 W _ZN7autopas14LCC01TraversalINS_16FullParticleCellINS_10MoleculeLJIdEEEENS_27VLCCellPairGeneratorFunctorIS3_EELNS_7options16DataLayoutOption5ValueE1ELb1ELb1EE15processBaseCellERSt6vectorIS4_SaIS4_EEmmm
0000000000338700 W _ZN7autopas14LCC01TraversalINS_16FullParticleCellINS_10MoleculeLJIdEEEENS_27VLCCellPairGeneratorFunctorIS3_EELNS_7options16DataLayoutOption5ValueE1ELb1ELb1EE21traverseParticlePairsEv
0000000000247730 W _ZN7autopas14LCC01TraversalINS_16FullParticleCellINS_10MoleculeLJIdEEEENS_27VLCCellPairGeneratorFunctorIS3_EELNS_7options16DataLayoutOption5ValueE1ELb1ELb1EED0Ev
0000000000246230 W _ZN7autopas14LCC01TraversalINS_16FullParticleCellINS_10MoleculeLJIdEEEENS_27VLCCellPairGeneratorFunctorIS3_EELNS_7options16DataLayoutOption5ValueE1ELb1ELb1EED1Ev
0000000000246230 W _ZN7autopas14LCC01TraversalINS_16FullParticleCellINS_10MoleculeLJIdEEEENS_27VLCCellPairGeneratorFunctorIS3_EELNS_7options16DataLayoutOption5ValueE1ELb1ELb1EED2Ev
000000000033e190 W _ZN7autopas14LCC04TraversalINS_16FullParticleCellINS_10MoleculeLJIdEEEENS_27VLCAllCellsGeneratorFunctorIS3_EELNS_7options16DataLayoutOption5ValueE0ELb0EE17processBasePack32ERSt6vectorIS4_SaIS4_EERKSt5arrayIlLm3EE
000000000033e3e0 W _ZN7autopas14LCC04TraversalINS_16FullParticleCellINS_10MoleculeLJIdEEEENS_27VLCAllCellsGeneratorFunctorIS3_EELNS_7options16DataLayoutOption5ValueE0ELb0EE19traverseSingleColorERSt6vectorIS4_SaIS4_EEi
0000000000206bb0 W _ZN7autopas14LCC04TraversalINS_16FullParticleCellINS_10MoleculeLJIdEEEENS_27VLCAllCellsGeneratorFunctorIS3_EELNS_7options16DataLayoutOption5ValueE0ELb0EE21traverseParticlePairsEv
000000000033e5e0 t _ZN7autopas14LCC04TraversalINS_16FullParticleCellINS_10MoleculeLJIdEEEENS_27VLCAllCellsGeneratorFunctorIS3_EELNS_7options16DataLayoutOption5ValueE0ELb0EE21traverseParticlePairsEv._omp_fn.0
0000000000203a90 W _ZN7autopas14LCC04TraversalINS_16FullParticleCellINS_10MoleculeLJIdEEEENS_27VLCAllCellsGeneratorFunctorIS3_EELNS_7options16DataLayoutOption5ValueE0ELb0EED0Ev
0000000000203a50 W _ZN7autopas14LCC04TraversalINS_16FullParticleCellINS_10MoleculeLJIdEEEENS_27VLCAllCellsGeneratorFunctorIS3_EELNS_7options16DataLayoutOption5ValueE0ELb0EED1Ev
0000000000203a50 W _ZN7autopas14LCC04TraversalINS_16FullParticleCellINS_10MoleculeLJIdEEEENS_27VLCAllCellsGeneratorFunctorIS3_EELNS_7options16DataLayoutOption5ValueE0ELb0EED2Ev
000000000033b600 W _ZN7autopas14LCC04TraversalINS_16FullParticleCellINS_10MoleculeLJIdEEEENS_27VLCAllCellsGeneratorFunctorIS3_EELNS_7options16DataLayoutOption5ValueE0ELb1EE17processBasePack32ERSt6vectorIS4_SaIS4_EERKSt5arrayIlLm3EE
000000000033b850 W _ZN7autopas14LCC04TraversalINS_16FullParticleCellINS_10MoleculeLJIdEEEENS_27VLCAllCellsGeneratorFunctorIS3_EELNS_7options16DataLayoutOption5ValueE0ELb1EE19traverseSingleColorERSt6vectorIS4_SaIS4_EEi
0000000000206c70 W _ZN7autopas14LCC04TraversalINS_16FullParticleCellINS_10MoleculeLJIdEEEENS_27VLCAllCellsGeneratorFunctorIS3_EELNS_7options16DataLayoutOption5ValueE0ELb1EE21traverseParticlePairsEv
000000000033ba50 t _ZN7autopas14LCC04TraversalINS_16FullParticleCellINS_10MoleculeLJIdEEEENS_27VLCAllCellsGeneratorFunctorIS3_EELNS_7options16DataLayoutOption5ValueE0ELb1EE21traverseParticlePairsEv._omp_fn.0
0000000000203d70 W _ZN7autopas14LCC04TraversalINS_16FullParticleCellINS_10MoleculeLJIdEEEENS_27VLCAllCellsGeneratorFunctorIS3_EELNS_7options16DataLayoutOption5ValueE0ELb1EED0Ev
0000000000203d30 W _ZN7autopas14LCC04TraversalINS_16FullParticleCellINS_10MoleculeLJIdEEEENS_27VLCAllCellsGeneratorFunctorIS3_EELNS_7options16DataLayoutOption5ValueE0ELb1EED1Ev
0000000000203d30 W _ZN7autopas14LCC04TraversalINS_16FullParticleCellINS_10MoleculeLJIdEEEENS_27VLCAllCellsGeneratorFunctorIS3_EELNS_7options16DataLayoutOption5ValueE0ELb1EED2Ev
000000000032c4d0 W _ZN7autopas14LCC04TraversalINS_16FullParticleCellINS_10MoleculeLJIdEEEENS_27VLCAllCellsGeneratorFunctorIS3_EELNS_7options16DataLayoutOption5ValueE1ELb0EE17processBasePack32ERSt6vectorIS4_SaIS4_EERKSt5arrayIlLm3EE
000000000032c940 W _ZN7autopas14LCC04TraversalINS_16FullParticleCellINS_10MoleculeLJIdEEEENS_27VLCAllCellsGeneratorFunctorIS3_EELNS_7options16DataLayoutOption5ValueE1ELb0EE19traverseSingleColorERSt6vectorIS4_SaIS4_EEi
0000000000206a30 W _ZN7autopas14LCC04TraversalINS_16FullParticleCellINS_10MoleculeLJIdEEEENS_27VLCAllCellsGeneratorFunctorIS3_EELNS_7options16DataLayoutOption5ValueE1ELb0EE21traverseParticlePairsEv
000000000032cb40 t _ZN7autopas14LCC04TraversalINS_16FullParticleCellINS_10MoleculeLJIdEEEENS_27VLCAllCellsGeneratorFunctorIS3_EELNS_7options16DataLayoutOption5ValueE1ELb0EE21traverseParticlePairsEv._omp_fn.0
00000000002034d0 W _ZN7autopas14LCC04TraversalINS_16FullParticleCellINS_10MoleculeLJIdEEEENS_27VLCAllCellsGeneratorFunctorIS3_EELNS_7options16DataLayoutOption5ValueE1ELb0EED0Ev
0000000000203490 W _ZN7autopas14LCC04TraversalINS_16FullParticleCellINS_10MoleculeLJIdEEEENS_27VLCAllCellsGeneratorFunctorIS3_EELNS_7options16DataLayoutOption5ValueE1ELb0EED1Ev
0000000000203490 W _ZN7autopas14LCC04TraversalINS_16FullParticleCellINS_10MoleculeLJIdEEEENS_27VLCAllCellsGeneratorFunctorIS3_EELNS_7options16DataLayoutOption5ValueE1ELb0EED2Ev
0000000000331fd0 W _ZN7autopas14LCC04TraversalINS_16FullParticleCellINS_10MoleculeLJIdEEEENS_27VLCAllCellsGeneratorFunctorIS3_EELNS_7options16DataLayoutOption5ValueE1ELb1EE17processBasePack32ERSt6vectorIS4_SaIS4_EERKSt5arrayIlLm3EE
0000000000332430 W _ZN7autopas14LCC04TraversalINS_16FullParticleCellINS_10MoleculeLJIdEEEENS_27VLCAllCellsGeneratorFunctorIS3_EELNS_7options16DataLayoutOption5ValueE1ELb1EE19traverseSingleColorERSt6vectorIS4_SaIS4_EEi
0000000000206af0 W _ZN7autopas14LCC04TraversalINS_16FullParticleCellINS_10MoleculeLJIdEEEENS_27VLCAllCellsGeneratorFunctorIS3_EELNS_7options16DataLayoutOption5ValueE1ELb1EE21traverseParticlePairsEv
0000000000332630 t _ZN7autopas14LCC04TraversalINS_16FullParticleCellINS_10MoleculeLJIdEEEENS_27VLCAllCellsGeneratorFunctorIS3_EELNS_7options16DataLayoutOption5ValueE1ELb1EE21traverseParticlePairsEv._omp_fn.0
00000000002037b0 W _ZN7autopas14LCC04TraversalINS_16FullParticleCellINS_10MoleculeLJIdEEEENS_27VLCAllCellsGeneratorFunctorIS3_EELNS_7options16DataLayoutOption5ValueE1ELb1EED0Ev
0000000000203770 W _ZN7autopas14LCC04TraversalINS_16FullParticleCellINS_10MoleculeLJIdEEEENS_27VLCAllCellsGeneratorFunctorIS3_EELNS_7options16DataLayoutOption5ValueE1ELb1EED1Ev
0000000000203770 W _ZN7autopas14LCC04TraversalINS_16FullParticleCellINS_10MoleculeLJIdEEEENS_27VLCAllCellsGeneratorFunctorIS3_EELNS_7options16DataLayoutOption5ValueE1ELb1EED2Ev
000000000038a7c0 W _ZN7autopas14LCC04TraversalINS_16FullParticleCellINS_10MoleculeLJIdEEEENS_27VLCCellPairGeneratorFunctorIS3_EELNS_7options16DataLayoutOption5ValueE0ELb0EE17processBasePack32ERSt6vectorIS4_SaIS4_EERKSt5arrayIlLm3EE
000000000038aa10 W _ZN7autopas14LCC04TraversalINS_16FullParticleCellINS_10MoleculeLJIdEEEENS_27VLCCellPairGeneratorFunctorIS3_EELNS_7options16DataLayoutOption5ValueE0ELb0EE19traverseSingleColorERSt6vectorIS4_SaIS4_EEi
0000000000206eb0 W _ZN7autopas14LCC04TraversalINS_16FullParticleCellINS_10MoleculeLJIdEEEENS_27VLCCellPairGeneratorFunctorIS3_EELNS_7options16DataLayoutOption5ValueE0ELb0EE21traverseParticlePairsEv
000000000038ac10 t _ZN7autopas14LCC04TraversalINS_16FullParticleCellINS_10MoleculeLJIdEEEENS_27VLCCellPairGeneratorFunctorIS3_EELNS_7options16DataLayoutOption5ValueE0ELb0EE21traverseParticlePairsEv._omp_fn.0
0000000000204a10 W _ZN7autopas14LCC04TraversalINS_16FullParticleCellINS_10MoleculeLJIdEEEENS_27VLCCellPairGeneratorFunctorIS3_EELNS_7options16DataLayoutOption5ValueE0ELb0EED0Ev
00000000002049d0 W _ZN7autopas14LCC04TraversalINS_16FullParticleCellINS_10MoleculeLJIdEEEENS_27VLCCellPairGeneratorFunctorIS3_EELNS_7options16DataLayoutOption5ValueE0ELb0EED1Ev
00000000002049d0 W _ZN7autopas14LCC04TraversalINS_16FullParticleCellINS_10MoleculeLJIdEEEENS_27VLCCellPairGeneratorFunctorIS3_EELNS_7options16DataLayoutOption5ValueE0ELb0EED2Ev
0000000000386190 W _ZN7autopas14LCC04TraversalINS_16FullParticleCellINS_10MoleculeLJIdEEEENS_27VLCCellPairGeneratorFunctorIS3_EELNS_7options16DataLayoutOption5ValueE0ELb1EE17processBasePack32ERSt6vectorIS4_SaIS4_EERKSt5arrayIlLm3EE
00000000003863e0 W _ZN7autopas14LCC04TraversalINS_16FullParticleCellINS_10MoleculeLJIdEEEENS_27VLCCellPairGeneratorFunctorIS3_EELNS_7options16DataLayoutOption5ValueE0ELb1EE19traverseSingleColorERSt6vectorIS4_SaIS4_EEi
0000000000206f70 W _ZN7autopas14LCC04TraversalINS_16FullParticleCellINS_10MoleculeLJIdEEEENS_27VLCCellPairGeneratorFunctorIS3_EELNS_7options16DataLayoutOption5ValueE0ELb1EE21traverseParticlePairsEv
00000000003865e0 t _ZN7autopas14LCC04TraversalINS_16FullParticleCellINS_10MoleculeLJIdEEEENS_27VLCCellPairGeneratorFunctorIS3_EELNS_7options16DataLayoutOption5ValueE0ELb1EE21traverseParticlePairsEv._omp_fn.0
00000000002031d0 W _ZN7autopas14LCC04TraversalINS_16FullParticleCellINS_10MoleculeLJIdEEEENS_27VLCCellPairGeneratorFunctorIS3_EELNS_7options16DataLayoutOption5ValueE0ELb1EED0Ev
0000000000203190 W _ZN7autopas14LCC04TraversalINS_16FullParticleCellINS_10MoleculeLJIdEEEENS_27VLCCellPairGeneratorFunctorIS3_EELNS_7options16DataLayoutOption5ValueE0ELb1EED1Ev
0000000000203190 W _ZN7autopas14LCC04TraversalINS_16FullParticleCellINS_10MoleculeLJIdEEEENS_27VLCCellPairGeneratorFunctorIS3_EELNS_7options16DataLayoutOption5ValueE0ELb1EED2Ev
000000000038d330 W _ZN7autopas14LCC04TraversalINS_16FullParticleCellINS_10MoleculeLJIdEEEENS_27VLCCellPairGeneratorFunctorIS3_EELNS_7options16DataLayoutOption5ValueE1ELb0EE17processBasePack32ERSt6vectorIS4_SaIS4_EERKSt5arrayIlLm3EE
000000000038d7a0 W _ZN7autopas14LCC04TraversalINS_16FullParticleCellINS_10MoleculeLJIdEEEENS_27VLCCellPairGeneratorFunctorIS3_EELNS_7options16DataLayoutOption5ValueE1ELb0EE19traverseSingleColorERSt6vectorIS4_SaIS4_EEi
0000000000206d30 W _ZN7autopas14LCC04TraversalINS_16FullParticleCellINS_10MoleculeLJIdEEEENS_27VLCCellPairGeneratorFunctorIS3_EELNS_7options16DataLayoutOption5ValueE1ELb0EE21traverseParticlePairsEv
000000000038d9a0 t _ZN7autopas14LCC04TraversalINS_16FullParticleCellINS_10MoleculeLJIdEEEENS_27VLCCellPairGeneratorFunctorIS3_EELNS_7options16DataLayoutOption5ValueE1ELb0EE21traverseParticlePairsEv._omp_fn.0
0000000000204450 W _ZN7autopas14LCC04TraversalINS_16FullParticleCellINS_10MoleculeLJIdEEEENS_27VLCCellPairGeneratorFunctorIS3_EELNS_7options16DataLayoutOption5ValueE1ELb0EED0Ev
0000000000204410 W _ZN7autopas14LCC04TraversalINS_16FullParticleCellINS_10MoleculeLJIdEEEENS_27VLCCellPairGeneratorFunctorIS3_EELNS_7options16DataLayoutOption5ValueE1ELb0EED1Ev
0000000000204410 W _ZN7autopas14LCC04TraversalINS_16FullParticleCellINS_10MoleculeLJIdEEEENS_27VLCCellPairGeneratorFunctorIS3_EELNS_7options16DataLayoutOption5ValueE1ELb0EED2Ev
000000000038f540 W _ZN7autopas14LCC04TraversalINS_16FullParticleCellINS_10MoleculeLJIdEEEENS_27VLCCellPairGeneratorFunctorIS3_EELNS_7options16DataLayoutOption5ValueE1ELb1EE17processBasePack32ERSt6vectorIS4_SaIS4_EERKSt5arrayIlLm3EE
000000000038f9a0 W _ZN7autopas14LCC04TraversalINS_16FullParticleCellINS_10MoleculeLJIdEEEENS_27VLCCellPairGeneratorFunctorIS3_EELNS_7options16DataLayoutOption5ValueE1ELb1EE19traverseSingleColorERSt6vectorIS4_SaIS4_EEi
0000000000206df0 W _ZN7autopas14LCC04TraversalINS_16FullParticleCellINS_10MoleculeLJIdEEEENS_27VLCCellPairGeneratorFunctorIS3_EELNS_7options16DataLayoutOption5ValueE1ELb1EE21traverseParticlePairsEv
000000000038fba0 t _ZN7autopas14LCC04TraversalINS_16FullParticleCellINS_10MoleculeLJIdEEEENS_27VLCCellPairGeneratorFunctorIS3_EELNS_7options16DataLayoutOption5ValueE1ELb1EE21traverseParticlePairsEv._omp_fn.0
0000000000204730 W _ZN7autopas14LCC04TraversalINS_16FullParticleCellINS_10MoleculeLJIdEEEENS_27VLCCellPairGeneratorFunctorIS3_EELNS_7options16DataLayoutOption5ValueE1ELb1EED0Ev
00000000002046f0 W _ZN7autopas14LCC04TraversalINS_16FullParticleCellINS_10MoleculeLJIdEEEENS_27VLCCellPairGeneratorFunctorIS3_EELNS_7options16DataLayoutOption5ValueE1ELb1EED1Ev
00000000002046f0 W _ZN7autopas14LCC04TraversalINS_16FullParticleCellINS_10MoleculeLJIdEEEENS_27VLCCellPairGeneratorFunctorIS3_EELNS_7options16DataLayoutOption5ValueE1ELb1EED2Ev
000000000020cca0 W _ZN7autopas14LCC08TraversalINS_16FullParticleCellINS_10MoleculeLJIdEEEENS_17VerletListHelpersIS3_E26VerletListGeneratorFunctorELNS_7options16DataLayoutOption5ValueE0ELb0EE21traverseParticlePairsEv
0000000000204cf0 W _ZN7autopas14LCC08TraversalINS_16FullParticleCellINS_10MoleculeLJIdEEEENS_17VerletListHelpersIS3_E26VerletListGeneratorFunctorELNS_7options16DataLayoutOption5ValueE0ELb0EED0Ev
0000000000204cb0 W _ZN7autopas14LCC08TraversalINS_16FullParticleCellINS_10MoleculeLJIdEEEENS_17VerletListHelpersIS3_E26VerletListGeneratorFunctorELNS_7options16DataLayoutOption5ValueE0ELb0EED1Ev
0000000000204cb0 W _ZN7autopas14LCC08TraversalINS_16FullParticleCellINS_10MoleculeLJIdEEEENS_17VerletListHelpersIS3_E26VerletListGeneratorFunctorELNS_7options16DataLayoutOption5ValueE0ELb0EED2Ev
000000000020cd90 W _ZN7autopas14LCC08TraversalINS_16FullParticleCellINS_10MoleculeLJIdEEEENS_17VerletListHelpersIS3_E26VerletListGeneratorFunctorELNS_7options16DataLayoutOption5ValueE0ELb1EE21traverseParticlePairsEv
0000000000204d70 W _ZN7autopas14LCC08TraversalINS_16FullParticleCellINS_10MoleculeLJIdEEEENS_17VerletListHelpersIS3_E26VerletListGeneratorFunctorELNS_7options16DataLayoutOption5ValueE0ELb1EED0Ev
0000000000204d30 W _ZN7autopas14LCC08TraversalINS_16FullParticleCellINS_10MoleculeLJIdEEEENS_17VerletListHelpersIS3_E26VerletListGeneratorFunctorELNS_7options16DataLayoutOption5ValueE0ELb1EED1Ev
0000000000204d30 W _ZN7autopas14LCC08TraversalINS_16FullParticleCellINS_10MoleculeLJIdEEEENS_17VerletListHelpersIS3_E26VerletListGeneratorFunctorELNS_7options16DataLayoutOption5ValueE0ELb1EED2Ev
000000000020cac0 W _ZN7autopas14LCC08TraversalINS_16FullParticleCellINS_10MoleculeLJIdEEEENS_17VerletListHelpersIS3_E26VerletListGeneratorFunctorELNS_7options16DataLayoutOption5ValueE1ELb0EE21traverseParticlePairsEv
0000000000204bf0 W _ZN7autopas14LCC08TraversalINS_16FullParticleCellINS_10MoleculeLJIdEEEENS_17VerletListHelpersIS3_E26VerletListGeneratorFunctorELNS_7options16DataLayoutOption5ValueE1ELb0EED0Ev
0000000000204bb0 W _ZN7autopas14LCC08TraversalINS_16FullParticleCellINS_10MoleculeLJIdEEEENS_17VerletListHelpersIS3_E26VerletListGeneratorFunctorELNS_7options16DataLayoutOption5ValueE1ELb0EED1Ev
0000000000204bb0 W _ZN7autopas14LCC08TraversalINS_16FullParticleCellINS_10MoleculeLJIdEEEENS_17VerletListHelpersIS3_E26VerletListGeneratorFunctorELNS_7options16DataLayoutOption5ValueE1ELb0EED2Ev
000000000020cbb0 W _ZN7autopas14LCC08TraversalINS_16FullParticleCellINS_10MoleculeLJIdEEEENS_17VerletListHelpersIS3_E26VerletListGeneratorFunctorELNS_7options16DataLayoutOption5ValueE1ELb1EE21traverseParticlePairsEv
0000000000204c70 W _ZN7autopas14LCC08TraversalINS_16FullParticleCellINS_10MoleculeLJIdEEEENS_17VerletListHelpersIS3_E26VerletListGeneratorFunctorELNS_7options16DataLayoutOption5ValueE1ELb1EED0Ev
0000000000204c30 W _ZN7autopas14LCC08TraversalINS_16FullParticleCellINS_10MoleculeLJIdEEEENS_17VerletListHelpersIS3_E26VerletListGeneratorFunctorELNS_7options16DataLayoutOption5ValueE1ELb1EED1Ev
0000000000204c30 W _ZN7autopas14LCC08TraversalINS_16FullParticleCellINS_10MoleculeLJIdEEEENS_17VerletListHelpersIS3_E26VerletListGeneratorFunctorELNS_7options16DataLayoutOption5ValueE1ELb1EED2Ev
000000000020ad60 W _ZN7autopas14LCC08TraversalINS_16FullParticleCellINS_10MoleculeLJIdEEEENS_27VLCAllCellsGeneratorFunctorIS3_EELNS_7options16DataLayoutOption5ValueE0ELb0EE21traverseParticlePairsEv
0000000000203990 W _ZN7autopas14LCC08TraversalINS_16FullParticleCellINS_10MoleculeLJIdEEEENS_27VLCAllCellsGeneratorFunctorIS3_EELNS_7options16DataLayoutOption5ValueE0ELb0EED0Ev
0000000000203950 W _ZN7autopas14LCC08TraversalINS_16FullParticleCellINS_10MoleculeLJIdEEEENS_27VLCAllCellsGeneratorFunctorIS3_EELNS_7options16DataLayoutOption5ValueE0ELb0EED1Ev
0000000000203950 W _ZN7autopas14LCC08TraversalINS_16FullParticleCellINS_10MoleculeLJIdEEEENS_27VLCAllCellsGeneratorFunctorIS3_EELNS_7options16DataLayoutOption5ValueE0ELb0EED2Ev
000000000020b410 W _ZN7autopas14LCC08TraversalINS_16FullParticleCellINS_10MoleculeLJIdEEEENS_27VLCAllCellsGeneratorFunctorIS3_EELNS_7options16DataLayoutOption5ValueE0ELb1EE21traverseParticlePairsEv
0000000000203c70 W _ZN7autopas14LCC08TraversalINS_16FullParticleCellINS_10MoleculeLJIdEEEENS_27VLCAllCellsGeneratorFunctorIS3_EELNS_7options16DataLayoutOption5ValueE0ELb1EED0Ev
0000000000203c30 W _ZN7autopas14LCC08TraversalINS_16FullParticleCellINS_10MoleculeLJIdEEEENS_27VLCAllCellsGeneratorFunctorIS3_EELNS_7options16DataLayoutOption5ValueE0ELb1EED1Ev
0000000000203c30 W _ZN7autopas14LCC08TraversalINS_16FullParticleCellINS_10MoleculeLJIdEEEENS_27VLCAllCellsGeneratorFunctorIS3_EELNS_7options16DataLayoutOption5ValueE0ELb1EED2Ev
000000000020a460 W _ZN7autopas14LCC08TraversalINS_16FullParticleCellINS_10MoleculeLJIdEEEENS_27VLCAllCellsGeneratorFunctorIS3_EELNS_7options16DataLayoutOption5ValueE1ELb0EE21traverseParticlePairsEv
00000000002033d0 W _ZN7autopas14LCC08TraversalINS_16FullParticleCellINS_10MoleculeLJIdEEEENS_27VLCAllCellsGeneratorFunctorIS3_EELNS_7options16DataLayoutOption5ValueE1ELb0EED0Ev
0000000000203390 W _ZN7autopas14LCC08TraversalINS_16FullParticleCellINS_10MoleculeLJIdEEEENS_27VLCAllCellsGeneratorFunctorIS3_EELNS_7options16DataLayoutOption5ValueE1ELb0EED1Ev
0000000000203390 W _ZN7autopas14LCC08TraversalINS_16FullParticleCellINS_10MoleculeLJIdEEEENS_27VLCAllCellsGeneratorFunctorIS3_EELNS_7options16DataLayoutOption5ValueE1ELb0EED2Ev
000000000020a6b0 W _ZN7autopas14LCC08TraversalINS_16FullParticleCellINS_10MoleculeLJIdEEEENS_27VLCAllCellsGeneratorFunctorIS3_EELNS_7options16DataLayoutOption5ValueE1ELb1EE21traverseParticlePairsEv
00000000002036b0 W _ZN7autopas14LCC08TraversalINS_16FullParticleCellINS_10MoleculeLJIdEEEENS_27VLCAllCellsGeneratorFunctorIS3_EELNS_7options16DataLayoutOption5ValueE1ELb1EED0Ev
0000000000203670 W _ZN7autopas14LCC08TraversalINS_16FullParticleCellINS_10MoleculeLJIdEEEENS_27VLCAllCellsGeneratorFunctorIS3_EELNS_7options16DataLayoutOption5ValueE1ELb1EED1Ev
0000000000203670 W _ZN7autopas14LCC08TraversalINS_16FullParticleCellINS_10MoleculeLJIdEEEENS_27VLCAllCellsGeneratorFunctorIS3_EELNS_7options16DataLayoutOption5ValueE1ELb1EED2Ev
000000000020c320 W _ZN7autopas14LCC08TraversalINS_16FullParticleCellINS_10MoleculeLJIdEEEENS_27VLCCellPairGeneratorFunctorIS3_EELNS_7options16DataLayoutOption5ValueE0ELb0EE21traverseParticlePairsEv
0000000000204910 W _ZN7autopas14LCC08TraversalINS_16FullParticleCellINS_10MoleculeLJIdEEEENS_27VLCCellPairGeneratorFunctorIS3_EELNS_7options16DataLayoutOption5ValueE0ELb0EED0Ev
00000000002048d0 W _ZN7autopas14LCC08TraversalINS_16FullParticleCellINS_10MoleculeLJIdEEEENS_27VLCCellPairGeneratorFunctorIS3_EELNS_7options16DataLayoutOption5ValueE0ELb0EED1Ev
00000000002048d0 W _ZN7autopas14LCC08TraversalINS_16FullParticleCellINS_10MoleculeLJIdEEEENS_27VLCCellPairGeneratorFunctorIS3_EELNS_7options16DataLayoutOption5ValueE0ELb0EED2Ev
000000000020c9d0 W _ZN7autopas14LCC08TraversalINS_16FullParticleCellINS_10MoleculeLJIdEEEENS_27VLCCellPairGeneratorFunctorIS3_EELNS_7options16DataLayoutOption5ValueE0ELb1EE21traverseParticlePairsEv
00000000002032d0 W _ZN7autopas14LCC08TraversalINS_16FullParticleCellINS_10MoleculeLJIdEEEENS_27VLCCellPairGeneratorFunctorIS3_EELNS_7options16DataLayoutOption5ValueE0ELb1EED0Ev
0000000000203290 W _ZN7autopas14LCC08TraversalINS_16FullParticleCellINS_10MoleculeLJIdEEEENS_27VLCCellPairGeneratorFunctorIS3_EELNS_7options16DataLayoutOption5ValueE0ELb1EED1Ev
0000000000203290 W _ZN7autopas14LCC08TraversalINS_16FullParticleCellINS_10MoleculeLJIdEEEENS_27VLCCellPairGeneratorFunctorIS3_EELNS_7options16DataLayoutOption5ValueE0ELb1EED2Ev
000000000020ba20 W _ZN7autopas14LCC08TraversalINS_16FullParticleCellINS_10MoleculeLJIdEEEENS_27VLCCellPairGeneratorFunctorIS3_EELNS_7options16DataLayoutOption5ValueE1ELb0EE21traverseParticlePairsEv
0000000000204350 W _ZN7autopas14LCC08TraversalINS_16FullParticleCellINS_10MoleculeLJIdEEEENS_27VLCCellPairGeneratorFunctorIS3_EELNS_7options16DataLayoutOption5ValueE1ELb0EED0Ev
0000000000204310 W _ZN7autopas14LCC08TraversalINS_16FullParticleCellINS_10MoleculeLJIdEEEENS_27VLCCellPairGeneratorFunctorIS3_EELNS_7options16DataLayoutOption5ValueE1ELb0EED1Ev
0000000000204310 W _ZN7autopas14LCC08TraversalINS_16FullParticleCellINS_10MoleculeLJIdEEEENS_27VLCCellPairGeneratorFunctorIS3_EELNS_7options16DataLayoutOption5ValueE1ELb0EED2Ev
000000000020bc70 W _ZN7autopas14LCC08TraversalINS_16FullParticleCellINS_10MoleculeLJIdEEEENS_27VLCCellPairGeneratorFunctorIS3_EELNS_7options16DataLayoutOption5ValueE1ELb1EE21traverseParticlePairsEv
0000000000204630 W _ZN7autopas14LCC08TraversalINS_16FullParticleCellINS_10MoleculeLJIdEEEENS_27VLCCellPairGeneratorFunctorIS3_EELNS_7options16DataLayoutOption5ValueE1ELb1EED0Ev
00000000002045f0 W _ZN7autopas14LCC08TraversalINS_16FullParticleCellINS_10MoleculeLJIdEEEENS_27VLCCellPairGeneratorFunctorIS3_EELNS_7options16DataLayoutOption5ValueE1ELb1EED1Ev
00000000002045f0 W _ZN7autopas14LCC08TraversalINS_16FullParticleCellINS_10MoleculeLJIdEEEENS_27VLCCellPairGeneratorFunctorIS3_EELNS_7options16DataLayoutOption5ValueE1ELb1EED2Ev
000000000020b6e0 W _ZN7autopas14LCC08TraversalINS_16FullParticleCellINS_10MoleculeLJIdEEEENS_8internal27AsBuildPairGeneratorFunctorIS3_Lb0EEELNS_7options16DataLayoutOption5ValueE1ELb0EE21traverseParticlePairsEv
0000000000204150 W _ZN7autopas14LCC08TraversalINS_16FullParticleCellINS_10MoleculeLJIdEEEENS_8internal27AsBuildPairGeneratorFunctorIS3_Lb0EEELNS_7options16DataLayoutOption5ValueE1ELb0EED0Ev
0000000000204110 W _ZN7autopas14LCC08TraversalINS_16FullParticleCellINS_10MoleculeLJIdEEEENS_8internal27AsBuildPairGeneratorFunctorIS3_Lb0EEELNS_7options16DataLayoutOption5ValueE1ELb0EED1Ev
0000000000204110 W _ZN7autopas14LCC08TraversalINS_16FullParticleCellINS_10MoleculeLJIdEEEENS_8internal27AsBuildPairGeneratorFunctorIS3_Lb0EEELNS_7options16DataLayoutOption5ValueE1ELb0EED2Ev
000000000020b7d0 W _ZN7autopas14LCC08TraversalINS_16FullParticleCellINS_10MoleculeLJIdEEEENS_8internal27AsBuildPairGeneratorFunctorIS3_Lb0EEELNS_7options16DataLayoutOption5ValueE1ELb1EE21traverseParticlePairsEv
0000000000204250 W _ZN7autopas14LCC08TraversalINS_16FullParticleCellINS_10MoleculeLJIdEEEENS_8internal27AsBuildPairGeneratorFunctorIS3_Lb0EEELNS_7options16DataLayoutOption5ValueE1ELb1EED0Ev
0000000000204210 W _ZN7autopas14LCC08TraversalINS_16FullParticleCellINS_10MoleculeLJIdEEEENS_8internal27AsBuildPairGeneratorFunctorIS3_Lb0EEELNS_7options16DataLayoutOption5ValueE1ELb1EED1Ev
0000000000204210 W _ZN7autopas14LCC08TraversalINS_16FullParticleCellINS_10MoleculeLJIdEEEENS_8internal27AsBuildPairGeneratorFunctorIS3_Lb0EEELNS_7options16DataLayoutOption5ValueE1ELb1EED2Ev
000000000020b500 W _ZN7autopas14LCC08TraversalINS_16FullParticleCellINS_10MoleculeLJIdEEEENS_8internal27AsBuildPairGeneratorFunctorIS3_Lb1EEELNS_7options16DataLayoutOption5ValueE0ELb0EE21traverseParticlePairsEv
0000000000203f50 W _ZN7autopas14LCC08TraversalINS_16FullParticleCellINS_10MoleculeLJIdEEEENS_8internal27AsBuildPairGeneratorFunctorIS3_Lb1EEELNS_7options16DataLayoutOption5ValueE0ELb0EED0Ev
0000000000203f10 W _ZN7autopas14LCC08TraversalINS_16FullParticleCellINS_10MoleculeLJIdEEEENS_8internal27AsBuildPairGeneratorFunctorIS3_Lb1EEELNS_7options16DataLayoutOption5ValueE0ELb0EED1Ev
0000000000203f10 W _ZN7autopas14LCC08TraversalINS_16FullParticleCellINS_10MoleculeLJIdEEEENS_8internal27AsBuildPairGeneratorFunctorIS3_Lb1EEELNS_7options16DataLayoutOption5ValueE0ELb0EED2Ev
000000000020b5f0 W _ZN7autopas14LCC08TraversalINS_16FullParticleCellINS_10MoleculeLJIdEEEENS_8internal27AsBuildPairGeneratorFunctorIS3_Lb1EEELNS_7options16DataLayoutOption5ValueE0ELb1EE21traverseParticlePairsEv
0000000000204050 W _ZN7autopas14LCC08TraversalINS_16FullParticleCellINS_10MoleculeLJIdEEEENS_8internal27AsBuildPairGeneratorFunctorIS3_Lb1EEELNS_7options16DataLayoutOption5ValueE0ELb1EED0Ev
0000000000204010 W _ZN7autopas14LCC08TraversalINS_16FullParticleCellINS_10MoleculeLJIdEEEENS_8internal27AsBuildPairGeneratorFunctorIS3_Lb1EEELNS_7options16DataLayoutOption5ValueE0ELb1EED1Ev
0000000000204010 W _ZN7autopas14LCC08TraversalINS_16FullParticleCellINS_10MoleculeLJIdEEEENS_8internal27AsBuildPairGeneratorFunctorIS3_Lb1EEELNS_7options16DataLayoutOption5ValueE0ELb1EED2Ev
000000000020ac70 W _ZN7autopas14LCC18TraversalINS_16FullParticleCellINS_10MoleculeLJIdEEEENS_27VLCAllCellsGeneratorFunctorIS3_EELNS_7options16DataLayoutOption5ValueE0ELb0EE21traverseParticlePairsEv
0000000000242ac0 W _ZN7autopas14LCC18TraversalINS_16FullParticleCellINS_10MoleculeLJIdEEEENS_27VLCAllCellsGeneratorFunctorIS3_EELNS_7options16DataLayoutOption5ValueE0ELb0EED0Ev
0000000000241e70 W _ZN7autopas14LCC18TraversalINS_16FullParticleCellINS_10MoleculeLJIdEEEENS_27VLCAllCellsGeneratorFunctorIS3_EELNS_7options16DataLayoutOption5ValueE0ELb0EED1Ev
0000000000241e70 W _ZN7autopas14LCC18TraversalINS_16FullParticleCellINS_10MoleculeLJIdEEEENS_27VLCAllCellsGeneratorFunctorIS3_EELNS_7options16DataLayoutOption5ValueE0ELb0EED2Ev
000000000020b320 W _ZN7autopas14LCC18TraversalINS_16FullParticleCellINS_10MoleculeLJIdEEEENS_27VLCAllCellsGeneratorFunctorIS3_EELNS_7options16DataLayoutOption5ValueE0ELb1EE21traverseParticlePairsEv
0000000000242920 W _ZN7autopas14LCC18TraversalINS_16FullParticleCellINS_10MoleculeLJIdEEEENS_27VLCAllCellsGeneratorFunctorIS3_EELNS_7options16DataLayoutOption5ValueE0ELb1EED0Ev
0000000000241930 W _ZN7autopas14LCC18TraversalINS_16FullParticleCellINS_10MoleculeLJIdEEEENS_27VLCAllCellsGeneratorFunctorIS3_EELNS_7options16DataLayoutOption5ValueE0ELb1EED1Ev
0000000000241930 W _ZN7autopas14LCC18TraversalINS_16FullParticleCellINS_10MoleculeLJIdEEEENS_27VLCAllCellsGeneratorFunctorIS3_EELNS_7options16DataLayoutOption5ValueE0ELb1EED2Ev
000000000020a370 W _ZN7autopas14LCC18TraversalINS_16FullParticleCellINS_10MoleculeLJIdEEEENS_27VLCAllCellsGeneratorFunctorIS3_EELNS_7options16DataLayoutOption5ValueE1ELb0EE21traverseParticlePairsEv
0000000000242b90 W _ZN7autopas14LCC18TraversalINS_16FullParticleCellINS_10MoleculeLJIdEEEENS_27VLCAllCellsGeneratorFunctorIS3_EELNS_7options16DataLayoutOption5ValueE1ELb0EED0Ev
0000000000241cb0 W _ZN7autopas14LCC18TraversalINS_16FullParticleCellINS_10MoleculeLJIdEEEENS_27VLCAllCellsGeneratorFunctorIS3_EELNS_7options16DataLayoutOption5ValueE1ELb0EED1Ev
0000000000241cb0 W _ZN7autopas14LCC18TraversalINS_16FullParticleCellINS_10MoleculeLJIdEEEENS_27VLCAllCellsGeneratorFunctorIS3_EELNS_7options16DataLayoutOption5ValueE1ELb0EED2Ev
000000000020a5c0 W _ZN7autopas14LCC18TraversalINS_16FullParticleCellINS_10MoleculeLJIdEEEENS_27VLCAllCellsGeneratorFunctorIS3_EELNS_7options16DataLayoutOption5ValueE1ELb1EE21traverseParticlePairsEv
0000000000242c60 W _ZN7autopas14LCC18TraversalINS_16FullParticleCellINS_10MoleculeLJIdEEEENS_27VLCAllCellsGeneratorFunctorIS3_EELNS_7options16DataLayoutOption5ValueE1ELb1EED0Ev
0000000000241f50 W _ZN7autopas14LCC18TraversalINS_16FullParticleCellINS_10MoleculeLJIdEEEENS_27VLCAllCellsGeneratorFunctorIS3_EELNS_7options16DataLayoutOption5ValueE1ELb1EED1Ev
0000000000241f50 W _ZN7autopas14LCC18TraversalINS_16FullParticleCellINS_10MoleculeLJIdEEEENS_27VLCAllCellsGeneratorFunctorIS3_EELNS_7options16DataLayoutOption5ValueE1ELb1EED2Ev
000000000020c230 W _ZN7autopas14LCC18TraversalINS_16FullParticleCellINS_10MoleculeLJIdEEEENS_27VLCCellPairGeneratorFunctorIS3_EELNS_7options16DataLayoutOption5ValueE0ELb0EE21traverseParticlePairsEv
00000000002429f0 W _ZN7autopas14LCC18TraversalINS_16FullParticleCellINS_10MoleculeLJIdEEEENS_27VLCCellPairGeneratorFunctorIS3_EELNS_7options16DataLayoutOption5ValueE0ELb0EED0Ev
0000000000241a10 W _ZN7autopas14LCC18TraversalINS_16FullParticleCellINS_10MoleculeLJIdEEEENS_27VLCCellPairGeneratorFunctorIS3_EELNS_7options16DataLayoutOption5ValueE0ELb0EED1Ev
0000000000241a10 W _ZN7autopas14LCC18TraversalINS_16FullParticleCellINS_10MoleculeLJIdEEEENS_27VLCCellPairGeneratorFunctorIS3_EELNS_7options16DataLayoutOption5ValueE0ELb0EED2Ev
000000000020c8e0 W _ZN7autopas14LCC18TraversalINS_16FullParticleCellINS_10MoleculeLJIdEEEENS_27VLCCellPairGeneratorFunctorIS3_EELNS_7options16DataLayoutOption5ValueE0ELb1EE21traverseParticlePairsEv
0000000000242d30 W _ZN7autopas14LCC18TraversalINS_16FullParticleCellINS_10MoleculeLJIdEEEENS_27VLCCellPairGeneratorFunctorIS3_EELNS_7options16DataLayoutOption5ValueE0ELb1EED0Ev
0000000000241bd0 W _ZN7autopas14LCC18TraversalINS_16FullParticleCellINS_10MoleculeLJIdEEEENS_27VLCCellPairGeneratorFunctorIS3_EELNS_7options16DataLayoutOption5ValueE0ELb1EED1Ev
0000000000241bd0 W _ZN7autopas14LCC18TraversalINS_16FullParticleCellINS_10MoleculeLJIdEEEENS_27VLCCellPairGeneratorFunctorIS3_EELNS_7options16DataLayoutOption5ValueE0ELb1EED2Ev
000000000020b930 W _ZN7autopas14LCC18TraversalINS_16FullParticleCellINS_10MoleculeLJIdEEEENS_27VLCCellPairGeneratorFunctorIS3_EELNS_7options16DataLayoutOption5ValueE1ELb0EE21traverseParticlePairsEv
0000000000242e00 W _ZN7autopas14LCC18TraversalINS_16FullParticleCellINS_10MoleculeLJIdEEEENS_27VLCCellPairGeneratorFunctorIS3_EELNS_7options16DataLayoutOption5ValueE1ELb0EED0Ev
0000000000241af0 W _ZN7autopas14LCC18TraversalINS_16FullParticleCellINS_10MoleculeLJIdEEEENS_27VLCCellPairGeneratorFunctorIS3_EELNS_7options16DataLayoutOption5ValueE1ELb0EED1Ev
0000000000241af0 W _ZN7autopas14LCC18TraversalINS_16FullParticleCellINS_10MoleculeLJIdEEEENS_27VLCCellPairGeneratorFunctorIS3_EELNS_7options16DataLayoutOption5ValueE1ELb0EED2Ev
000000000020bb80 W _ZN7autopas14LCC18TraversalINS_16FullParticleCellINS_10MoleculeLJIdEEEENS_27VLCCellPairGeneratorFunctorIS3_EELNS_7options16DataLayoutOption5ValueE1ELb1EE21traverseParticlePairsEv
0000000000242850 W _ZN7autopas14LCC18TraversalINS_16FullParticleCellINS_10MoleculeLJIdEEEENS_27VLCCellPairGeneratorFunctorIS3_EELNS_7options16DataLayoutOption5ValueE1ELb1EED0Ev
0000000000241d90 W _ZN7autopas14LCC18TraversalINS_16FullParticleCellINS_10MoleculeLJIdEEEENS_27VLCCellPairGeneratorFunctorIS3_EELNS_7options16DataLayoutOption5ValueE1ELb1EED1Ev
0000000000241d90 W _ZN7autopas14LCC18TraversalINS_16FullParticleCellINS_10MoleculeLJIdEEEENS_27VLCCellPairGeneratorFunctorIS3_EELNS_7options16DataLayoutOption5ValueE1ELb1EED2Ev
00000000003dedd0 W _ZN7autopas14NumberIntervalIdE11resetValuesERSt3setIdSt4lessIdESaIdEE
00000000003e9770 W _ZN7autopas14NumberIntervalIdEC1Edd
00000000003e9770 W _ZN7autopas14NumberIntervalIdEC2Edd
00000000003debf0 W _ZN7autopas14NumberIntervalIdED0Ev
00000000003dead0 W _ZN7autopas14NumberIntervalIdED1Ev
00000000003dead0 W _ZN7autopas14NumberIntervalIdED2Ev
00000000001f9250 W _ZN7autopas14OTC01TraversalINS_10MoleculeLJIdEENS_27VLCAllCellsGeneratorFunctorIS2_EELNS_7options16DataLayoutOption5ValueE0ELb0EE12endTraversalEv
00000000001f9210 W _ZN7autopas14OTC01TraversalINS_10MoleculeLJIdEENS_27VLCAllCellsGeneratorFunctorIS2_EELNS_7options16DataLayoutOption5ValueE0ELb0EE13initTraversalEv
00000000003348f0 W _ZN7autopas14OTC01TraversalINS_10MoleculeLJIdEENS_27VLCAllCellsGeneratorFunctorIS2_EELNS_7options16DataLayoutOption5ValueE0ELb0EE21traverseParticlePairsEv
00000000002362e0 W _ZN7autopas14OTC01TraversalINS_10MoleculeLJIdEENS_27VLCAllCellsGeneratorFunctorIS2_EELNS_7options16DataLayoutOption5ValueE0ELb0EED0Ev
0000000000235400 W _ZN7autopas14OTC01TraversalINS_10MoleculeLJIdEENS_27VLCAllCellsGeneratorFunctorIS2_EELNS_7options16DataLayoutOption5ValueE0ELb0EED1Ev
0000000000235400 W _ZN7autopas14OTC01TraversalINS_10MoleculeLJIdEENS_27VLCAllCellsGeneratorFunctorIS2_EELNS_7options16DataLayoutOption5ValueE0ELb0EED2Ev
00000000001f9e00 W _ZN7autopas14OTC01TraversalINS_10MoleculeLJIdEENS_27VLCAllCellsGeneratorFunctorIS2_EELNS_7options16DataLayoutOption5ValueE0ELb1EE12endTraversalEv
00000000001f9dc0 W _ZN7autopas14OTC01TraversalINS_10MoleculeLJIdEENS_27VLCAllCellsGeneratorFunctorIS2_EELNS_7options16DataLayoutOption5ValueE0ELb1EE13initTraversalEv
0000000000333f70 W _ZN7autopas14OTC01TraversalINS_10MoleculeLJIdEENS_27VLCAllCellsGeneratorFunctorIS2_EELNS_7options16DataLayoutOption5ValueE0ELb1EE21traverseParticlePairsEv
0000000000236380 W _ZN7autopas14OTC01TraversalINS_10MoleculeLJIdEENS_27VLCAllCellsGeneratorFunctorIS2_EELNS_7options16DataLayoutOption5ValueE0ELb1EED0Ev
00000000002354c0 W _ZN7autopas14OTC01TraversalINS_10MoleculeLJIdEENS_27VLCAllCellsGeneratorFunctorIS2_EELNS_7options16DataLayoutOption5ValueE0ELb1EED1Ev
00000000002354c0 W _ZN7autopas14OTC01TraversalINS_10MoleculeLJIdEENS_27VLCAllCellsGeneratorFunctorIS2_EELNS_7options16DataLayoutOption5ValueE0ELb1EED2Ev
0000000000236a00 W _ZN7autopas14OTC01TraversalINS_10MoleculeLJIdEENS_27VLCAllCellsGeneratorFunctorIS2_EELNS_7options16DataLayoutOption5ValueE1ELb0EE12endTraversalEv
00000000003d5160 W _ZN7autopas14OTC01TraversalINS_10MoleculeLJIdEENS_27VLCAllCellsGeneratorFunctorIS2_EELNS_7options16DataLayoutOption5ValueE1ELb0EE13initTraversalEv
0000000000333140 W _ZN7autopas14OTC01TraversalINS_10MoleculeLJIdEENS_27VLCAllCellsGeneratorFunctorIS2_EELNS_7options16DataLayoutOption5ValueE1ELb0EE21traverseParticlePairsEv
00000000002363d0 W _ZN7autopas14OTC01TraversalINS_10MoleculeLJIdEENS_27VLCAllCellsGeneratorFunctorIS2_EELNS_7options16DataLayoutOption5ValueE1ELb0EED0Ev
0000000000235460 W _ZN7autopas14OTC01TraversalINS_10MoleculeLJIdEENS_27VLCAllCellsGeneratorFunctorIS2_EELNS_7options16DataLayoutOption5ValueE1ELb0EED1Ev
0000000000235460 W _ZN7autopas14OTC01TraversalINS_10MoleculeLJIdEENS_27VLCAllCellsGeneratorFunctorIS2_EELNS_7options16DataLayoutOption5ValueE1ELb0EED2Ev
000000000023c7d0 W _ZN7autopas14OTC01TraversalINS_10MoleculeLJIdEENS_27VLCAllCellsGeneratorFunctorIS2_EELNS_7options16DataLayoutOption5ValueE1ELb1EE12endTraversalEv
00000000003d4e60 W _ZN7autopas14OTC01TraversalINS_10MoleculeLJIdEENS_27VLCAllCellsGeneratorFunctorIS2_EELNS_7options16DataLayoutOption5ValueE1ELb1EE13initTraversalEv
0000000000332c00 W _ZN7autopas14OTC01TraversalINS_10MoleculeLJIdEENS_27VLCAllCellsGeneratorFunctorIS2_EELNS_7options16DataLayoutOption5ValueE1ELb1EE21traverseParticlePairsEv
0000000000236330 W _ZN7autopas14OTC01TraversalINS_10MoleculeLJIdEENS_27VLCAllCellsGeneratorFunctorIS2_EELNS_7options16DataLayoutOption5ValueE1ELb1EED0Ev
00000000002356a0 W _ZN7autopas14OTC01TraversalINS_10MoleculeLJIdEENS_27VLCAllCellsGeneratorFunctorIS2_EELNS_7options16DataLayoutOption5ValueE1ELb1EED1Ev
00000000002356a0 W _ZN7autopas14OTC01TraversalINS_10MoleculeLJIdEENS_27VLCAllCellsGeneratorFunctorIS2_EELNS_7options16DataLayoutOption5ValueE1ELb1EED2Ev
00000000001fbeb0 W _ZN7autopas14OTC01TraversalINS_10MoleculeLJIdEENS_27VLCCellPairGeneratorFunctorIS2_EELNS_7options16DataLayoutOption5ValueE0ELb0EE12endTraversalEv
00000000001fbe70 W _ZN7autopas14OTC01TraversalINS_10MoleculeLJIdEENS_27VLCCellPairGeneratorFunctorIS2_EELNS_7options16DataLayoutOption5ValueE0ELb0EE13initTraversalEv
000000000038b550 W _ZN7autopas14OTC01TraversalINS_10MoleculeLJIdEENS_27VLCCellPairGeneratorFunctorIS2_EELNS_7options16DataLayoutOption5ValueE0ELb0EE21traverseParticlePairsEv
00000000002365b0 W _ZN7autopas14OTC01TraversalINS_10MoleculeLJIdEENS_27VLCCellPairGeneratorFunctorIS2_EELNS_7options16DataLayoutOption5ValueE0ELb0EED0Ev
0000000000235640 W _ZN7autopas14OTC01TraversalINS_10MoleculeLJIdEENS_27VLCCellPairGeneratorFunctorIS2_EELNS_7options16DataLayoutOption5ValueE0ELb0EED1Ev
0000000000235640 W _ZN7autopas14OTC01TraversalINS_10MoleculeLJIdEENS_27VLCCellPairGeneratorFunctorIS2_EELNS_7options16DataLayoutOption5ValueE0ELb0EED2Ev
00000000001fca60 W _ZN7autopas14OTC01TraversalINS_10MoleculeLJIdEENS_27VLCCellPairGeneratorFunctorIS2_EELNS_7options16DataLayoutOption5ValueE0ELb1EE12endTraversalEv
00000000001fca20 W _ZN7autopas14OTC01TraversalINS_10MoleculeLJIdEENS_27VLCCellPairGeneratorFunctorIS2_EELNS_7options16DataLayoutOption5ValueE0ELb1EE13initTraversalEv
0000000000386eb0 W _ZN7autopas14OTC01TraversalINS_10MoleculeLJIdEENS_27VLCCellPairGeneratorFunctorIS2_EELNS_7options16DataLayoutOption5ValueE0ELb1EE21traverseParticlePairsEv
00000000002361f0 W _ZN7autopas14OTC01TraversalINS_10MoleculeLJIdEENS_27VLCCellPairGeneratorFunctorIS2_EELNS_7options16DataLayoutOption5ValueE0ELb1EED0Ev
00000000002352e0 W _ZN7autopas14OTC01TraversalINS_10MoleculeLJIdEENS_27VLCCellPairGeneratorFunctorIS2_EELNS_7options16DataLayoutOption5ValueE0ELb1EED1Ev
00000000002352e0 W _ZN7autopas14OTC01TraversalINS_10MoleculeLJIdEENS_27VLCCellPairGeneratorFunctorIS2_EELNS_7options16DataLayoutOption5ValueE0ELb1EED2Ev
000000000023bb50 W _ZN7autopas14OTC01TraversalINS_10MoleculeLJIdEENS_27VLCCellPairGeneratorFunctorIS2_EELNS_7options16DataLayoutOption5ValueE1ELb0EE12endTraversalEv
00000000003d4880 W _ZN7autopas14OTC01TraversalINS_10MoleculeLJIdEENS_27VLCCellPairGeneratorFunctorIS2_EELNS_7options16DataLayoutOption5ValueE1ELb0EE13initTraversalEv
000000000038df70 W _ZN7autopas14OTC01TraversalINS_10MoleculeLJIdEENS_27VLCCellPairGeneratorFunctorIS2_EELNS_7options16DataLayoutOption5ValueE1ELb0EE21traverseParticlePairsEv
0000000000236150 W _ZN7autopas14OTC01TraversalINS_10MoleculeLJIdEENS_27VLCCellPairGeneratorFunctorIS2_EELNS_7options16DataLayoutOption5ValueE1ELb0EED0Ev
00000000002357c0 W _ZN7autopas14OTC01TraversalINS_10MoleculeLJIdEENS_27VLCCellPairGeneratorFunctorIS2_EELNS_7options16DataLayoutOption5ValueE1ELb0EED1Ev
00000000002357c0 W _ZN7autopas14OTC01TraversalINS_10MoleculeLJIdEENS_27VLCCellPairGeneratorFunctorIS2_EELNS_7options16DataLayoutOption5ValueE1ELb0EED2Ev
000000000023be70 W _ZN7autopas14OTC01TraversalINS_10MoleculeLJIdEENS_27VLCCellPairGeneratorFunctorIS2_EELNS_7options16DataLayoutOption5ValueE1ELb1EE12endTraversalEv
00000000003d4b60 W _ZN7autopas14OTC01TraversalINS_10MoleculeLJIdEENS_27VLCCellPairGeneratorFunctorIS2_EELNS_7options16DataLayoutOption5ValueE1ELb1EE13initTraversalEv
0000000000390170 W _ZN7autopas14OTC01TraversalINS_10MoleculeLJIdEENS_27VLCCellPairGeneratorFunctorIS2_EELNS_7options16DataLayoutOption5ValueE1ELb1EE21traverseParticlePairsEv
0000000000236510 W _ZN7autopas14OTC01TraversalINS_10MoleculeLJIdEENS_27VLCCellPairGeneratorFunctorIS2_EELNS_7options16DataLayoutOption5ValueE1ELb1EED0Ev
0000000000235580 W _ZN7autopas14OTC01TraversalINS_10MoleculeLJIdEENS_27VLCCellPairGeneratorFunctorIS2_EELNS_7options16DataLayoutOption5ValueE1ELb1EED1Ev
0000000000235580 W _ZN7autopas14OTC01TraversalINS_10MoleculeLJIdEENS_27VLCCellPairGeneratorFunctorIS2_EELNS_7options16DataLayoutOption5ValueE1ELb1EED2Ev
00000000001f9370 W _ZN7autopas14OTC18TraversalINS_10MoleculeLJIdEENS_27VLCAllCellsGeneratorFunctorIS2_EELNS_7options16DataLayoutOption5ValueE0ELb0EE12endTraversalEv
00000000001f92c0 W _ZN7autopas14OTC18TraversalINS_10MoleculeLJIdEENS_27VLCAllCellsGeneratorFunctorIS2_EELNS_7options16DataLayoutOption5ValueE0ELb0EE13initTraversalEv
0000000000334be0 W _ZN7autopas14OTC18TraversalINS_10MoleculeLJIdEENS_27VLCAllCellsGeneratorFunctorIS2_EELNS_7options16DataLayoutOption5ValueE0ELb0EE21traverseParticlePairsEv
0000000000236240 W _ZN7autopas14OTC18TraversalINS_10MoleculeLJIdEENS_27VLCAllCellsGeneratorFunctorIS2_EELNS_7options16DataLayoutOption5ValueE0ELb0EED0Ev
00000000002353a0 W _ZN7autopas14OTC18TraversalINS_10MoleculeLJIdEENS_27VLCAllCellsGeneratorFunctorIS2_EELNS_7options16DataLayoutOption5ValueE0ELb0EED1Ev
00000000002353a0 W _ZN7autopas14OTC18TraversalINS_10MoleculeLJIdEENS_27VLCAllCellsGeneratorFunctorIS2_EELNS_7options16DataLayoutOption5ValueE0ELb0EED2Ev
00000000001f9f20 W _ZN7autopas14OTC18TraversalINS_10MoleculeLJIdEENS_27VLCAllCellsGeneratorFunctorIS2_EELNS_7options16DataLayoutOption5ValueE0ELb1EE12endTraversalEv
00000000001f9e70 W _ZN7autopas14OTC18TraversalINS_10MoleculeLJIdEENS_27VLCAllCellsGeneratorFunctorIS2_EELNS_7options16DataLayoutOption5ValueE0ELb1EE13initTraversalEv
0000000000334260 W _ZN7autopas14OTC18TraversalINS_10MoleculeLJIdEENS_27VLCAllCellsGeneratorFunctorIS2_EELNS_7options16DataLayoutOption5ValueE0ELb1EE21traverseParticlePairsEv
0000000000236470 W _ZN7autopas14OTC18TraversalINS_10MoleculeLJIdEENS_27VLCAllCellsGeneratorFunctorIS2_EELNS_7options16DataLayoutOption5ValueE0ELb1EED0Ev
0000000000235340 W _ZN7autopas14OTC18TraversalINS_10MoleculeLJIdEENS_27VLCAllCellsGeneratorFunctorIS2_EELNS_7options16DataLayoutOption5ValueE0ELb1EED1Ev
0000000000235340 W _ZN7autopas14OTC18TraversalINS_10MoleculeLJIdEENS_27VLCAllCellsGeneratorFunctorIS2_EELNS_7options16DataLayoutOption5ValueE0ELb1EED2Ev
000000000023c190 W _ZN7autopas14OTC18TraversalINS_10MoleculeLJIdEENS_27VLCAllCellsGeneratorFunctorIS2_EELNS_7options16DataLayoutOption5ValueE1ELb0EE12endTraversalEv
00000000003c5470 W _ZN7autopas14OTC18TraversalINS_10MoleculeLJIdEENS_27VLCAllCellsGeneratorFunctorIS2_EELNS_7options16DataLayoutOption5ValueE1ELb0EE13initTraversalEv
00000000003333d0 W _ZN7autopas14OTC18TraversalINS_10MoleculeLJIdEENS_27VLCAllCellsGeneratorFunctorIS2_EELNS_7options16DataLayoutOption5ValueE1ELb0EE21traverseParticlePairsEv
0000000000236290 W _ZN7autopas14OTC18TraversalINS_10MoleculeLJIdEENS_27VLCAllCellsGeneratorFunctorIS2_EELNS_7options16DataLayoutOption5ValueE1ELb0EED0Ev
0000000000235700 W _ZN7autopas14OTC18TraversalINS_10MoleculeLJIdEENS_27VLCAllCellsGeneratorFunctorIS2_EELNS_7options16DataLayoutOption5ValueE1ELb0EED1Ev
0000000000235700 W _ZN7autopas14OTC18TraversalINS_10MoleculeLJIdEENS_27VLCAllCellsGeneratorFunctorIS2_EELNS_7options16DataLayoutOption5ValueE1ELb0EED2Ev
000000000023caf0 W _ZN7autopas14OTC18TraversalINS_10MoleculeLJIdEENS_27VLCAllCellsGeneratorFunctorIS2_EELNS_7options16DataLayoutOption5ValueE1ELb1EE12endTraversalEv
00000000003c53c0 W _ZN7autopas14OTC18TraversalINS_10MoleculeLJIdEENS_27VLCAllCellsGeneratorFunctorIS2_EELNS_7options16DataLayoutOption5ValueE1ELb1EE13initTraversalEv
0000000000332e90 W _ZN7autopas14OTC18TraversalINS_10MoleculeLJIdEENS_27VLCAllCellsGeneratorFunctorIS2_EELNS_7options16DataLayoutOption5ValueE1ELb1EE21traverseParticlePairsEv
0000000000203060 W _ZN7autopas14OTC18TraversalINS_10MoleculeLJIdEENS_27VLCAllCellsGeneratorFunctorIS2_EELNS_7options16DataLayoutOption5ValueE1ELb1EED0Ev
0000000000235220 W _ZN7autopas14OTC18TraversalINS_10MoleculeLJIdEENS_27VLCAllCellsGeneratorFunctorIS2_EELNS_7options16DataLayoutOption5ValueE1ELb1EED1Ev
0000000000235220 W _ZN7autopas14OTC18TraversalINS_10MoleculeLJIdEENS_27VLCAllCellsGeneratorFunctorIS2_EELNS_7options16DataLayoutOption5ValueE1ELb1EED2Ev
00000000001fbfd0 W _ZN7autopas14OTC18TraversalINS_10MoleculeLJIdEENS_27VLCCellPairGeneratorFunctorIS2_EELNS_7options16DataLayoutOption5ValueE0ELb0EE12endTraversalEv
00000000001fbf20 W _ZN7autopas14OTC18TraversalINS_10MoleculeLJIdEENS_27VLCCellPairGeneratorFunctorIS2_EELNS_7options16DataLayoutOption5ValueE0ELb0EE13initTraversalEv
000000000038b840 W _ZN7autopas14OTC18TraversalINS_10MoleculeLJIdEENS_27VLCCellPairGeneratorFunctorIS2_EELNS_7options16DataLayoutOption5ValueE0ELb0EE21traverseParticlePairsEv
0000000000236560 W _ZN7autopas14OTC18TraversalINS_10MoleculeLJIdEENS_27VLCCellPairGeneratorFunctorIS2_EELNS_7options16DataLayoutOption5ValueE0ELb0EED0Ev
00000000002355e0 W _ZN7autopas14OTC18TraversalINS_10MoleculeLJIdEENS_27VLCCellPairGeneratorFunctorIS2_EELNS_7options16DataLayoutOption5ValueE0ELb0EED1Ev
00000000002355e0 W _ZN7autopas14OTC18TraversalINS_10MoleculeLJIdEENS_27VLCCellPairGeneratorFunctorIS2_EELNS_7options16DataLayoutOption5ValueE0ELb0EED2Ev
00000000001fcb80 W _ZN7autopas14OTC18TraversalINS_10MoleculeLJIdEENS_27VLCCellPairGeneratorFunctorIS2_EELNS_7options16DataLayoutOption5ValueE0ELb1EE12endTraversalEv
00000000001fcad0 W _ZN7autopas14OTC18TraversalINS_10MoleculeLJIdEENS_27VLCCellPairGeneratorFunctorIS2_EELNS_7options16DataLayoutOption5ValueE0ELb1EE13initTraversalEv
00000000003871a0 W _ZN7autopas14OTC18TraversalINS_10MoleculeLJIdEENS_27VLCCellPairGeneratorFunctorIS2_EELNS_7options16DataLayoutOption5ValueE0ELb1EE21traverseParticlePairsEv
00000000002361a0 W _ZN7autopas14OTC18TraversalINS_10MoleculeLJIdEENS_27VLCCellPairGeneratorFunctorIS2_EELNS_7options16DataLayoutOption5ValueE0ELb1EED0Ev
0000000000235280 W _ZN7autopas14OTC18TraversalINS_10MoleculeLJIdEENS_27VLCCellPairGeneratorFunctorIS2_EELNS_7options16DataLayoutOption5ValueE0ELb1EED1Ev
0000000000235280 W _ZN7autopas14OTC18TraversalINS_10MoleculeLJIdEENS_27VLCCellPairGeneratorFunctorIS2_EELNS_7options16DataLayoutOption5ValueE0ELb1EED2Ev
0000000000236d20 W _ZN7autopas14OTC18TraversalINS_10MoleculeLJIdEENS_27VLCCellPairGeneratorFunctorIS2_EELNS_7options16DataLayoutOption5ValueE1ELb0EE12endTraversalEv
00000000003c5310 W _ZN7autopas14OTC18TraversalINS_10MoleculeLJIdEENS_27VLCCellPairGeneratorFunctorIS2_EELNS_7options16DataLayoutOption5ValueE1ELb0EE13initTraversalEv
000000000038e200 W _ZN7autopas14OTC18TraversalINS_10MoleculeLJIdEENS_27VLCCellPairGeneratorFunctorIS2_EELNS_7options16DataLayoutOption5ValueE1ELb0EE21traverseParticlePairsEv
0000000000236420 W _ZN7autopas14OTC18TraversalINS_10MoleculeLJIdEENS_27VLCCellPairGeneratorFunctorIS2_EELNS_7options16DataLayoutOption5ValueE1ELb0EED0Ev
0000000000235760 W _ZN7autopas14OTC18TraversalINS_10MoleculeLJIdEENS_27VLCCellPairGeneratorFunctorIS2_EELNS_7options16DataLayoutOption5ValueE1ELb0EED1Ev
0000000000235760 W _ZN7autopas14OTC18TraversalINS_10MoleculeLJIdEENS_27VLCCellPairGeneratorFunctorIS2_EELNS_7options16DataLayoutOption5ValueE1ELb0EED2Ev
000000000023c4b0 W _ZN7autopas14OTC18TraversalINS_10MoleculeLJIdEENS_27VLCCellPairGeneratorFunctorIS2_EELNS_7options16DataLayoutOption5ValueE1ELb1EE12endTraversalEv
00000000003c5260 W _ZN7autopas14OTC18TraversalINS_10MoleculeLJIdEENS_27VLCCellPairGeneratorFunctorIS2_EELNS_7options16DataLayoutOption5ValueE1ELb1EE13initTraversalEv
0000000000390400 W _ZN7autopas14OTC18TraversalINS_10MoleculeLJIdEENS_27VLCCellPairGeneratorFunctorIS2_EELNS_7options16DataLayoutOption5ValueE1ELb1EE21traverseParticlePairsEv
00000000002364c0 W _ZN7autopas14OTC18TraversalINS_10MoleculeLJIdEENS_27VLCCellPairGeneratorFunctorIS2_EELNS_7options16DataLayoutOption5ValueE1ELb1EED0Ev
0000000000235520 W _ZN7autopas14OTC18TraversalINS_10MoleculeLJIdEENS_27VLCCellPairGeneratorFunctorIS2_EELNS_7options16DataLayoutOption5ValueE1ELb1EED1Ev
0000000000235520 W _ZN7autopas14OTC18TraversalINS_10MoleculeLJIdEENS_27VLCCellPairGeneratorFunctorIS2_EELNS_7options16DataLayoutOption5ValueE1ELb1EED2Ev
00000000001f5f70 W _ZN7autopas14OctreeLeafNodeINS_10MoleculeLJIdEEE11hasChildrenEv
00000000001f5f30 W _ZN7autopas14OctreeLeafNodeINS_10MoleculeLJIdEEE13clearChildrenERSt10unique_ptrINS_19OctreeNodeInterfaceIS2_EESt14default_deleteIS6_EE
00000000002eb000 W _ZN7autopas14OctreeLeafNodeINS_10MoleculeLJIdEEE16getLeavesInRangeESt5arrayIdLm3EES5_
00000000001f5f50 W _ZN7autopas14OctreeLeafNodeINS_10MoleculeLJIdEEE20getNumberOfParticlesEv
000000000021aad0 W _ZN7autopas14OctreeLeafNodeINS_10MoleculeLJIdEEE23getLeavesFromDirectionsERKSt6vectorINS_6octree6VertexESaIS6_EE
00000000001ce734 W _ZN7autopas14OctreeLeafNodeINS_10MoleculeLJIdEEE3SONENS_6octree6VertexE
0000000000271520 W _ZN7autopas14OctreeLeafNodeINS_10MoleculeLJIdEEE6insertERKS2_
00000000001ce788 W _ZN7autopas14OctreeLeafNodeINS_10MoleculeLJIdEEE8getChildEi
0000000000242ed0 W _ZN7autopas14OctreeLeafNodeINS_10MoleculeLJIdEEED0Ev
0000000000242440 W _ZN7autopas14OctreeLeafNodeINS_10MoleculeLJIdEEED1Ev
0000000000242440 W _ZN7autopas14OctreeLeafNodeINS_10MoleculeLJIdEEED2Ev
00000000002198e0 W _ZN7autopas14VarVerletListsINS_10MoleculeLJIdEENS_25VerletNeighborListAsBuildIS2_EEE15iteratePairwiseEPNS_18TraversalInterfaceE
00000000002f2b60 W _ZN7autopas14VarVerletListsINS_10MoleculeLJIdEENS_25VerletNeighborListAsBuildIS2_EEE20rebuildNeighborListsEPNS_18TraversalInterfaceE
0000000000249f60 W _ZN7autopas14VarVerletListsINS_10MoleculeLJIdEENS_25VerletNeighborListAsBuildIS2_EEED0Ev
0000000000249b70 W _ZN7autopas14VarVerletListsINS_10MoleculeLJIdEENS_25VerletNeighborListAsBuildIS2_EEED1Ev
0000000000249b70 W _ZN7autopas14VarVerletListsINS_10MoleculeLJIdEENS_25VerletNeighborListAsBuildIS2_EEED2Ev
00000000003dbe50 t _ZN7autopas14loadEstimatorsL27getApplicableLoadEstimatorsENS_7options15ContainerOptionENS1_15TraversalOptionESt3setINS_19LoadEstimatorOptionESt4lessIS5_ESaIS5_EE
00000000001d2b77 t _ZN7autopas14loadEstimatorsL27getApplicableLoadEstimatorsENS_7options15ContainerOptionENS1_15TraversalOptionESt3setINS_19LoadEstimatorOptionESt4lessIS5_ESaIS5_EE.cold
00000000003425a0 t _ZN7autopas15CBasedTraversalINS_16FullParticleCellINS_10MoleculeLJIdEEEENS_17VerletListHelpersIS3_E26VerletListGeneratorFunctorELNS_7options16DataLayoutOption5ValueE0ELb0ELi3EE10cTraversalIZNS_14LCC08TraversalIS4_S7_LSA_0ELb0EE21traverseParticlePairsEvEUlmmmE_EEvOT_RKSt5arrayImLm3EESL_SL_._omp_fn.0
0000000000207e10 W _ZN7autopas15CBasedTraversalINS_16FullParticleCellINS_10MoleculeLJIdEEEENS_17VerletListHelpersIS3_E26VerletListGeneratorFunctorELNS_7options16DataLayoutOption5ValueE0ELb0ELi3EE12endTraversalEv
00000000002127d0 t _ZN7autopas15CBasedTraversalINS_16FullParticleCellINS_10MoleculeLJIdEEEENS_17VerletListHelpersIS3_E26VerletListGeneratorFunctorELNS_7options16DataLayoutOption5ValueE0ELb0ELi3EE12endTraversalEv._omp_fn.0
0000000000206910 W _ZN7autopas15CBasedTraversalINS_16FullParticleCellINS_10MoleculeLJIdEEEENS_17VerletListHelpersIS3_E26VerletListGeneratorFunctorELNS_7options16DataLayoutOption5ValueE0ELb0ELi3EE13initTraversalEv
00000000002128f0 t _ZN7autopas15CBasedTraversalINS_16FullParticleCellINS_10MoleculeLJIdEEEENS_17VerletListHelpersIS3_E26VerletListGeneratorFunctorELNS_7options16DataLayoutOption5ValueE0ELb0ELi3EE13initTraversalEv._omp_fn.0
00000000001fd710 W _ZN7autopas15CBasedTraversalINS_16FullParticleCellINS_10MoleculeLJIdEEEENS_17VerletListHelpersIS3_E26VerletListGeneratorFunctorELNS_7options16DataLayoutOption5ValueE0ELb0ELi3EE17notifyColorChangeEm
0000000000343230 t _ZN7autopas15CBasedTraversalINS_16FullParticleCellINS_10MoleculeLJIdEEEENS_17VerletListHelpersIS3_E26VerletListGeneratorFunctorELNS_7options16DataLayoutOption5ValueE0ELb1ELi3EE10cTraversalIZNS_14LCC08TraversalIS4_S7_LSA_0ELb1EE21traverseParticlePairsEvEUlmmmE_EEvOT_RKSt5arrayImLm3EESL_SL_._omp_fn.0
0000000000207e70 W _ZN7autopas15CBasedTraversalINS_16FullParticleCellINS_10MoleculeLJIdEEEENS_17VerletListHelpersIS3_E26VerletListGeneratorFunctorELNS_7options16DataLayoutOption5ValueE0ELb1ELi3EE12endTraversalEv
00000000002127c0 t _ZN7autopas15CBasedTraversalINS_16FullParticleCellINS_10MoleculeLJIdEEEENS_17VerletListHelpersIS3_E26VerletListGeneratorFunctorELNS_7options16DataLayoutOption5ValueE0ELb1ELi3EE12endTraversalEv._omp_fn.0
0000000000206970 W _ZN7autopas15CBasedTraversalINS_16FullParticleCellINS_10MoleculeLJIdEEEENS_17VerletListHelpersIS3_E26VerletListGeneratorFunctorELNS_7options16DataLayoutOption5ValueE0ELb1ELi3EE13initTraversalEv
00000000002128e0 t _ZN7autopas15CBasedTraversalINS_16FullParticleCellINS_10MoleculeLJIdEEEENS_17VerletListHelpersIS3_E26VerletListGeneratorFunctorELNS_7options16DataLayoutOption5ValueE0ELb1ELi3EE13initTraversalEv._omp_fn.0
00000000001fd760 W _ZN7autopas15CBasedTraversalINS_16FullParticleCellINS_10MoleculeLJIdEEEENS_17VerletListHelpersIS3_E26VerletListGeneratorFunctorELNS_7options16DataLayoutOption5ValueE0ELb1ELi3EE17notifyColorChangeEm
0000000000341910 t _ZN7autopas15CBasedTraversalINS_16FullParticleCellINS_10MoleculeLJIdEEEENS_17VerletListHelpersIS3_E26VerletListGeneratorFunctorELNS_7options16DataLayoutOption5ValueE1ELb0ELi3EE10cTraversalIZNS_14LCC08TraversalIS4_S7_LSA_1ELb0EE21traverseParticlePairsEvEUlmmmE_EEvOT_RKSt5arrayImLm3EESL_SL_._omp_fn.0
0000000000207d50 W _ZN7autopas15CBasedTraversalINS_16FullParticleCellINS_10MoleculeLJIdEEEENS_17VerletListHelpersIS3_E26VerletListGeneratorFunctorELNS_7options16DataLayoutOption5ValueE1ELb0ELi3EE12endTraversalEv
0000000000233320 t _ZN7autopas15CBasedTraversalINS_16FullParticleCellINS_10MoleculeLJIdEEEENS_17VerletListHelpersIS3_E26VerletListGeneratorFunctorELNS_7options16DataLayoutOption5ValueE1ELb0ELi3EE12endTraversalEv._omp_fn.0
0000000000206850 W _ZN7autopas15CBasedTraversalINS_16FullParticleCellINS_10MoleculeLJIdEEEENS_17VerletListHelpersIS3_E26VerletListGeneratorFunctorELNS_7options16DataLayoutOption5ValueE1ELb0ELi3EE13initTraversalEv
00000000003c5520 t _ZN7autopas15CBasedTraversalINS_16FullParticleCellINS_10MoleculeLJIdEEEENS_17VerletListHelpersIS3_E26VerletListGeneratorFunctorELNS_7options16DataLayoutOption5ValueE1ELb0ELi3EE13initTraversalEv._omp_fn.0
00000000001fd670 W _ZN7autopas15CBasedTraversalINS_16FullParticleCellINS_10MoleculeLJIdEEEENS_17VerletListHelpersIS3_E26VerletListGeneratorFunctorELNS_7options16DataLayoutOption5ValueE1ELb0ELi3EE17notifyColorChangeEm
00000000002e4f70 t _ZN7autopas15CBasedTraversalINS_16FullParticleCellINS_10MoleculeLJIdEEEENS_17VerletListHelpersIS3_E26VerletListGeneratorFunctorELNS_7options16DataLayoutOption5ValueE1ELb1ELi3EE10cTraversalIZNS_14LCC08TraversalIS4_S7_LSA_1ELb1EE21traverseParticlePairsEvEUlmmmE_EEvOT_RKSt5arrayImLm3EESL_SL_._omp_fn.0
0000000000207db0 W _ZN7autopas15CBasedTraversalINS_16FullParticleCellINS_10MoleculeLJIdEEEENS_17VerletListHelpersIS3_E26VerletListGeneratorFunctorELNS_7options16DataLayoutOption5ValueE1ELb1ELi3EE12endTraversalEv
0000000000233560 t _ZN7autopas15CBasedTraversalINS_16FullParticleCellINS_10MoleculeLJIdEEEENS_17VerletListHelpersIS3_E26VerletListGeneratorFunctorELNS_7options16DataLayoutOption5ValueE1ELb1ELi3EE12endTraversalEv._omp_fn.0
00000000002068b0 W _ZN7autopas15CBasedTraversalINS_16FullParticleCellINS_10MoleculeLJIdEEEENS_17VerletListHelpersIS3_E26VerletListGeneratorFunctorELNS_7options16DataLayoutOption5ValueE1ELb1ELi3EE13initTraversalEv
00000000003d3ae0 t _ZN7autopas15CBasedTraversalINS_16FullParticleCellINS_10MoleculeLJIdEEEENS_17VerletListHelpersIS3_E26VerletListGeneratorFunctorELNS_7options16DataLayoutOption5ValueE1ELb1ELi3EE13initTraversalEv._omp_fn.0
00000000001fd6c0 W _ZN7autopas15CBasedTraversalINS_16FullParticleCellINS_10MoleculeLJIdEEEENS_17VerletListHelpersIS3_E26VerletListGeneratorFunctorELNS_7options16DataLayoutOption5ValueE1ELb1ELi3EE17notifyColorChangeEm
00000000003c1af0 t _ZN7autopas15CBasedTraversalINS_16FullParticleCellINS_10MoleculeLJIdEEEENS_27VLCAllCellsGeneratorFunctorIS3_EELNS_7options16DataLayoutOption5ValueE0ELb0ELi2EE10cTraversalIZNS_14LCC01TraversalIS4_S6_LS9_0ELb0ELb1EE21traverseParticlePairsEvEUlmmmE_EEvOT_RKSt5arrayImLm3EESK_SK_._omp_fn.0
00000000003d00b0 t _ZN7autopas15CBasedTraversalINS_16FullParticleCellINS_10MoleculeLJIdEEEENS_27VLCAllCellsGeneratorFunctorIS3_EELNS_7options16DataLayoutOption5ValueE0ELb0ELi2EE10cTraversalIZNS_25LCC04CombinedSoATraversalIS4_S6_LS9_0ELb0EE21traverseParticlePairsEvEUlmmmE_EEvOT_RKSt5arrayImLm3EESK_SK_._omp_fn.0
0000000000207330 W _ZN7autopas15CBasedTraversalINS_16FullParticleCellINS_10MoleculeLJIdEEEENS_27VLCAllCellsGeneratorFunctorIS3_EELNS_7options16DataLayoutOption5ValueE0ELb0ELi2EE12endTraversalEv
00000000002128c0 t _ZN7autopas15CBasedTraversalINS_16FullParticleCellINS_10MoleculeLJIdEEEENS_27VLCAllCellsGeneratorFunctorIS3_EELNS_7options16DataLayoutOption5ValueE0ELb0ELi2EE12endTraversalEv._omp_fn.0
0000000000205e30 W _ZN7autopas15CBasedTraversalINS_16FullParticleCellINS_10MoleculeLJIdEEEENS_27VLCAllCellsGeneratorFunctorIS3_EELNS_7options16DataLayoutOption5ValueE0ELb0ELi2EE13initTraversalEv
00000000002129a0 t _ZN7autopas15CBasedTraversalINS_16FullParticleCellINS_10MoleculeLJIdEEEENS_27VLCAllCellsGeneratorFunctorIS3_EELNS_7options16DataLayoutOption5ValueE0ELb0ELi2EE13initTraversalEv._omp_fn.0
00000000001f9bc0 W _ZN7autopas15CBasedTraversalINS_16FullParticleCellINS_10MoleculeLJIdEEEENS_27VLCAllCellsGeneratorFunctorIS3_EELNS_7options16DataLayoutOption5ValueE0ELb0ELi2EE17notifyColorChangeEm
000000000033ee90 t _ZN7autopas15CBasedTraversalINS_16FullParticleCellINS_10MoleculeLJIdEEEENS_27VLCAllCellsGeneratorFunctorIS3_EELNS_7options16DataLayoutOption5ValueE0ELb0ELi3EE10cTraversalIZNS_14LCC01TraversalIS4_S6_LS9_0ELb0ELb0EE21traverseParticlePairsEvEUlmmmE_EEvOT_RKSt5arrayImLm3EESK_SK_._omp_fn.0
000000000033dc80 t _ZN7autopas15CBasedTraversalINS_16FullParticleCellINS_10MoleculeLJIdEEEENS_27VLCAllCellsGeneratorFunctorIS3_EELNS_7options16DataLayoutOption5ValueE0ELb0ELi3EE10cTraversalIZNS_14LCC08TraversalIS4_S6_LS9_0ELb0EE21traverseParticlePairsEvEUlmmmE_EEvOT_RKSt5arrayImLm3EESK_SK_._omp_fn.0
000000000033d6d0 t _ZN7autopas15CBasedTraversalINS_16FullParticleCellINS_10MoleculeLJIdEEEENS_27VLCAllCellsGeneratorFunctorIS3_EELNS_7options16DataLayoutOption5ValueE0ELb0ELi3EE10cTraversalIZNS_14LCC18TraversalIS4_S6_LS9_0ELb0EE21traverseParticlePairsEvEUlmmmE_EEvOT_RKSt5arrayImLm3EESK_SK_._omp_fn.0
0000000000326eb0 t _ZN7autopas15CBasedTraversalINS_16FullParticleCellINS_10MoleculeLJIdEEEENS_27VLCAllCellsGeneratorFunctorIS3_EELNS_7options16DataLayoutOption5ValueE0ELb0ELi3EE10cTraversalIZNS_15VCLC06TraversalIS4_S6_LS9_0ELb0EE21traverseParticlePairsEvEUlmmmE_EEvOT_RKSt5arrayImLm3EESK_SK_._omp_fn.0
0000000000324660 t _ZN7autopas15CBasedTraversalINS_16FullParticleCellINS_10MoleculeLJIdEEEENS_27VLCAllCellsGeneratorFunctorIS3_EELNS_7options16DataLayoutOption5ValueE0ELb0ELi3EE10cTraversalIZNS_15VLCC01TraversalIS4_S6_LS9_0ELb0ENS_23VLCAllCellsNeighborListIS3_EELNS7_15ContainerOption5ValueE6EE21traverseParticlePairsEvEUlmmmE_EEvOT_RKSt5arrayImLm3EESO_SO_._omp_fn.0
00000000002ca3c0 t _ZN7autopas15CBasedTraversalINS_16FullParticleCellINS_10MoleculeLJIdEEEENS_27VLCAllCellsGeneratorFunctorIS3_EELNS_7options16DataLayoutOption5ValueE0ELb0ELi3EE10cTraversalIZNS_15VLCC01TraversalIS4_S6_LS9_0ELb0ENS_23VLCCellPairNeighborListIS3_EELNS7_15ContainerOption5ValueE7EE21traverseParticlePairsEvEUlmmmE_EEvOT_RKSt5arrayImLm3EESO_SO_._omp_fn.0
0000000000325590 t _ZN7autopas15CBasedTraversalINS_16FullParticleCellINS_10MoleculeLJIdEEEENS_27VLCAllCellsGeneratorFunctorIS3_EELNS_7options16DataLayoutOption5ValueE0ELb0ELi3EE10cTraversalIZNS_15VLCC18TraversalIS4_S6_LS9_0ELb0ENS_23VLCAllCellsNeighborListIS3_EELNS7_15ContainerOption5ValueE6EE21traverseParticlePairsEvEUlmmmE_EEvOT_RKSt5arrayImLm3EESO_SO_._omp_fn.0
00000000002c97a0 t _ZN7autopas15CBasedTraversalINS_16FullParticleCellINS_10MoleculeLJIdEEEENS_27VLCAllCellsGeneratorFunctorIS3_EELNS_7options16DataLayoutOption5ValueE0ELb0ELi3EE10cTraversalIZNS_15VLCC18TraversalIS4_S6_LS9_0ELb0ENS_23VLCCellPairNeighborListIS3_EELNS7_15ContainerOption5ValueE7EE21traverseParticlePairsEvEUlmmmE_EEvOT_RKSt5arrayImLm3EESO_SO_._omp_fn.0
0000000000322710 t _ZN7autopas15CBasedTraversalINS_16FullParticleCellINS_10MoleculeLJIdEEEENS_27VLCAllCellsGeneratorFunctorIS3_EELNS_7options16DataLayoutOption5ValueE0ELb0ELi3EE10cTraversalIZNS_23VLCCellPairC08TraversalIS4_S6_LS9_0ELb0EE21traverseParticlePairsEvEUlmmmE_EEvOT_RKSt5arrayImLm3EESK_SK_._omp_fn.0
0000000000207390 W _ZN7autopas15CBasedTraversalINS_16FullParticleCellINS_10MoleculeLJIdEEEENS_27VLCAllCellsGeneratorFunctorIS3_EELNS_7options16DataLayoutOption5ValueE0ELb0ELi3EE12endTraversalEv
00000000002128b0 t _ZN7autopas15CBasedTraversalINS_16FullParticleCellINS_10MoleculeLJIdEEEENS_27VLCAllCellsGeneratorFunctorIS3_EELNS_7options16DataLayoutOption5ValueE0ELb0ELi3EE12endTraversalEv._omp_fn.0
0000000000205e90 W _ZN7autopas15CBasedTraversalINS_16FullParticleCellINS_10MoleculeLJIdEEEENS_27VLCAllCellsGeneratorFunctorIS3_EELNS_7options16DataLayoutOption5ValueE0ELb0ELi3EE13initTraversalEv
0000000000212990 t _ZN7autopas15CBasedTraversalINS_16FullParticleCellINS_10MoleculeLJIdEEEENS_27VLCAllCellsGeneratorFunctorIS3_EELNS_7options16DataLayoutOption5ValueE0ELb0ELi3EE13initTraversalEv._omp_fn.0
00000000001f93e0 W _ZN7autopas15CBasedTraversalINS_16FullParticleCellINS_10MoleculeLJIdEEEENS_27VLCAllCellsGeneratorFunctorIS3_EELNS_7options16DataLayoutOption5ValueE0ELb0ELi3EE17notifyColorChangeEm
00000000002e0290 W _ZN7autopas15CBasedTraversalINS_16FullParticleCellINS_10MoleculeLJIdEEEENS_27VLCAllCellsGeneratorFunctorIS3_EELNS_7options16DataLayoutOption5ValueE0ELb0ELi3EEC1ERKSt5arrayImLm3EEPS6_dRKSB_IdLm3EE
00000000002e0290 W _ZN7autopas15CBasedTraversalINS_16FullParticleCellINS_10MoleculeLJIdEEEENS_27VLCAllCellsGeneratorFunctorIS3_EELNS_7options16DataLayoutOption5ValueE0ELb0ELi3EEC2ERKSt5arrayImLm3EEPS6_dRKSB_IdLm3EE
00000000003c2590 t _ZN7autopas15CBasedTraversalINS_16FullParticleCellINS_10MoleculeLJIdEEEENS_27VLCAllCellsGeneratorFunctorIS3_EELNS_7options16DataLayoutOption5ValueE0ELb1ELi2EE10cTraversalIZNS_14LCC01TraversalIS4_S6_LS9_0ELb1ELb1EE21traverseParticlePairsEvEUlmmmE_EEvOT_RKSt5arrayImLm3EESK_SK_._omp_fn.0
00000000003ce2e0 t _ZN7autopas15CBasedTraversalINS_16FullParticleCellINS_10MoleculeLJIdEEEENS_27VLCAllCellsGeneratorFunctorIS3_EELNS_7options16DataLayoutOption5ValueE0ELb1ELi2EE10cTraversalIZNS_25LCC04CombinedSoATraversalIS4_S6_LS9_0ELb1EE21traverseParticlePairsEvEUlmmmE_EEvOT_RKSt5arrayImLm3EESK_SK_._omp_fn.0
00000000002074b0 W _ZN7autopas15CBasedTraversalINS_16FullParticleCellINS_10MoleculeLJIdEEEENS_27VLCAllCellsGeneratorFunctorIS3_EELNS_7options16DataLayoutOption5ValueE0ELb1ELi2EE12endTraversalEv
0000000000212880 t _ZN7autopas15CBasedTraversalINS_16FullParticleCellINS_10MoleculeLJIdEEEENS_27VLCAllCellsGeneratorFunctorIS3_EELNS_7options16DataLayoutOption5ValueE0ELb1ELi2EE12endTraversalEv._omp_fn.0
0000000000205fb0 W _ZN7autopas15CBasedTraversalINS_16FullParticleCellINS_10MoleculeLJIdEEEENS_27VLCAllCellsGeneratorFunctorIS3_EELNS_7options16DataLayoutOption5ValueE0ELb1ELi2EE13initTraversalEv
0000000000212970 t _ZN7autopas15CBasedTraversalINS_16FullParticleCellINS_10MoleculeLJIdEEEENS_27VLCAllCellsGeneratorFunctorIS3_EELNS_7options16DataLayoutOption5ValueE0ELb1ELi2EE13initTraversalEv._omp_fn.0
00000000001fa770 W _ZN7autopas15CBasedTraversalINS_16FullParticleCellINS_10MoleculeLJIdEEEENS_27VLCAllCellsGeneratorFunctorIS3_EELNS_7options16DataLayoutOption5ValueE0ELb1ELi2EE17notifyColorChangeEm
000000000033f3e0 t _ZN7autopas15CBasedTraversalINS_16FullParticleCellINS_10MoleculeLJIdEEEENS_27VLCAllCellsGeneratorFunctorIS3_EELNS_7options16DataLayoutOption5ValueE0ELb1ELi3EE10cTraversalIZNS_14LCC01TraversalIS4_S6_LS9_0ELb1ELb0EE21traverseParticlePairsEvEUlmmmE_EEvOT_RKSt5arrayImLm3EESK_SK_._omp_fn.0
000000000033b0f0 t _ZN7autopas15CBasedTraversalINS_16FullParticleCellINS_10MoleculeLJIdEEEENS_27VLCAllCellsGeneratorFunctorIS3_EELNS_7options16DataLayoutOption5ValueE0ELb1ELi3EE10cTraversalIZNS_14LCC08TraversalIS4_S6_LS9_0ELb1EE21traverseParticlePairsEvEUlmmmE_EEvOT_RKSt5arrayImLm3EESK_SK_._omp_fn.0
000000000033ab40 t _ZN7autopas15CBasedTraversalINS_16FullParticleCellINS_10MoleculeLJIdEEEENS_27VLCAllCellsGeneratorFunctorIS3_EELNS_7options16DataLayoutOption5ValueE0ELb1ELi3EE10cTraversalIZNS_14LCC18TraversalIS4_S6_LS9_0ELb1EE21traverseParticlePairsEvEUlmmmE_EEvOT_RKSt5arrayImLm3EESK_SK_._omp_fn.0
0000000000324360 t _ZN7autopas15CBasedTraversalINS_16FullParticleCellINS_10MoleculeLJIdEEEENS_27VLCAllCellsGeneratorFunctorIS3_EELNS_7options16DataLayoutOption5ValueE0ELb1ELi3EE10cTraversalIZNS_15VCLC06TraversalIS4_S6_LS9_0ELb1EE21traverseParticlePairsEvEUlmmmE_EEvOT_RKSt5arrayImLm3EESK_SK_._omp_fn.0
0000000000325080 t _ZN7autopas15CBasedTraversalINS_16FullParticleCellINS_10MoleculeLJIdEEEENS_27VLCAllCellsGeneratorFunctorIS3_EELNS_7options16DataLayoutOption5ValueE0ELb1ELi3EE10cTraversalIZNS_15VLCC01TraversalIS4_S6_LS9_0ELb1ENS_23VLCAllCellsNeighborListIS3_EELNS7_15ContainerOption5ValueE6EE21traverseParticlePairsEvEUlmmmE_EEvOT_RKSt5arrayImLm3EESO_SO_._omp_fn.0
00000000002c9190 t _ZN7autopas15CBasedTraversalINS_16FullParticleCellINS_10MoleculeLJIdEEEENS_27VLCAllCellsGeneratorFunctorIS3_EELNS_7options16DataLayoutOption5ValueE0ELb1ELi3EE10cTraversalIZNS_15VLCC01TraversalIS4_S6_LS9_0ELb1ENS_23VLCCellPairNeighborListIS3_EELNS7_15ContainerOption5ValueE7EE21traverseParticlePairsEvEUlmmmE_EEvOT_RKSt5arrayImLm3EESO_SO_._omp_fn.0
0000000000324b70 t _ZN7autopas15CBasedTraversalINS_16FullParticleCellINS_10MoleculeLJIdEEEENS_27VLCAllCellsGeneratorFunctorIS3_EELNS_7options16DataLayoutOption5ValueE0ELb1ELi3EE10cTraversalIZNS_15VLCC18TraversalIS4_S6_LS9_0ELb1ENS_23VLCAllCellsNeighborListIS3_EELNS7_15ContainerOption5ValueE6EE21traverseParticlePairsEvEUlmmmE_EEvOT_RKSt5arrayImLm3EESO_SO_._omp_fn.0
00000000002c9db0 t _ZN7autopas15CBasedTraversalINS_16FullParticleCellINS_10MoleculeLJIdEEEENS_27VLCAllCellsGeneratorFunctorIS3_EELNS_7options16DataLayoutOption5ValueE0ELb1ELi3EE10cTraversalIZNS_15VLCC18TraversalIS4_S6_LS9_0ELb1ENS_23VLCCellPairNeighborListIS3_EELNS7_15ContainerOption5ValueE7EE21traverseParticlePairsEvEUlmmmE_EEvOT_RKSt5arrayImLm3EESO_SO_._omp_fn.0
00000000002ca9d0 t _ZN7autopas15CBasedTraversalINS_16FullParticleCellINS_10MoleculeLJIdEEEENS_27VLCAllCellsGeneratorFunctorIS3_EELNS_7options16DataLayoutOption5ValueE0ELb1ELi3EE10cTraversalIZNS_23VLCCellPairC08TraversalIS4_S6_LS9_0ELb1EE21traverseParticlePairsEvEUlmmmE_EEvOT_RKSt5arrayImLm3EESK_SK_._omp_fn.0
0000000000207510 W _ZN7autopas15CBasedTraversalINS_16FullParticleCellINS_10MoleculeLJIdEEEENS_27VLCAllCellsGeneratorFunctorIS3_EELNS_7options16DataLayoutOption5ValueE0ELb1ELi3EE12endTraversalEv
0000000000212870 t _ZN7autopas15CBasedTraversalINS_16FullParticleCellINS_10MoleculeLJIdEEEENS_27VLCAllCellsGeneratorFunctorIS3_EELNS_7options16DataLayoutOption5ValueE0ELb1ELi3EE12endTraversalEv._omp_fn.0
0000000000206010 W _ZN7autopas15CBasedTraversalINS_16FullParticleCellINS_10MoleculeLJIdEEEENS_27VLCAllCellsGeneratorFunctorIS3_EELNS_7options16DataLayoutOption5ValueE0ELb1ELi3EE13initTraversalEv
0000000000212960 t _ZN7autopas15CBasedTraversalINS_16FullParticleCellINS_10MoleculeLJIdEEEENS_27VLCAllCellsGeneratorFunctorIS3_EELNS_7options16DataLayoutOption5ValueE0ELb1ELi3EE13initTraversalEv._omp_fn.0
00000000001f9f90 W _ZN7autopas15CBasedTraversalINS_16FullParticleCellINS_10MoleculeLJIdEEEENS_27VLCAllCellsGeneratorFunctorIS3_EELNS_7options16DataLayoutOption5ValueE0ELb1ELi3EE17notifyColorChangeEm
00000000002e0190 W _ZN7autopas15CBasedTraversalINS_16FullParticleCellINS_10MoleculeLJIdEEEENS_27VLCAllCellsGeneratorFunctorIS3_EELNS_7options16DataLayoutOption5ValueE0ELb1ELi3EEC1ERKSt5arrayImLm3EEPS6_dRKSB_IdLm3EE
00000000002e0190 W _ZN7autopas15CBasedTraversalINS_16FullParticleCellINS_10MoleculeLJIdEEEENS_27VLCAllCellsGeneratorFunctorIS3_EELNS_7options16DataLayoutOption5ValueE0ELb1ELi3EEC2ERKSt5arrayImLm3EEPS6_dRKSB_IdLm3EE
00000000003c05f0 t _ZN7autopas15CBasedTraversalINS_16FullParticleCellINS_10MoleculeLJIdEEEENS_27VLCAllCellsGeneratorFunctorIS3_EELNS_7options16DataLayoutOption5ValueE1ELb0ELi2EE10cTraversalIZNS_14LCC01TraversalIS4_S6_LS9_1ELb0ELb1EE21traverseParticlePairsEvEUlmmmE_EEvOT_RKSt5arrayImLm3EESK_SK_._omp_fn.0
00000000003d3810 t _ZN7autopas15CBasedTraversalINS_16FullParticleCellINS_10MoleculeLJIdEEEENS_27VLCAllCellsGeneratorFunctorIS3_EELNS_7options16DataLayoutOption5ValueE1ELb0ELi2EE10cTraversalIZNS_25LCC04CombinedSoATraversalIS4_S6_LS9_1ELb0EE21traverseParticlePairsEvEUlmmmE_EEvOT_RKSt5arrayImLm3EESK_SK_._omp_fn.0
0000000000207030 W _ZN7autopas15CBasedTraversalINS_16FullParticleCellINS_10MoleculeLJIdEEEENS_27VLCAllCellsGeneratorFunctorIS3_EELNS_7options16DataLayoutOption5ValueE1ELb0ELi2EE12endTraversalEv
0000000000244a70 t _ZN7autopas15CBasedTraversalINS_16FullParticleCellINS_10MoleculeLJIdEEEENS_27VLCAllCellsGeneratorFunctorIS3_EELNS_7options16DataLayoutOption5ValueE1ELb0ELi2EE12endTraversalEv._omp_fn.0
0000000000205b30 W _ZN7autopas15CBasedTraversalINS_16FullParticleCellINS_10MoleculeLJIdEEEENS_27VLCAllCellsGeneratorFunctorIS3_EELNS_7options16DataLayoutOption5ValueE1ELb0ELi2EE13initTraversalEv
00000000003bc510 t _ZN7autopas15CBasedTraversalINS_16FullParticleCellINS_10MoleculeLJIdEEEENS_27VLCAllCellsGeneratorFunctorIS3_EELNS_7options16DataLayoutOption5ValueE1ELb0ELi2EE13initTraversalEv._omp_fn.0
00000000001f8700 W _ZN7autopas15CBasedTraversalINS_16FullParticleCellINS_10MoleculeLJIdEEEENS_27VLCAllCellsGeneratorFunctorIS3_EELNS_7options16DataLayoutOption5ValueE1ELb0ELi2EE17notifyColorChangeEm
000000000032d110 t _ZN7autopas15CBasedTraversalINS_16FullParticleCellINS_10MoleculeLJIdEEEENS_27VLCAllCellsGeneratorFunctorIS3_EELNS_7options16DataLayoutOption5ValueE1ELb0ELi3EE10cTraversalIZNS_14LCC01TraversalIS4_S6_LS9_1ELb0ELb0EE21traverseParticlePairsEvEUlmmmE_EEvOT_RKSt5arrayImLm3EESK_SK_._omp_fn.0
000000000032bde0 t _ZN7autopas15CBasedTraversalINS_16FullParticleCellINS_10MoleculeLJIdEEEENS_27VLCAllCellsGeneratorFunctorIS3_EELNS_7options16DataLayoutOption5ValueE1ELb0ELi3EE10cTraversalIZNS_14LCC08TraversalIS4_S6_LS9_1ELb0EE21traverseParticlePairsEvEUlmmmE_EEvOT_RKSt5arrayImLm3EESK_SK_._omp_fn.0
000000000032b620 t _ZN7autopas15CBasedTraversalINS_16FullParticleCellINS_10MoleculeLJIdEEEENS_27VLCAllCellsGeneratorFunctorIS3_EELNS_7options16DataLayoutOption5ValueE1ELb0ELi3EE10cTraversalIZNS_14LCC18TraversalIS4_S6_LS9_1ELb0EE21traverseParticlePairsEvEUlmmmE_EEvOT_RKSt5arrayImLm3EESK_SK_._omp_fn.0
000000000031e100 t _ZN7autopas15CBasedTraversalINS_16FullParticleCellINS_10MoleculeLJIdEEEENS_27VLCAllCellsGeneratorFunctorIS3_EELNS_7options16DataLayoutOption5ValueE1ELb0ELi3EE10cTraversalIZNS_15VCLC06TraversalIS4_S6_LS9_1ELb0EE21traverseParticlePairsEvEUlmmmE_EEvOT_RKSt5arrayImLm3EESK_SK_._omp_fn.0
0000000000239c70 t _ZN7autopas15CBasedTraversalINS_16FullParticleCellINS_10MoleculeLJIdEEEENS_27VLCAllCellsGeneratorFunctorIS3_EELNS_7options16DataLayoutOption5ValueE1ELb0ELi3EE10cTraversalIZNS_15VLCC01TraversalIS4_S6_LS9_1ELb0ENS_23VLCAllCellsNeighborListIS3_EELNS7_15ContainerOption5ValueE6EE21traverseParticlePairsEvEUlmmmE_EEvOT_RKSt5arrayImLm3EESO_SO_._omp_fn.0
00000000002301e0 t _ZN7autopas15CBasedTraversalINS_16FullParticleCellINS_10MoleculeLJIdEEEENS_27VLCAllCellsGeneratorFunctorIS3_EELNS_7options16DataLayoutOption5ValueE1ELb0ELi3EE10cTraversalIZNS_15VLCC01TraversalIS4_S6_LS9_1ELb0ENS_23VLCCellPairNeighborListIS3_EELNS7_15ContainerOption5ValueE7EE21traverseParticlePairsEvEUlmmmE_EEvOT_RKSt5arrayImLm3EESO_SO_._omp_fn.0
00000000002374a0 t _ZN7autopas15CBasedTraversalINS_16FullParticleCellINS_10MoleculeLJIdEEEENS_27VLCAllCellsGeneratorFunctorIS3_EELNS_7options16DataLayoutOption5ValueE1ELb0ELi3EE10cTraversalIZNS_15VLCC18TraversalIS4_S6_LS9_1ELb0ENS_23VLCAllCellsNeighborListIS3_EELNS7_15ContainerOption5ValueE6EE21traverseParticlePairsEvEUlmmmE_EEvOT_RKSt5arrayImLm3EESO_SO_._omp_fn.0
000000000022f640 t _ZN7autopas15CBasedTraversalINS_16FullParticleCellINS_10MoleculeLJIdEEEENS_27VLCAllCellsGeneratorFunctorIS3_EELNS_7options16DataLayoutOption5ValueE1ELb0ELi3EE10cTraversalIZNS_15VLCC18TraversalIS4_S6_LS9_1ELb0ENS_23VLCCellPairNeighborListIS3_EELNS7_15ContainerOption5ValueE7EE21traverseParticlePairsEvEUlmmmE_EEvOT_RKSt5arrayImLm3EESO_SO_._omp_fn.0
0000000000231b50 t _ZN7autopas15CBasedTraversalINS_16FullParticleCellINS_10MoleculeLJIdEEEENS_27VLCAllCellsGeneratorFunctorIS3_EELNS_7options16DataLayoutOption5ValueE1ELb0ELi3EE10cTraversalIZNS_23VLCCellPairC08TraversalIS4_S6_LS9_1ELb0EE21traverseParticlePairsEvEUlmmmE_EEvOT_RKSt5arrayImLm3EESK_SK_._omp_fn.0
0000000000207090 W _ZN7autopas15CBasedTraversalINS_16FullParticleCellINS_10MoleculeLJIdEEEENS_27VLCAllCellsGeneratorFunctorIS3_EELNS_7options16DataLayoutOption5ValueE1ELb0ELi3EE12endTraversalEv
0000000000243f30 t _ZN7autopas15CBasedTraversalINS_16FullParticleCellINS_10MoleculeLJIdEEEENS_27VLCAllCellsGeneratorFunctorIS3_EELNS_7options16DataLayoutOption5ValueE1ELb0ELi3EE12endTraversalEv._omp_fn.0
0000000000205b90 W _ZN7autopas15CBasedTraversalINS_16FullParticleCellINS_10MoleculeLJIdEEEENS_27VLCAllCellsGeneratorFunctorIS3_EELNS_7options16DataLayoutOption5ValueE1ELb0ELi3EE13initTraversalEv
00000000003bc5c0 t _ZN7autopas15CBasedTraversalINS_16FullParticleCellINS_10MoleculeLJIdEEEENS_27VLCAllCellsGeneratorFunctorIS3_EELNS_7options16DataLayoutOption5ValueE1ELb0ELi3EE13initTraversalEv._omp_fn.0
00000000001f8030 W _ZN7autopas15CBasedTraversalINS_16FullParticleCellINS_10MoleculeLJIdEEEENS_27VLCAllCellsGeneratorFunctorIS3_EELNS_7options16DataLayoutOption5ValueE1ELb0ELi3EE17notifyColorChangeEm
00000000002e0490 W _ZN7autopas15CBasedTraversalINS_16FullParticleCellINS_10MoleculeLJIdEEEENS_27VLCAllCellsGeneratorFunctorIS3_EELNS_7options16DataLayoutOption5ValueE1ELb0ELi3EEC1ERKSt5arrayImLm3EEPS6_dRKSB_IdLm3EE
00000000002e0490 W _ZN7autopas15CBasedTraversalINS_16FullParticleCellINS_10MoleculeLJIdEEEENS_27VLCAllCellsGeneratorFunctorIS3_EELNS_7options16DataLayoutOption5ValueE1ELb0ELi3EEC2ERKSt5arrayImLm3EEPS6_dRKSB_IdLm3EE
00000000003c1050 t _ZN7autopas15CBasedTraversalINS_16FullParticleCellINS_10MoleculeLJIdEEEENS_27VLCAllCellsGeneratorFunctorIS3_EELNS_7options16DataLayoutOption5ValueE1ELb1ELi2EE10cTraversalIZNS_14LCC01TraversalIS4_S6_LS9_1ELb1ELb1EE21traverseParticlePairsEvEUlmmmE_EEvOT_RKSt5arrayImLm3EESK_SK_._omp_fn.0
00000000003d1a40 t _ZN7autopas15CBasedTraversalINS_16FullParticleCellINS_10MoleculeLJIdEEEENS_27VLCAllCellsGeneratorFunctorIS3_EELNS_7options16DataLayoutOption5ValueE1ELb1ELi2EE10cTraversalIZNS_25LCC04CombinedSoATraversalIS4_S6_LS9_1ELb1EE21traverseParticlePairsEvEUlmmmE_EEvOT_RKSt5arrayImLm3EESK_SK_._omp_fn.0
00000000002071b0 W _ZN7autopas15CBasedTraversalINS_16FullParticleCellINS_10MoleculeLJIdEEEENS_27VLCAllCellsGeneratorFunctorIS3_EELNS_7options16DataLayoutOption5ValueE1ELb1ELi2EE12endTraversalEv
0000000000244830 t _ZN7autopas15CBasedTraversalINS_16FullParticleCellINS_10MoleculeLJIdEEEENS_27VLCAllCellsGeneratorFunctorIS3_EELNS_7options16DataLayoutOption5ValueE1ELb1ELi2EE12endTraversalEv._omp_fn.0
0000000000205cb0 W _ZN7autopas15CBasedTraversalINS_16FullParticleCellINS_10MoleculeLJIdEEEENS_27VLCAllCellsGeneratorFunctorIS3_EELNS_7options16DataLayoutOption5ValueE1ELb1ELi2EE13initTraversalEv
00000000003bc720 t _ZN7autopas15CBasedTraversalINS_16FullParticleCellINS_10MoleculeLJIdEEEENS_27VLCAllCellsGeneratorFunctorIS3_EELNS_7options16DataLayoutOption5ValueE1ELb1ELi2EE13initTraversalEv._omp_fn.0
00000000001f9030 W _ZN7autopas15CBasedTraversalINS_16FullParticleCellINS_10MoleculeLJIdEEEENS_27VLCAllCellsGeneratorFunctorIS3_EELNS_7options16DataLayoutOption5ValueE1ELb1ELi2EE17notifyColorChangeEm
000000000032dc60 t _ZN7autopas15CBasedTraversalINS_16FullParticleCellINS_10MoleculeLJIdEEEENS_27VLCAllCellsGeneratorFunctorIS3_EELNS_7options16DataLayoutOption5ValueE1ELb1ELi3EE10cTraversalIZNS_14LCC01TraversalIS4_S6_LS9_1ELb1ELb0EE21traverseParticlePairsEvEUlmmmE_EEvOT_RKSt5arrayImLm3EESK_SK_._omp_fn.0
00000000003318d0 t _ZN7autopas15CBasedTraversalINS_16FullParticleCellINS_10MoleculeLJIdEEEENS_27VLCAllCellsGeneratorFunctorIS3_EELNS_7options16DataLayoutOption5ValueE1ELb1ELi3EE10cTraversalIZNS_14LCC08TraversalIS4_S6_LS9_1ELb1EE21traverseParticlePairsEvEUlmmmE_EEvOT_RKSt5arrayImLm3EESK_SK_._omp_fn.0
0000000000331100 t _ZN7autopas15CBasedTraversalINS_16FullParticleCellINS_10MoleculeLJIdEEEENS_27VLCAllCellsGeneratorFunctorIS3_EELNS_7options16DataLayoutOption5ValueE1ELb1ELi3EE10cTraversalIZNS_14LCC18TraversalIS4_S6_LS9_1ELb1EE21traverseParticlePairsEvEUlmmmE_EEvOT_RKSt5arrayImLm3EESK_SK_._omp_fn.0
000000000031eb20 t _ZN7autopas15CBasedTraversalINS_16FullParticleCellINS_10MoleculeLJIdEEEENS_27VLCAllCellsGeneratorFunctorIS3_EELNS_7options16DataLayoutOption5ValueE1ELb1ELi3EE10cTraversalIZNS_15VCLC06TraversalIS4_S6_LS9_1ELb1EE21traverseParticlePairsEvEUlmmmE_EEvOT_RKSt5arrayImLm3EESK_SK_._omp_fn.0
0000000000239110 t _ZN7autopas15CBasedTraversalINS_16FullParticleCellINS_10MoleculeLJIdEEEENS_27VLCAllCellsGeneratorFunctorIS3_EELNS_7options16DataLayoutOption5ValueE1ELb1ELi3EE10cTraversalIZNS_15VLCC01TraversalIS4_S6_LS9_1ELb1ENS_23VLCAllCellsNeighborListIS3_EELNS7_15ContainerOption5ValueE6EE21traverseParticlePairsEvEUlmmmE_EEvOT_RKSt5arrayImLm3EESO_SO_._omp_fn.0
00000000002307b0 t _ZN7autopas15CBasedTraversalINS_16FullParticleCellINS_10MoleculeLJIdEEEENS_27VLCAllCellsGeneratorFunctorIS3_EELNS_7options16DataLayoutOption5ValueE1ELb1ELi3EE10cTraversalIZNS_15VLCC01TraversalIS4_S6_LS9_1ELb1ENS_23VLCCellPairNeighborListIS3_EELNS7_15ContainerOption5ValueE7EE21traverseParticlePairsEvEUlmmmE_EEvOT_RKSt5arrayImLm3EESO_SO_._omp_fn.0
0000000000238b60 t _ZN7autopas15CBasedTraversalINS_16FullParticleCellINS_10MoleculeLJIdEEEENS_27VLCAllCellsGeneratorFunctorIS3_EELNS_7options16DataLayoutOption5ValueE1ELb1ELi3EE10cTraversalIZNS_15VLCC18TraversalIS4_S6_LS9_1ELb1ENS_23VLCAllCellsNeighborListIS3_EELNS7_15ContainerOption5ValueE6EE21traverseParticlePairsEvEUlmmmE_EEvOT_RKSt5arrayImLm3EESO_SO_._omp_fn.0
0000000000230d80 t _ZN7autopas15CBasedTraversalINS_16FullParticleCellINS_10MoleculeLJIdEEEENS_27VLCAllCellsGeneratorFunctorIS3_EELNS_7options16DataLayoutOption5ValueE1ELb1ELi3EE10cTraversalIZNS_15VLCC18TraversalIS4_S6_LS9_1ELb1ENS_23VLCCellPairNeighborListIS3_EELNS7_15ContainerOption5ValueE7EE21traverseParticlePairsEvEUlmmmE_EEvOT_RKSt5arrayImLm3EESO_SO_._omp_fn.0
000000000022b740 t _ZN7autopas15CBasedTraversalINS_16FullParticleCellINS_10MoleculeLJIdEEEENS_27VLCAllCellsGeneratorFunctorIS3_EELNS_7options16DataLayoutOption5ValueE1ELb1ELi3EE10cTraversalIZNS_23VLCCellPairC08TraversalIS4_S6_LS9_1ELb1EE21traverseParticlePairsEvEUlmmmE_EEvOT_RKSt5arrayImLm3EESK_SK_._omp_fn.0
0000000000207210 W _ZN7autopas15CBasedTraversalINS_16FullParticleCellINS_10MoleculeLJIdEEEENS_27VLCAllCellsGeneratorFunctorIS3_EELNS_7options16DataLayoutOption5ValueE1ELb1ELi3EE12endTraversalEv
00000000002433f0 t _ZN7autopas15CBasedTraversalINS_16FullParticleCellINS_10MoleculeLJIdEEEENS_27VLCAllCellsGeneratorFunctorIS3_EELNS_7options16DataLayoutOption5ValueE1ELb1ELi3EE12endTraversalEv._omp_fn.0
0000000000205d10 W _ZN7autopas15CBasedTraversalINS_16FullParticleCellINS_10MoleculeLJIdEEEENS_27VLCAllCellsGeneratorFunctorIS3_EELNS_7options16DataLayoutOption5ValueE1ELb1ELi3EE13initTraversalEv
00000000003bc7d0 t _ZN7autopas15CBasedTraversalINS_16FullParticleCellINS_10MoleculeLJIdEEEENS_27VLCAllCellsGeneratorFunctorIS3_EELNS_7options16DataLayoutOption5ValueE1ELb1ELi3EE13initTraversalEv._omp_fn.0
00000000001f8960 W _ZN7autopas15CBasedTraversalINS_16FullParticleCellINS_10MoleculeLJIdEEEENS_27VLCAllCellsGeneratorFunctorIS3_EELNS_7options16DataLayoutOption5ValueE1ELb1ELi3EE17notifyColorChangeEm
00000000002e0390 W _ZN7autopas15CBasedTraversalINS_16FullParticleCellINS_10MoleculeLJIdEEEENS_27VLCAllCellsGeneratorFunctorIS3_EELNS_7options16DataLayoutOption5ValueE1ELb1ELi3EEC1ERKSt5arrayImLm3EEPS6_dRKSB_IdLm3EE
00000000002e0390 W _ZN7autopas15CBasedTraversalINS_16FullParticleCellINS_10MoleculeLJIdEEEENS_27VLCAllCellsGeneratorFunctorIS3_EELNS_7options16DataLayoutOption5ValueE1ELb1ELi3EEC2ERKSt5arrayImLm3EEPS6_dRKSB_IdLm3EE
00000000003c44f0 t _ZN7autopas15CBasedTraversalINS_16FullParticleCellINS_10MoleculeLJIdEEEENS_27VLCCellPairGeneratorFunctorIS3_EELNS_7options16DataLayoutOption5ValueE0ELb0ELi2EE10cTraversalIZNS_14LCC01TraversalIS4_S6_LS9_0ELb0ELb1EE21traverseParticlePairsEvEUlmmmE_EEvOT_RKSt5arrayImLm3EESK_SK_._omp_fn.0
00000000003c8f60 t _ZN7autopas15CBasedTraversalINS_16FullParticleCellINS_10MoleculeLJIdEEEENS_27VLCCellPairGeneratorFunctorIS3_EELNS_7options16DataLayoutOption5ValueE0ELb0ELi2EE10cTraversalIZNS_25LCC04CombinedSoATraversalIS4_S6_LS9_0ELb0EE21traverseParticlePairsEvEUlmmmE_EEvOT_RKSt5arrayImLm3EESK_SK_._omp_fn.0
0000000000207ab0 W _ZN7autopas15CBasedTraversalINS_16FullParticleCellINS_10MoleculeLJIdEEEENS_27VLCCellPairGeneratorFunctorIS3_EELNS_7options16DataLayoutOption5ValueE0ELb0ELi2EE12endTraversalEv
0000000000212840 t _ZN7autopas15CBasedTraversalINS_16FullParticleCellINS_10MoleculeLJIdEEEENS_27VLCCellPairGeneratorFunctorIS3_EELNS_7options16DataLayoutOption5ValueE0ELb0ELi2EE12endTraversalEv._omp_fn.0
00000000002065b0 W _ZN7autopas15CBasedTraversalINS_16FullParticleCellINS_10MoleculeLJIdEEEENS_27VLCCellPairGeneratorFunctorIS3_EELNS_7options16DataLayoutOption5ValueE0ELb0ELi2EE13initTraversalEv
0000000000212940 t _ZN7autopas15CBasedTraversalINS_16FullParticleCellINS_10MoleculeLJIdEEEENS_27VLCCellPairGeneratorFunctorIS3_EELNS_7options16DataLayoutOption5ValueE0ELb0ELi2EE13initTraversalEv._omp_fn.0
00000000001fc820 W _ZN7autopas15CBasedTraversalINS_16FullParticleCellINS_10MoleculeLJIdEEEENS_27VLCCellPairGeneratorFunctorIS3_EELNS_7options16DataLayoutOption5ValueE0ELb0ELi2EE17notifyColorChangeEm
0000000000387c00 t _ZN7autopas15CBasedTraversalINS_16FullParticleCellINS_10MoleculeLJIdEEEENS_27VLCCellPairGeneratorFunctorIS3_EELNS_7options16DataLayoutOption5ValueE0ELb0ELi3EE10cTraversalIZNS_14LCC01TraversalIS4_S6_LS9_0ELb0ELb0EE21traverseParticlePairsEvEUlmmmE_EEvOT_RKSt5arrayImLm3EESK_SK_._omp_fn.0
000000000038a2b0 t _ZN7autopas15CBasedTraversalINS_16FullParticleCellINS_10MoleculeLJIdEEEENS_27VLCCellPairGeneratorFunctorIS3_EELNS_7options16DataLayoutOption5ValueE0ELb0ELi3EE10cTraversalIZNS_14LCC08TraversalIS4_S6_LS9_0ELb0EE21traverseParticlePairsEvEUlmmmE_EEvOT_RKSt5arrayImLm3EESK_SK_._omp_fn.0
0000000000389d00 t _ZN7autopas15CBasedTraversalINS_16FullParticleCellINS_10MoleculeLJIdEEEENS_27VLCCellPairGeneratorFunctorIS3_EELNS_7options16DataLayoutOption5ValueE0ELb0ELi3EE10cTraversalIZNS_14LCC18TraversalIS4_S6_LS9_0ELb0EE21traverseParticlePairsEvEUlmmmE_EEvOT_RKSt5arrayImLm3EESK_SK_._omp_fn.0
00000000003b2090 t _ZN7autopas15CBasedTraversalINS_16FullParticleCellINS_10MoleculeLJIdEEEENS_27VLCCellPairGeneratorFunctorIS3_EELNS_7options16DataLayoutOption5ValueE0ELb0ELi3EE10cTraversalIZNS_15VCLC06TraversalIS4_S6_LS9_0ELb0EE21traverseParticlePairsEvEUlmmmE_EEvOT_RKSt5arrayImLm3EESK_SK_._omp_fn.0
00000000003b0ee0 t _ZN7autopas15CBasedTraversalINS_16FullParticleCellINS_10MoleculeLJIdEEEENS_27VLCCellPairGeneratorFunctorIS3_EELNS_7options16DataLayoutOption5ValueE0ELb0ELi3EE10cTraversalIZNS_15VLCC01TraversalIS4_S6_LS9_0ELb0ENS_23VLCAllCellsNeighborListIS3_EELNS7_15ContainerOption5ValueE6EE21traverseParticlePairsEvEUlmmmE_EEvOT_RKSt5arrayImLm3EESO_SO_._omp_fn.0
00000000003a64e0 t _ZN7autopas15CBasedTraversalINS_16FullParticleCellINS_10MoleculeLJIdEEEENS_27VLCCellPairGeneratorFunctorIS3_EELNS_7options16DataLayoutOption5ValueE0ELb0ELi3EE10cTraversalIZNS_15VLCC01TraversalIS4_S6_LS9_0ELb0ENS_23VLCCellPairNeighborListIS3_EELNS7_15ContainerOption5ValueE7EE21traverseParticlePairsEvEUlmmmE_EEvOT_RKSt5arrayImLm3EESO_SO_._omp_fn.0
00000000003b0860 t _ZN7autopas15CBasedTraversalINS_16FullParticleCellINS_10MoleculeLJIdEEEENS_27VLCCellPairGeneratorFunctorIS3_EELNS_7options16DataLayoutOption5ValueE0ELb0ELi3EE10cTraversalIZNS_15VLCC18TraversalIS4_S6_LS9_0ELb0ENS_23VLCAllCellsNeighborListIS3_EELNS7_15ContainerOption5ValueE6EE21traverseParticlePairsEvEUlmmmE_EEvOT_RKSt5arrayImLm3EESO_SO_._omp_fn.0
00000000003a5cc0 t _ZN7autopas15CBasedTraversalINS_16FullParticleCellINS_10MoleculeLJIdEEEENS_27VLCCellPairGeneratorFunctorIS3_EELNS_7options16DataLayoutOption5ValueE0ELb0ELi3EE10cTraversalIZNS_15VLCC18TraversalIS4_S6_LS9_0ELb0ENS_23VLCCellPairNeighborListIS3_EELNS7_15ContainerOption5ValueE7EE21traverseParticlePairsEvEUlmmmE_EEvOT_RKSt5arrayImLm3EESO_SO_._omp_fn.0
00000000003ad0a0 t _ZN7autopas15CBasedTraversalINS_16FullParticleCellINS_10MoleculeLJIdEEEENS_27VLCCellPairGeneratorFunctorIS3_EELNS_7options16DataLayoutOption5ValueE0ELb0ELi3EE10cTraversalIZNS_23VLCCellPairC08TraversalIS4_S6_LS9_0ELb0EE21traverseParticlePairsEvEUlmmmE_EEvOT_RKSt5arrayImLm3EESK_SK_._omp_fn.0
0000000000207b10 W _ZN7autopas15CBasedTraversalINS_16FullParticleCellINS_10MoleculeLJIdEEEENS_27VLCCellPairGeneratorFunctorIS3_EELNS_7options16DataLayoutOption5ValueE0ELb0ELi3EE12endTraversalEv
0000000000212830 t _ZN7autopas15CBasedTraversalINS_16FullParticleCellINS_10MoleculeLJIdEEEENS_27VLCCellPairGeneratorFunctorIS3_EELNS_7options16DataLayoutOption5ValueE0ELb0ELi3EE12endTraversalEv._omp_fn.0
0000000000206610 W _ZN7autopas15CBasedTraversalINS_16FullParticleCellINS_10MoleculeLJIdEEEENS_27VLCCellPairGeneratorFunctorIS3_EELNS_7options16DataLayoutOption5ValueE0ELb0ELi3EE13initTraversalEv
0000000000212930 t _ZN7autopas15CBasedTraversalINS_16FullParticleCellINS_10MoleculeLJIdEEEENS_27VLCCellPairGeneratorFunctorIS3_EELNS_7options16DataLayoutOption5ValueE0ELb0ELi3EE13initTraversalEv._omp_fn.0
00000000001fc040 W _ZN7autopas15CBasedTraversalINS_16FullParticleCellINS_10MoleculeLJIdEEEENS_27VLCCellPairGeneratorFunctorIS3_EELNS_7options16DataLayoutOption5ValueE0ELb0ELi3EE17notifyColorChangeEm
00000000002def80 W _ZN7autopas15CBasedTraversalINS_16FullParticleCellINS_10MoleculeLJIdEEEENS_27VLCCellPairGeneratorFunctorIS3_EELNS_7options16DataLayoutOption5ValueE0ELb0ELi3EEC1ERKSt5arrayImLm3EEPS6_dRKSB_IdLm3EE
00000000002def80 W _ZN7autopas15CBasedTraversalINS_16FullParticleCellINS_10MoleculeLJIdEEEENS_27VLCCellPairGeneratorFunctorIS3_EELNS_7options16DataLayoutOption5ValueE0ELb0ELi3EEC2ERKSt5arrayImLm3EEPS6_dRKSB_IdLm3EE
00000000003c4f90 t _ZN7autopas15CBasedTraversalINS_16FullParticleCellINS_10MoleculeLJIdEEEENS_27VLCCellPairGeneratorFunctorIS3_EELNS_7options16DataLayoutOption5ValueE0ELb1ELi2EE10cTraversalIZNS_14LCC01TraversalIS4_S6_LS9_0ELb1ELb1EE21traverseParticlePairsEvEUlmmmE_EEvOT_RKSt5arrayImLm3EESK_SK_._omp_fn.0
00000000003c7040 t _ZN7autopas15CBasedTraversalINS_16FullParticleCellINS_10MoleculeLJIdEEEENS_27VLCCellPairGeneratorFunctorIS3_EELNS_7options16DataLayoutOption5ValueE0ELb1ELi2EE10cTraversalIZNS_25LCC04CombinedSoATraversalIS4_S6_LS9_0ELb1EE21traverseParticlePairsEvEUlmmmE_EEvOT_RKSt5arrayImLm3EESK_SK_._omp_fn.0
0000000000207c30 W _ZN7autopas15CBasedTraversalINS_16FullParticleCellINS_10MoleculeLJIdEEEENS_27VLCCellPairGeneratorFunctorIS3_EELNS_7options16DataLayoutOption5ValueE0ELb1ELi2EE12endTraversalEv
0000000000212800 t _ZN7autopas15CBasedTraversalINS_16FullParticleCellINS_10MoleculeLJIdEEEENS_27VLCCellPairGeneratorFunctorIS3_EELNS_7options16DataLayoutOption5ValueE0ELb1ELi2EE12endTraversalEv._omp_fn.0
0000000000206730 W _ZN7autopas15CBasedTraversalINS_16FullParticleCellINS_10MoleculeLJIdEEEENS_27VLCCellPairGeneratorFunctorIS3_EELNS_7options16DataLayoutOption5ValueE0ELb1ELi2EE13initTraversalEv
0000000000212910 t _ZN7autopas15CBasedTraversalINS_16FullParticleCellINS_10MoleculeLJIdEEEENS_27VLCCellPairGeneratorFunctorIS3_EELNS_7options16DataLayoutOption5ValueE0ELb1ELi2EE13initTraversalEv._omp_fn.0
00000000001fd3d0 W _ZN7autopas15CBasedTraversalINS_16FullParticleCellINS_10MoleculeLJIdEEEENS_27VLCCellPairGeneratorFunctorIS3_EELNS_7options16DataLayoutOption5ValueE0ELb1ELi2EE17notifyColorChangeEm
0000000000388150 t _ZN7autopas15CBasedTraversalINS_16FullParticleCellINS_10MoleculeLJIdEEEENS_27VLCCellPairGeneratorFunctorIS3_EELNS_7options16DataLayoutOption5ValueE0ELb1ELi3EE10cTraversalIZNS_14LCC01TraversalIS4_S6_LS9_0ELb1ELb0EE21traverseParticlePairsEvEUlmmmE_EEvOT_RKSt5arrayImLm3EESK_SK_._omp_fn.0
0000000000385c80 t _ZN7autopas15CBasedTraversalINS_16FullParticleCellINS_10MoleculeLJIdEEEENS_27VLCCellPairGeneratorFunctorIS3_EELNS_7options16DataLayoutOption5ValueE0ELb1ELi3EE10cTraversalIZNS_14LCC08TraversalIS4_S6_LS9_0ELb1EE21traverseParticlePairsEvEUlmmmE_EEvOT_RKSt5arrayImLm3EESK_SK_._omp_fn.0
00000000003856d0 t _ZN7autopas15CBasedTraversalINS_16FullParticleCellINS_10MoleculeLJIdEEEENS_27VLCCellPairGeneratorFunctorIS3_EELNS_7options16DataLayoutOption5ValueE0ELb1ELi3EE10cTraversalIZNS_14LCC18TraversalIS4_S6_LS9_0ELb1EE21traverseParticlePairsEvEUlmmmE_EEvOT_RKSt5arrayImLm3EESK_SK_._omp_fn.0
00000000003af860 t _ZN7autopas15CBasedTraversalINS_16FullParticleCellINS_10MoleculeLJIdEEEENS_27VLCCellPairGeneratorFunctorIS3_EELNS_7options16DataLayoutOption5ValueE0ELb1ELi3EE10cTraversalIZNS_15VCLC06TraversalIS4_S6_LS9_0ELb1EE21traverseParticlePairsEvEUlmmmE_EEvOT_RKSt5arrayImLm3EESK_SK_._omp_fn.0
00000000003b01e0 t _ZN7autopas15CBasedTraversalINS_16FullParticleCellINS_10MoleculeLJIdEEEENS_27VLCCellPairGeneratorFunctorIS3_EELNS_7options16DataLayoutOption5ValueE0ELb1ELi3EE10cTraversalIZNS_15VLCC01TraversalIS4_S6_LS9_0ELb1ENS_23VLCAllCellsNeighborListIS3_EELNS7_15ContainerOption5ValueE6EE21traverseParticlePairsEvEUlmmmE_EEvOT_RKSt5arrayImLm3EESO_SO_._omp_fn.0
00000000003a4c60 t _ZN7autopas15CBasedTraversalINS_16FullParticleCellINS_10MoleculeLJIdEEEENS_27VLCCellPairGeneratorFunctorIS3_EELNS_7options16DataLayoutOption5ValueE0ELb1ELi3EE10cTraversalIZNS_15VLCC01TraversalIS4_S6_LS9_0ELb1ENS_23VLCCellPairNeighborListIS3_EELNS7_15ContainerOption5ValueE7EE21traverseParticlePairsEvEUlmmmE_EEvOT_RKSt5arrayImLm3EESO_SO_._omp_fn.0
00000000003afb60 t _ZN7autopas15CBasedTraversalINS_16FullParticleCellINS_10MoleculeLJIdEEEENS_27VLCCellPairGeneratorFunctorIS3_EELNS_7options16DataLayoutOption5ValueE0ELb1ELi3EE10cTraversalIZNS_15VLCC18TraversalIS4_S6_LS9_0ELb1ENS_23VLCAllCellsNeighborListIS3_EELNS7_15ContainerOption5ValueE6EE21traverseParticlePairsEvEUlmmmE_EEvOT_RKSt5arrayImLm3EESO_SO_._omp_fn.0
00000000003a5490 t _ZN7autopas15CBasedTraversalINS_16FullParticleCellINS_10MoleculeLJIdEEEENS_27VLCCellPairGeneratorFunctorIS3_EELNS_7options16DataLayoutOption5ValueE0ELb1ELi3EE10cTraversalIZNS_15VLCC18TraversalIS4_S6_LS9_0ELb1ENS_23VLCCellPairNeighborListIS3_EELNS7_15ContainerOption5ValueE7EE21traverseParticlePairsEvEUlmmmE_EEvOT_RKSt5arrayImLm3EESO_SO_._omp_fn.0
00000000003a6d00 t _ZN7autopas15CBasedTraversalINS_16FullParticleCellINS_10MoleculeLJIdEEEENS_27VLCCellPairGeneratorFunctorIS3_EELNS_7options16DataLayoutOption5ValueE0ELb1ELi3EE10cTraversalIZNS_23VLCCellPairC08TraversalIS4_S6_LS9_0ELb1EE21traverseParticlePairsEvEUlmmmE_EEvOT_RKSt5arrayImLm3EESK_SK_._omp_fn.0
0000000000207c90 W _ZN7autopas15CBasedTraversalINS_16FullParticleCellINS_10MoleculeLJIdEEEENS_27VLCCellPairGeneratorFunctorIS3_EELNS_7options16DataLayoutOption5ValueE0ELb1ELi3EE12endTraversalEv
00000000002127f0 t _ZN7autopas15CBasedTraversalINS_16FullParticleCellINS_10MoleculeLJIdEEEENS_27VLCCellPairGeneratorFunctorIS3_EELNS_7options16DataLayoutOption5ValueE0ELb1ELi3EE12endTraversalEv._omp_fn.0
0000000000206790 W _ZN7autopas15CBasedTraversalINS_16FullParticleCellINS_10MoleculeLJIdEEEENS_27VLCCellPairGeneratorFunctorIS3_EELNS_7options16DataLayoutOption5ValueE0ELb1ELi3EE13initTraversalEv
0000000000212900 t _ZN7autopas15CBasedTraversalINS_16FullParticleCellINS_10MoleculeLJIdEEEENS_27VLCCellPairGeneratorFunctorIS3_EELNS_7options16DataLayoutOption5ValueE0ELb1ELi3EE13initTraversalEv._omp_fn.0
00000000001fcbf0 W _ZN7autopas15CBasedTraversalINS_16FullParticleCellINS_10MoleculeLJIdEEEENS_27VLCCellPairGeneratorFunctorIS3_EELNS_7options16DataLayoutOption5ValueE0ELb1ELi3EE17notifyColorChangeEm
00000000002dee80 W _ZN7autopas15CBasedTraversalINS_16FullParticleCellINS_10MoleculeLJIdEEEENS_27VLCCellPairGeneratorFunctorIS3_EELNS_7options16DataLayoutOption5ValueE0ELb1ELi3EEC1ERKSt5arrayImLm3EEPS6_dRKSB_IdLm3EE
00000000002dee80 W _ZN7autopas15CBasedTraversalINS_16FullParticleCellINS_10MoleculeLJIdEEEENS_27VLCCellPairGeneratorFunctorIS3_EELNS_7options16DataLayoutOption5ValueE0ELb1ELi3EEC2ERKSt5arrayImLm3EEPS6_dRKSB_IdLm3EE
00000000003c2ff0 t _ZN7autopas15CBasedTraversalINS_16FullParticleCellINS_10MoleculeLJIdEEEENS_27VLCCellPairGeneratorFunctorIS3_EELNS_7options16DataLayoutOption5ValueE1ELb0ELi2EE10cTraversalIZNS_14LCC01TraversalIS4_S6_LS9_1ELb0ELb1EE21traverseParticlePairsEvEUlmmmE_EEvOT_RKSt5arrayImLm3EESK_SK_._omp_fn.0
00000000003cc950 t _ZN7autopas15CBasedTraversalINS_16FullParticleCellINS_10MoleculeLJIdEEEENS_27VLCCellPairGeneratorFunctorIS3_EELNS_7options16DataLayoutOption5ValueE1ELb0ELi2EE10cTraversalIZNS_25LCC04CombinedSoATraversalIS4_S6_LS9_1ELb0EE21traverseParticlePairsEvEUlmmmE_EEvOT_RKSt5arrayImLm3EESK_SK_._omp_fn.0
00000000002077b0 W _ZN7autopas15CBasedTraversalINS_16FullParticleCellINS_10MoleculeLJIdEEEENS_27VLCCellPairGeneratorFunctorIS3_EELNS_7options16DataLayoutOption5ValueE1ELb0ELi2EE12endTraversalEv
0000000000244ef0 t _ZN7autopas15CBasedTraversalINS_16FullParticleCellINS_10MoleculeLJIdEEEENS_27VLCCellPairGeneratorFunctorIS3_EELNS_7options16DataLayoutOption5ValueE1ELb0ELi2EE12endTraversalEv._omp_fn.0
00000000002062b0 W _ZN7autopas15CBasedTraversalINS_16FullParticleCellINS_10MoleculeLJIdEEEENS_27VLCCellPairGeneratorFunctorIS3_EELNS_7options16DataLayoutOption5ValueE1ELb0ELi2EE13initTraversalEv
00000000003be160 t _ZN7autopas15CBasedTraversalINS_16FullParticleCellINS_10MoleculeLJIdEEEENS_27VLCCellPairGeneratorFunctorIS3_EELNS_7options16DataLayoutOption5ValueE1ELb0ELi2EE13initTraversalEv._omp_fn.0
00000000001fb360 W _ZN7autopas15CBasedTraversalINS_16FullParticleCellINS_10MoleculeLJIdEEEENS_27VLCCellPairGeneratorFunctorIS3_EELNS_7options16DataLayoutOption5ValueE1ELb0ELi2EE17notifyColorChangeEm
00000000003b4f50 t _ZN7autopas15CBasedTraversalINS_16FullParticleCellINS_10MoleculeLJIdEEEENS_27VLCCellPairGeneratorFunctorIS3_EELNS_7options16DataLayoutOption5ValueE1ELb0ELi3EE10cTraversalIZNS_14LCC01TraversalIS4_S6_LS9_1ELb0ELb0EE21traverseParticlePairsEvEUlmmmE_EEvOT_RKSt5arrayImLm3EESK_SK_._omp_fn.0
000000000038cc40 t _ZN7autopas15CBasedTraversalINS_16FullParticleCellINS_10MoleculeLJIdEEEENS_27VLCCellPairGeneratorFunctorIS3_EELNS_7options16DataLayoutOption5ValueE1ELb0ELi3EE10cTraversalIZNS_14LCC08TraversalIS4_S6_LS9_1ELb0EE21traverseParticlePairsEvEUlmmmE_EEvOT_RKSt5arrayImLm3EESK_SK_._omp_fn.0
000000000038c480 t _ZN7autopas15CBasedTraversalINS_16FullParticleCellINS_10MoleculeLJIdEEEENS_27VLCCellPairGeneratorFunctorIS3_EELNS_7options16DataLayoutOption5ValueE1ELb0ELi3EE10cTraversalIZNS_14LCC18TraversalIS4_S6_LS9_1ELb0EE21traverseParticlePairsEvEUlmmmE_EEvOT_RKSt5arrayImLm3EESK_SK_._omp_fn.0
00000000003b8ae0 t _ZN7autopas15CBasedTraversalINS_16FullParticleCellINS_10MoleculeLJIdEEEENS_27VLCCellPairGeneratorFunctorIS3_EELNS_7options16DataLayoutOption5ValueE1ELb0ELi3EE10cTraversalIZNS_15VCLC06TraversalIS4_S6_LS9_1ELb0EE21traverseParticlePairsEvEUlmmmE_EEvOT_RKSt5arrayImLm3EESK_SK_._omp_fn.0
0000000000238000 t _ZN7autopas15CBasedTraversalINS_16FullParticleCellINS_10MoleculeLJIdEEEENS_27VLCCellPairGeneratorFunctorIS3_EELNS_7options16DataLayoutOption5ValueE1ELb0ELi3EE10cTraversalIZNS_15VLCC01TraversalIS4_S6_LS9_1ELb0ENS_23VLCAllCellsNeighborListIS3_EELNS7_15ContainerOption5ValueE6EE21traverseParticlePairsEvEUlmmmE_EEvOT_RKSt5arrayImLm3EESO_SO_._omp_fn.0
000000000022f070 t _ZN7autopas15CBasedTraversalINS_16FullParticleCellINS_10MoleculeLJIdEEEENS_27VLCCellPairGeneratorFunctorIS3_EELNS_7options16DataLayoutOption5ValueE1ELb0ELi3EE10cTraversalIZNS_15VLCC01TraversalIS4_S6_LS9_1ELb0ENS_23VLCCellPairNeighborListIS3_EELNS7_15ContainerOption5ValueE7EE21traverseParticlePairsEvEUlmmmE_EEvOT_RKSt5arrayImLm3EESO_SO_._omp_fn.0
00000000002396c0 t _ZN7autopas15CBasedTraversalINS_16FullParticleCellINS_10MoleculeLJIdEEEENS_27VLCCellPairGeneratorFunctorIS3_EELNS_7options16DataLayoutOption5ValueE1ELb0ELi3EE10cTraversalIZNS_15VLCC18TraversalIS4_S6_LS9_1ELb0ENS_23VLCAllCellsNeighborListIS3_EELNS7_15ContainerOption5ValueE6EE21traverseParticlePairsEvEUlmmmE_EEvOT_RKSt5arrayImLm3EESO_SO_._omp_fn.0
000000000022eaa0 t _ZN7autopas15CBasedTraversalINS_16FullParticleCellINS_10MoleculeLJIdEEEENS_27VLCCellPairGeneratorFunctorIS3_EELNS_7options16DataLayoutOption5ValueE1ELb0ELi3EE10cTraversalIZNS_15VLCC18TraversalIS4_S6_LS9_1ELb0ENS_23VLCCellPairNeighborListIS3_EELNS7_15ContainerOption5ValueE7EE21traverseParticlePairsEvEUlmmmE_EEvOT_RKSt5arrayImLm3EESO_SO_._omp_fn.0
00000000002324c0 t _ZN7autopas15CBasedTraversalINS_16FullParticleCellINS_10MoleculeLJIdEEEENS_27VLCCellPairGeneratorFunctorIS3_EELNS_7options16DataLayoutOption5ValueE1ELb0ELi3EE10cTraversalIZNS_23VLCCellPairC08TraversalIS4_S6_LS9_1ELb0EE21traverseParticlePairsEvEUlmmmE_EEvOT_RKSt5arrayImLm3EESK_SK_._omp_fn.0
0000000000207810 W _ZN7autopas15CBasedTraversalINS_16FullParticleCellINS_10MoleculeLJIdEEEENS_27VLCCellPairGeneratorFunctorIS3_EELNS_7options16DataLayoutOption5ValueE1ELb0ELi3EE12endTraversalEv
0000000000244170 t _ZN7autopas15CBasedTraversalINS_16FullParticleCellINS_10MoleculeLJIdEEEENS_27VLCCellPairGeneratorFunctorIS3_EELNS_7options16DataLayoutOption5ValueE1ELb0ELi3EE12endTraversalEv._omp_fn.0
0000000000206310 W _ZN7autopas15CBasedTraversalINS_16FullParticleCellINS_10MoleculeLJIdEEEENS_27VLCCellPairGeneratorFunctorIS3_EELNS_7options16DataLayoutOption5ValueE1ELb0ELi3EE13initTraversalEv
00000000003be210 t _ZN7autopas15CBasedTraversalINS_16FullParticleCellINS_10MoleculeLJIdEEEENS_27VLCCellPairGeneratorFunctorIS3_EELNS_7options16DataLayoutOption5ValueE1ELb0ELi3EE13initTraversalEv._omp_fn.0
00000000001fac90 W _ZN7autopas15CBasedTraversalINS_16FullParticleCellINS_10MoleculeLJIdEEEENS_27VLCCellPairGeneratorFunctorIS3_EELNS_7options16DataLayoutOption5ValueE1ELb0ELi3EE17notifyColorChangeEm
00000000002df180 W _ZN7autopas15CBasedTraversalINS_16FullParticleCellINS_10MoleculeLJIdEEEENS_27VLCCellPairGeneratorFunctorIS3_EELNS_7options16DataLayoutOption5ValueE1ELb0ELi3EEC1ERKSt5arrayImLm3EEPS6_dRKSB_IdLm3EE
00000000002df180 W _ZN7autopas15CBasedTraversalINS_16FullParticleCellINS_10MoleculeLJIdEEEENS_27VLCCellPairGeneratorFunctorIS3_EELNS_7options16DataLayoutOption5ValueE1ELb0ELi3EEC2ERKSt5arrayImLm3EEPS6_dRKSB_IdLm3EE
00000000003c3a50 t _ZN7autopas15CBasedTraversalINS_16FullParticleCellINS_10MoleculeLJIdEEEENS_27VLCCellPairGeneratorFunctorIS3_EELNS_7options16DataLayoutOption5ValueE1ELb1ELi2EE10cTraversalIZNS_14LCC01TraversalIS4_S6_LS9_1ELb1ELb1EE21traverseParticlePairsEvEUlmmmE_EEvOT_RKSt5arrayImLm3EESK_SK_._omp_fn.0
00000000003caa30 t _ZN7autopas15CBasedTraversalINS_16FullParticleCellINS_10MoleculeLJIdEEEENS_27VLCCellPairGeneratorFunctorIS3_EELNS_7options16DataLayoutOption5ValueE1ELb1ELi2EE10cTraversalIZNS_25LCC04CombinedSoATraversalIS4_S6_LS9_1ELb1EE21traverseParticlePairsEvEUlmmmE_EEvOT_RKSt5arrayImLm3EESK_SK_._omp_fn.0
0000000000207930 W _ZN7autopas15CBasedTraversalINS_16FullParticleCellINS_10MoleculeLJIdEEEENS_27VLCCellPairGeneratorFunctorIS3_EELNS_7options16DataLayoutOption5ValueE1ELb1ELi2EE12endTraversalEv
0000000000243cf0 t _ZN7autopas15CBasedTraversalINS_16FullParticleCellINS_10MoleculeLJIdEEEENS_27VLCCellPairGeneratorFunctorIS3_EELNS_7options16DataLayoutOption5ValueE1ELb1ELi2EE12endTraversalEv._omp_fn.0
0000000000206430 W _ZN7autopas15CBasedTraversalINS_16FullParticleCellINS_10MoleculeLJIdEEEENS_27VLCCellPairGeneratorFunctorIS3_EELNS_7options16DataLayoutOption5ValueE1ELb1ELi2EE13initTraversalEv
00000000003be370 t _ZN7autopas15CBasedTraversalINS_16FullParticleCellINS_10MoleculeLJIdEEEENS_27VLCCellPairGeneratorFunctorIS3_EELNS_7options16DataLayoutOption5ValueE1ELb1ELi2EE13initTraversalEv._omp_fn.0
00000000001fbc90 W _ZN7autopas15CBasedTraversalINS_16FullParticleCellINS_10MoleculeLJIdEEEENS_27VLCCellPairGeneratorFunctorIS3_EELNS_7options16DataLayoutOption5ValueE1ELb1ELi2EE17notifyColorChangeEm
00000000003b4330 t _ZN7autopas15CBasedTraversalINS_16FullParticleCellINS_10MoleculeLJIdEEEENS_27VLCCellPairGeneratorFunctorIS3_EELNS_7options16DataLayoutOption5ValueE1ELb1ELi3EE10cTraversalIZNS_14LCC01TraversalIS4_S6_LS9_1ELb1ELb0EE21traverseParticlePairsEvEUlmmmE_EEvOT_RKSt5arrayImLm3EESK_SK_._omp_fn.0
000000000038ee40 t _ZN7autopas15CBasedTraversalINS_16FullParticleCellINS_10MoleculeLJIdEEEENS_27VLCCellPairGeneratorFunctorIS3_EELNS_7options16DataLayoutOption5ValueE1ELb1ELi3EE10cTraversalIZNS_14LCC08TraversalIS4_S6_LS9_1ELb1EE21traverseParticlePairsEvEUlmmmE_EEvOT_RKSt5arrayImLm3EESK_SK_._omp_fn.0
000000000038e670 t _ZN7autopas15CBasedTraversalINS_16FullParticleCellINS_10MoleculeLJIdEEEENS_27VLCCellPairGeneratorFunctorIS3_EELNS_7options16DataLayoutOption5ValueE1ELb1ELi3EE10cTraversalIZNS_14LCC18TraversalIS4_S6_LS9_1ELb1EE21traverseParticlePairsEvEUlmmmE_EEvOT_RKSt5arrayImLm3EESK_SK_._omp_fn.0
00000000003b7d40 t _ZN7autopas15CBasedTraversalINS_16FullParticleCellINS_10MoleculeLJIdEEEENS_27VLCCellPairGeneratorFunctorIS3_EELNS_7options16DataLayoutOption5ValueE1ELb1ELi3EE10cTraversalIZNS_15VCLC06TraversalIS4_S6_LS9_1ELb1EE21traverseParticlePairsEvEUlmmmE_EEvOT_RKSt5arrayImLm3EESK_SK_._omp_fn.0
00000000002385b0 t _ZN7autopas15CBasedTraversalINS_16FullParticleCellINS_10MoleculeLJIdEEEENS_27VLCCellPairGeneratorFunctorIS3_EELNS_7options16DataLayoutOption5ValueE1ELb1ELi3EE10cTraversalIZNS_15VLCC01TraversalIS4_S6_LS9_1ELb1ENS_23VLCAllCellsNeighborListIS3_EELNS7_15ContainerOption5ValueE6EE21traverseParticlePairsEvEUlmmmE_EEvOT_RKSt5arrayImLm3EESO_SO_._omp_fn.0
000000000022e4d0 t _ZN7autopas15CBasedTraversalINS_16FullParticleCellINS_10MoleculeLJIdEEEENS_27VLCCellPairGeneratorFunctorIS3_EELNS_7options16DataLayoutOption5ValueE1ELb1ELi3EE10cTraversalIZNS_15VLCC01TraversalIS4_S6_LS9_1ELb1ENS_23VLCCellPairNeighborListIS3_EELNS7_15ContainerOption5ValueE7EE21traverseParticlePairsEvEUlmmmE_EEvOT_RKSt5arrayImLm3EESO_SO_._omp_fn.0
0000000000237a50 t _ZN7autopas15CBasedTraversalINS_16FullParticleCellINS_10MoleculeLJIdEEEENS_27VLCCellPairGeneratorFunctorIS3_EELNS_7options16DataLayoutOption5ValueE1ELb1ELi3EE10cTraversalIZNS_15VLCC18TraversalIS4_S6_LS9_1ELb1ENS_23VLCAllCellsNeighborListIS3_EELNS7_15ContainerOption5ValueE6EE21traverseParticlePairsEvEUlmmmE_EEvOT_RKSt5arrayImLm3EESO_SO_._omp_fn.0
000000000022fc10 t _ZN7autopas15CBasedTraversalINS_16FullParticleCellINS_10MoleculeLJIdEEEENS_27VLCCellPairGeneratorFunctorIS3_EELNS_7options16DataLayoutOption5ValueE1ELb1ELi3EE10cTraversalIZNS_15VLCC18TraversalIS4_S6_LS9_1ELb1ENS_23VLCCellPairNeighborListIS3_EELNS7_15ContainerOption5ValueE7EE21traverseParticlePairsEvEUlmmmE_EEvOT_RKSt5arrayImLm3EESO_SO_._omp_fn.0
000000000022b0b0 t _ZN7autopas15CBasedTraversalINS_16FullParticleCellINS_10MoleculeLJIdEEEENS_27VLCCellPairGeneratorFunctorIS3_EELNS_7options16DataLayoutOption5ValueE1ELb1ELi3EE10cTraversalIZNS_23VLCCellPairC08TraversalIS4_S6_LS9_1ELb1EE21traverseParticlePairsEvEUlmmmE_EEvOT_RKSt5arrayImLm3EESK_SK_._omp_fn.0
0000000000207990 W _ZN7autopas15CBasedTraversalINS_16FullParticleCellINS_10MoleculeLJIdEEEENS_27VLCCellPairGeneratorFunctorIS3_EELNS_7options16DataLayoutOption5ValueE1ELb1ELi3EE12endTraversalEv
00000000002445f0 t _ZN7autopas15CBasedTraversalINS_16FullParticleCellINS_10MoleculeLJIdEEEENS_27VLCCellPairGeneratorFunctorIS3_EELNS_7options16DataLayoutOption5ValueE1ELb1ELi3EE12endTraversalEv._omp_fn.0
0000000000206490 W _ZN7autopas15CBasedTraversalINS_16FullParticleCellINS_10MoleculeLJIdEEEENS_27VLCCellPairGeneratorFunctorIS3_EELNS_7options16DataLayoutOption5ValueE1ELb1ELi3EE13initTraversalEv
00000000003be420 t _ZN7autopas15CBasedTraversalINS_16FullParticleCellINS_10MoleculeLJIdEEEENS_27VLCCellPairGeneratorFunctorIS3_EELNS_7options16DataLayoutOption5ValueE1ELb1ELi3EE13initTraversalEv._omp_fn.0
00000000001fb5c0 W _ZN7autopas15CBasedTraversalINS_16FullParticleCellINS_10MoleculeLJIdEEEENS_27VLCCellPairGeneratorFunctorIS3_EELNS_7options16DataLayoutOption5ValueE1ELb1ELi3EE17notifyColorChangeEm
00000000002df080 W _ZN7autopas15CBasedTraversalINS_16FullParticleCellINS_10MoleculeLJIdEEEENS_27VLCCellPairGeneratorFunctorIS3_EELNS_7options16DataLayoutOption5ValueE1ELb1ELi3EEC1ERKSt5arrayImLm3EEPS6_dRKSB_IdLm3EE
00000000002df080 W _ZN7autopas15CBasedTraversalINS_16FullParticleCellINS_10MoleculeLJIdEEEENS_27VLCCellPairGeneratorFunctorIS3_EELNS_7options16DataLayoutOption5ValueE1ELb1ELi3EEC2ERKSt5arrayImLm3EEPS6_dRKSB_IdLm3EE
00000000001ece40 t _ZN7autopas15CBasedTraversalINS_16FullParticleCellINS_10MoleculeLJIdEEEENS_8internal27AsBuildPairGeneratorFunctorIS3_Lb0EEELNS_7options16DataLayoutOption5ValueE1ELb0ELi3EE10cTraversalIZNS_14LCC08TraversalIS4_S7_LSA_1ELb0EE21traverseParticlePairsEvEUlmmmE_EEvOT_RKSt5arrayImLm3EESL_SL_._omp_fn.0
00000000001d26f4 t _ZN7autopas15CBasedTraversalINS_16FullParticleCellINS_10MoleculeLJIdEEEENS_8internal27AsBuildPairGeneratorFunctorIS3_Lb0EEELNS_7options16DataLayoutOption5ValueE1ELb0ELi3EE10cTraversalIZNS_14LCC08TraversalIS4_S7_LSA_1ELb0EE21traverseParticlePairsEvEUlmmmE_EEvOT_RKSt5arrayImLm3EESL_SL_._omp_fn.0.cold
0000000000207690 W _ZN7autopas15CBasedTraversalINS_16FullParticleCellINS_10MoleculeLJIdEEEENS_8internal27AsBuildPairGeneratorFunctorIS3_Lb0EEELNS_7options16DataLayoutOption5ValueE1ELb0ELi3EE12endTraversalEv
00000000001d8e40 t _ZN7autopas15CBasedTraversalINS_16FullParticleCellINS_10MoleculeLJIdEEEENS_8internal27AsBuildPairGeneratorFunctorIS3_Lb0EEELNS_7options16DataLayoutOption5ValueE1ELb0ELi3EE12endTraversalEv._omp_fn.0
00000000001cebc8 t _ZN7autopas15CBasedTraversalINS_16FullParticleCellINS_10MoleculeLJIdEEEENS_8internal27AsBuildPairGeneratorFunctorIS3_Lb0EEELNS_7options16DataLayoutOption5ValueE1ELb0ELi3EE12endTraversalEv._omp_fn.0.cold
0000000000206190 W _ZN7autopas15CBasedTraversalINS_16FullParticleCellINS_10MoleculeLJIdEEEENS_8internal27AsBuildPairGeneratorFunctorIS3_Lb0EEELNS_7options16DataLayoutOption5ValueE1ELb0ELi3EE13initTraversalEv
00000000001f15e0 t _ZN7autopas15CBasedTraversalINS_16FullParticleCellINS_10MoleculeLJIdEEEENS_8internal27AsBuildPairGeneratorFunctorIS3_Lb0EEELNS_7options16DataLayoutOption5ValueE1ELb0ELi3EE13initTraversalEv._omp_fn.0
00000000001d2862 t _ZN7autopas15CBasedTraversalINS_16FullParticleCellINS_10MoleculeLJIdEEEENS_8internal27AsBuildPairGeneratorFunctorIS3_Lb0EEELNS_7options16DataLayoutOption5ValueE1ELb0ELi3EE13initTraversalEv._omp_fn.0.cold
00000000001faaf0 W _ZN7autopas15CBasedTraversalINS_16FullParticleCellINS_10MoleculeLJIdEEEENS_8internal27AsBuildPairGeneratorFunctorIS3_Lb0EEELNS_7options16DataLayoutOption5ValueE1ELb0ELi3EE17notifyColorChangeEm
00000000001eb240 t _ZN7autopas15CBasedTraversalINS_16FullParticleCellINS_10MoleculeLJIdEEEENS_8internal27AsBuildPairGeneratorFunctorIS3_Lb0EEELNS_7options16DataLayoutOption5ValueE1ELb1ELi3EE10cTraversalIZNS_14LCC08TraversalIS4_S7_LSA_1ELb1EE21traverseParticlePairsEvEUlmmmE_EEvOT_RKSt5arrayImLm3EESL_SL_._omp_fn.0
00000000001d26ae t _ZN7autopas15CBasedTraversalINS_16FullParticleCellINS_10MoleculeLJIdEEEENS_8internal27AsBuildPairGeneratorFunctorIS3_Lb0EEELNS_7options16DataLayoutOption5ValueE1ELb1ELi3EE10cTraversalIZNS_14LCC08TraversalIS4_S7_LSA_1ELb1EE21traverseParticlePairsEvEUlmmmE_EEvOT_RKSt5arrayImLm3EESL_SL_._omp_fn.0.cold
00000000002076f0 W _ZN7autopas15CBasedTraversalINS_16FullParticleCellINS_10MoleculeLJIdEEEENS_8internal27AsBuildPairGeneratorFunctorIS3_Lb0EEELNS_7options16DataLayoutOption5ValueE1ELb1ELi3EE12endTraversalEv
00000000001d9060 t _ZN7autopas15CBasedTraversalINS_16FullParticleCellINS_10MoleculeLJIdEEEENS_8internal27AsBuildPairGeneratorFunctorIS3_Lb0EEELNS_7options16DataLayoutOption5ValueE1ELb1ELi3EE12endTraversalEv._omp_fn.0
00000000001cebee t _ZN7autopas15CBasedTraversalINS_16FullParticleCellINS_10MoleculeLJIdEEEENS_8internal27AsBuildPairGeneratorFunctorIS3_Lb0EEELNS_7options16DataLayoutOption5ValueE1ELb1ELi3EE12endTraversalEv._omp_fn.0.cold
00000000002061f0 W _ZN7autopas15CBasedTraversalINS_16FullParticleCellINS_10MoleculeLJIdEEEENS_8internal27AsBuildPairGeneratorFunctorIS3_Lb0EEELNS_7options16DataLayoutOption5ValueE1ELb1ELi3EE13initTraversalEv
00000000001f12e0 t _ZN7autopas15CBasedTraversalINS_16FullParticleCellINS_10MoleculeLJIdEEEENS_8internal27AsBuildPairGeneratorFunctorIS3_Lb0EEELNS_7options16DataLayoutOption5ValueE1ELb1ELi3EE13initTraversalEv._omp_fn.0
00000000001d2837 t _ZN7autopas15CBasedTraversalINS_16FullParticleCellINS_10MoleculeLJIdEEEENS_8internal27AsBuildPairGeneratorFunctorIS3_Lb0EEELNS_7options16DataLayoutOption5ValueE1ELb1ELi3EE13initTraversalEv._omp_fn.0.cold
00000000001fab70 W _ZN7autopas15CBasedTraversalINS_16FullParticleCellINS_10MoleculeLJIdEEEENS_8internal27AsBuildPairGeneratorFunctorIS3_Lb0EEELNS_7options16DataLayoutOption5ValueE1ELb1ELi3EE17notifyColorChangeEm
00000000001ebf00 t _ZN7autopas15CBasedTraversalINS_16FullParticleCellINS_10MoleculeLJIdEEEENS_8internal27AsBuildPairGeneratorFunctorIS3_Lb1EEELNS_7options16DataLayoutOption5ValueE0ELb0ELi3EE10cTraversalIZNS_14LCC08TraversalIS4_S7_LSA_0ELb0EE21traverseParticlePairsEvEUlmmmE_EEvOT_RKSt5arrayImLm3EESL_SL_._omp_fn.0
00000000001d26c1 t _ZN7autopas15CBasedTraversalINS_16FullParticleCellINS_10MoleculeLJIdEEEENS_8internal27AsBuildPairGeneratorFunctorIS3_Lb1EEELNS_7options16DataLayoutOption5ValueE0ELb0ELi3EE10cTraversalIZNS_14LCC08TraversalIS4_S7_LSA_0ELb0EE21traverseParticlePairsEvEUlmmmE_EEvOT_RKSt5arrayImLm3EESL_SL_._omp_fn.0.cold
00000000002075d0 W _ZN7autopas15CBasedTraversalINS_16FullParticleCellINS_10MoleculeLJIdEEEENS_8internal27AsBuildPairGeneratorFunctorIS3_Lb1EEELNS_7options16DataLayoutOption5ValueE0ELb0ELi3EE12endTraversalEv
00000000001d6470 t _ZN7autopas15CBasedTraversalINS_16FullParticleCellINS_10MoleculeLJIdEEEENS_8internal27AsBuildPairGeneratorFunctorIS3_Lb1EEELNS_7options16DataLayoutOption5ValueE0ELb0ELi3EE12endTraversalEv._omp_fn.0
00000000002060d0 W _ZN7autopas15CBasedTraversalINS_16FullParticleCellINS_10MoleculeLJIdEEEENS_8internal27AsBuildPairGeneratorFunctorIS3_Lb1EEELNS_7options16DataLayoutOption5ValueE0ELb0ELi3EE13initTraversalEv
00000000001d64b0 t _ZN7autopas15CBasedTraversalINS_16FullParticleCellINS_10MoleculeLJIdEEEENS_8internal27AsBuildPairGeneratorFunctorIS3_Lb1EEELNS_7options16DataLayoutOption5ValueE0ELb0ELi3EE13initTraversalEv._omp_fn.0
00000000001fa9a0 W _ZN7autopas15CBasedTraversalINS_16FullParticleCellINS_10MoleculeLJIdEEEENS_8internal27AsBuildPairGeneratorFunctorIS3_Lb1EEELNS_7options16DataLayoutOption5ValueE0ELb0ELi3EE17notifyColorChangeEm
00000000001ea9d0 t _ZN7autopas15CBasedTraversalINS_16FullParticleCellINS_10MoleculeLJIdEEEENS_8internal27AsBuildPairGeneratorFunctorIS3_Lb1EEELNS_7options16DataLayoutOption5ValueE0ELb1ELi3EE10cTraversalIZNS_14LCC08TraversalIS4_S7_LSA_0ELb1EE21traverseParticlePairsEvEUlmmmE_EEvOT_RKSt5arrayImLm3EESL_SL_._omp_fn.0
0000000000207630 W _ZN7autopas15CBasedTraversalINS_16FullParticleCellINS_10MoleculeLJIdEEEENS_8internal27AsBuildPairGeneratorFunctorIS3_Lb1EEELNS_7options16DataLayoutOption5ValueE0ELb1ELi3EE12endTraversalEv
00000000001d6460 t _ZN7autopas15CBasedTraversalINS_16FullParticleCellINS_10MoleculeLJIdEEEENS_8internal27AsBuildPairGeneratorFunctorIS3_Lb1EEELNS_7options16DataLayoutOption5ValueE0ELb1ELi3EE12endTraversalEv._omp_fn.0
0000000000206130 W _ZN7autopas15CBasedTraversalINS_16FullParticleCellINS_10MoleculeLJIdEEEENS_8internal27AsBuildPairGeneratorFunctorIS3_Lb1EEELNS_7options16DataLayoutOption5ValueE0ELb1ELi3EE13initTraversalEv
00000000001d64a0 t _ZN7autopas15CBasedTraversalINS_16FullParticleCellINS_10MoleculeLJIdEEEENS_8internal27AsBuildPairGeneratorFunctorIS3_Lb1EEELNS_7options16DataLayoutOption5ValueE0ELb1ELi3EE13initTraversalEv._omp_fn.0
00000000001faa20 W _ZN7autopas15CBasedTraversalINS_16FullParticleCellINS_10MoleculeLJIdEEEENS_8internal27AsBuildPairGeneratorFunctorIS3_Lb1EEELNS_7options16DataLayoutOption5ValueE0ELb1ELi3EE17notifyColorChangeEm
00000000003fbd60 W _ZN7autopas15GaussianCluster11addEvidenceERKN5Eigen6MatrixIiLin1ELi1ELi0ELin1ELi1EEERKNS2_IdLin1ELi1ELi0ELin1ELi1EEEd
00000000003fabc0 W _ZN7autopas15GaussianCluster12initClustersEv
00000000003e45e0 W _ZN7autopas15GaussianCluster18defaultVecToStringB5cxx11ERKSt4pairIN5Eigen6MatrixIiLin1ELi1ELi0ELin1ELi1EEENS3_IdLin1ELi1ELi0ELin1ELi1EEEE
00000000003e4f10 W _ZN7autopas15GaussianClusterD1Ev
00000000003e4f10 W _ZN7autopas15GaussianClusterD2Ev
00000000003f9c00 W _ZN7autopas15GaussianProcess11addEvidenceERKN5Eigen6MatrixIdLin1ELi1ELi0ELin1ELi1EEEdb
00000000003d98c0 t _ZN7autopas15GaussianProcess18setHyperparametersERKSt6vectorIdSaIdEES5_RKS1_IN5Eigen6MatrixIdLin1ELi1ELi0ELin1ELi1EEESaIS8_EE._omp_fn.0
00000000003f85f0 W _ZN7autopas15GaussianProcess19tuneHyperparametersEv
00000000003e2620 W _ZN7autopas15GaussianProcessD1Ev
00000000003e2620 W _ZN7autopas15GaussianProcessD2Ev
00000000005010bc u _ZN7autopas15InstanceCounter5countE
000000000040cdc0 T _ZN7autopas15IterationLogger12logIterationERKNS_13ConfigurationEmblll
000000000040cdb0 T _ZN7autopas15IterationLogger13logTimeTuningEl
000000000040ccf0 T _ZN7autopas15IterationLoggerC1ERKNSt7__cxx1112basic_stringIcSt11char_traitsIcESaIcEEE
000000000040ccf0 T _ZN7autopas15IterationLoggerC2ERKNSt7__cxx1112basic_stringIcSt11char_traitsIcESaIcEEE
00000000001d403a t _ZN7autopas15IterationLoggerC2ERKNSt7__cxx1112basic_stringIcSt11char_traitsIcESaIcEEE.cold
000000000040cd80 T _ZN7autopas15IterationLoggerD1Ev
000000000040cd80 T _ZN7autopas15IterationLoggerD2Ev
00000000002d3240 W _ZN7autopas15NumberSetFiniteIdE11resetValuesERSt3setIdSt4lessIdESaIdEE
000000000025cf60 W _ZN7autopas15NumberSetFiniteIdED0Ev
000000000025cf10 W _ZN7autopas15NumberSetFiniteIdED1Ev
000000000025cf10 W _ZN7autopas15NumberSetFiniteIdED2Ev
00000000001fdfe0 W _ZN7autopas15OctreeInnerNodeINS_10MoleculeLJIdEEE11hasChildrenEv
0000000000235820 W _ZN7autopas15OctreeInnerNodeINS_10MoleculeLJIdEEE13clearChildrenERSt10unique_ptrINS_19OctreeNodeInterfaceIS2_EESt14default_deleteIS6_EE
00000000002b5eb0 W _ZN7autopas15OctreeInnerNodeINS_10MoleculeLJIdEEE16getLeavesInRangeESt5arrayIdLm3EES5_
00000000001fdf10 W _ZN7autopas15OctreeInnerNodeINS_10MoleculeLJIdEEE20getNumberOfParticlesEv
0000000000219320 W _ZN7autopas15OctreeInnerNodeINS_10MoleculeLJIdEEE23getLeavesFromDirectionsERKSt6vectorINS_6octree6VertexESaIS6_EE
00000000001fdf50 W _ZN7autopas15OctreeInnerNodeINS_10MoleculeLJIdEEE3SONENS_6octree6VertexE
00000000001fdad0 W _ZN7autopas15OctreeInnerNodeINS_10MoleculeLJIdEEE6insertERKS2_
00000000001fdff0 W _ZN7autopas15OctreeInnerNodeINS_10MoleculeLJIdEEE8getChildEi
0000000000200680 W _ZN7autopas15OctreeInnerNodeINS_10MoleculeLJIdEEED0Ev
00000000001f7550 W _ZN7autopas15OctreeInnerNodeINS_10MoleculeLJIdEEED1Ev
00000000001f7550 W _ZN7autopas15OctreeInnerNodeINS_10MoleculeLJIdEEED2Ev
00000000001f95b0 W _ZN7autopas15VCLC06TraversalINS_16FullParticleCellINS_10MoleculeLJIdEEEENS_27VLCAllCellsGeneratorFunctorIS3_EELNS_7options16DataLayoutOption5ValueE0ELb0EE12endTraversalEv
00000000001f95a0 W _ZN7autopas15VCLC06TraversalINS_16FullParticleCellINS_10MoleculeLJIdEEEENS_27VLCAllCellsGeneratorFunctorIS3_EELNS_7options16DataLayoutOption5ValueE0ELb0EE13initTraversalEv
0000000000326790 W _ZN7autopas15VCLC06TraversalINS_16FullParticleCellINS_10MoleculeLJIdEEEENS_27VLCAllCellsGeneratorFunctorIS3_EELNS_7options16DataLayoutOption5ValueE0ELb0EE16processColorCellEmmmi
000000000020e8b0 W _ZN7autopas15VCLC06TraversalINS_16FullParticleCellINS_10MoleculeLJIdEEEENS_27VLCAllCellsGeneratorFunctorIS3_EELNS_7options16DataLayoutOption5ValueE0ELb0EE21traverseParticlePairsEv
0000000000202070 W _ZN7autopas15VCLC06TraversalINS_16FullParticleCellINS_10MoleculeLJIdEEEENS_27VLCAllCellsGeneratorFunctorIS3_EELNS_7options16DataLayoutOption5ValueE0ELb0EED0Ev
00000000001f7c70 W _ZN7autopas15VCLC06TraversalINS_16FullParticleCellINS_10MoleculeLJIdEEEENS_27VLCAllCellsGeneratorFunctorIS3_EELNS_7options16DataLayoutOption5ValueE0ELb0EED1Ev
00000000001f7c70 W _ZN7autopas15VCLC06TraversalINS_16FullParticleCellINS_10MoleculeLJIdEEEENS_27VLCAllCellsGeneratorFunctorIS3_EELNS_7options16DataLayoutOption5ValueE0ELb0EED2Ev
00000000001fa160 W _ZN7autopas15VCLC06TraversalINS_16FullParticleCellINS_10MoleculeLJIdEEEENS_27VLCAllCellsGeneratorFunctorIS3_EELNS_7options16DataLayoutOption5ValueE0ELb1EE12endTraversalEv
00000000001fa150 W _ZN7autopas15VCLC06TraversalINS_16FullParticleCellINS_10MoleculeLJIdEEEENS_27VLCAllCellsGeneratorFunctorIS3_EELNS_7options16DataLayoutOption5ValueE0ELb1EE13initTraversalEv
0000000000323db0 W _ZN7autopas15VCLC06TraversalINS_16FullParticleCellINS_10MoleculeLJIdEEEENS_27VLCAllCellsGeneratorFunctorIS3_EELNS_7options16DataLayoutOption5ValueE0ELb1EE16processColorCellEmmmi
000000000020ea60 W _ZN7autopas15VCLC06TraversalINS_16FullParticleCellINS_10MoleculeLJIdEEEENS_27VLCAllCellsGeneratorFunctorIS3_EELNS_7options16DataLayoutOption5ValueE0ELb1EE21traverseParticlePairsEv
0000000000201b60 W _ZN7autopas15VCLC06TraversalINS_16FullParticleCellINS_10MoleculeLJIdEEEENS_27VLCAllCellsGeneratorFunctorIS3_EELNS_7options16DataLayoutOption5ValueE0ELb1EED0Ev
00000000001f7ba0 W _ZN7autopas15VCLC06TraversalINS_16FullParticleCellINS_10MoleculeLJIdEEEENS_27VLCAllCellsGeneratorFunctorIS3_EELNS_7options16DataLayoutOption5ValueE0ELb1EED1Ev
00000000001f7ba0 W _ZN7autopas15VCLC06TraversalINS_16FullParticleCellINS_10MoleculeLJIdEEEENS_27VLCAllCellsGeneratorFunctorIS3_EELNS_7options16DataLayoutOption5ValueE0ELb1EED2Ev
000000000022a7b0 W _ZN7autopas15VCLC06TraversalINS_16FullParticleCellINS_10MoleculeLJIdEEEENS_27VLCAllCellsGeneratorFunctorIS3_EELNS_7options16DataLayoutOption5ValueE1ELb0EE12endTraversalEv
000000000022a630 W _ZN7autopas15VCLC06TraversalINS_16FullParticleCellINS_10MoleculeLJIdEEEENS_27VLCAllCellsGeneratorFunctorIS3_EELNS_7options16DataLayoutOption5ValueE1ELb0EE13initTraversalEv
000000000031d950 W _ZN7autopas15VCLC06TraversalINS_16FullParticleCellINS_10MoleculeLJIdEEEENS_27VLCAllCellsGeneratorFunctorIS3_EELNS_7options16DataLayoutOption5ValueE1ELb0EE16processColorCellEmmmi
000000000020e550 W _ZN7autopas15VCLC06TraversalINS_16FullParticleCellINS_10MoleculeLJIdEEEENS_27VLCAllCellsGeneratorFunctorIS3_EELNS_7options16DataLayoutOption5ValueE1ELb0EE21traverseParticlePairsEv
0000000000202a90 W _ZN7autopas15VCLC06TraversalINS_16FullParticleCellINS_10MoleculeLJIdEEEENS_27VLCAllCellsGeneratorFunctorIS3_EELNS_7options16DataLayoutOption5ValueE1ELb0EED0Ev
00000000001f7e10 W _ZN7autopas15VCLC06TraversalINS_16FullParticleCellINS_10MoleculeLJIdEEEENS_27VLCAllCellsGeneratorFunctorIS3_EELNS_7options16DataLayoutOption5ValueE1ELb0EED1Ev
00000000001f7e10 W _ZN7autopas15VCLC06TraversalINS_16FullParticleCellINS_10MoleculeLJIdEEEENS_27VLCAllCellsGeneratorFunctorIS3_EELNS_7options16DataLayoutOption5ValueE1ELb0EED2Ev
0000000000229d30 W _ZN7autopas15VCLC06TraversalINS_16FullParticleCellINS_10MoleculeLJIdEEEENS_27VLCAllCellsGeneratorFunctorIS3_EELNS_7options16DataLayoutOption5ValueE1ELb1EE12endTraversalEv
0000000000229cb0 W _ZN7autopas15VCLC06TraversalINS_16FullParticleCellINS_10MoleculeLJIdEEEENS_27VLCAllCellsGeneratorFunctorIS3_EELNS_7options16DataLayoutOption5ValueE1ELb1EE13initTraversalEv
000000000031e400 W _ZN7autopas15VCLC06TraversalINS_16FullParticleCellINS_10MoleculeLJIdEEEENS_27VLCAllCellsGeneratorFunctorIS3_EELNS_7options16DataLayoutOption5ValueE1ELb1EE16processColorCellEmmmi
000000000020e700 W _ZN7autopas15VCLC06TraversalINS_16FullParticleCellINS_10MoleculeLJIdEEEENS_27VLCAllCellsGeneratorFunctorIS3_EELNS_7options16DataLayoutOption5ValueE1ELb1EE21traverseParticlePairsEv
0000000000202580 W _ZN7autopas15VCLC06TraversalINS_16FullParticleCellINS_10MoleculeLJIdEEEENS_27VLCAllCellsGeneratorFunctorIS3_EELNS_7options16DataLayoutOption5ValueE1ELb1EED0Ev
00000000001f7d40 W _ZN7autopas15VCLC06TraversalINS_16FullParticleCellINS_10MoleculeLJIdEEEENS_27VLCAllCellsGeneratorFunctorIS3_EELNS_7options16DataLayoutOption5ValueE1ELb1EED1Ev
00000000001f7d40 W _ZN7autopas15VCLC06TraversalINS_16FullParticleCellINS_10MoleculeLJIdEEEENS_27VLCAllCellsGeneratorFunctorIS3_EELNS_7options16DataLayoutOption5ValueE1ELb1EED2Ev
00000000001fc210 W _ZN7autopas15VCLC06TraversalINS_16FullParticleCellINS_10MoleculeLJIdEEEENS_27VLCCellPairGeneratorFunctorIS3_EELNS_7options16DataLayoutOption5ValueE0ELb0EE12endTraversalEv
00000000001fc200 W _ZN7autopas15VCLC06TraversalINS_16FullParticleCellINS_10MoleculeLJIdEEEENS_27VLCCellPairGeneratorFunctorIS3_EELNS_7options16DataLayoutOption5ValueE0ELb0EE13initTraversalEv
00000000003b1560 W _ZN7autopas15VCLC06TraversalINS_16FullParticleCellINS_10MoleculeLJIdEEEENS_27VLCCellPairGeneratorFunctorIS3_EELNS_7options16DataLayoutOption5ValueE0ELb0EE16processColorCellEmmmi
000000000020ef70 W _ZN7autopas15VCLC06TraversalINS_16FullParticleCellINS_10MoleculeLJIdEEEENS_27VLCCellPairGeneratorFunctorIS3_EELNS_7options16DataLayoutOption5ValueE0ELb0EE21traverseParticlePairsEv
0000000000200c30 W _ZN7autopas15VCLC06TraversalINS_16FullParticleCellINS_10MoleculeLJIdEEEENS_27VLCCellPairGeneratorFunctorIS3_EELNS_7options16DataLayoutOption5ValueE0ELb0EED0Ev
00000000001f7790 W _ZN7autopas15VCLC06TraversalINS_16FullParticleCellINS_10MoleculeLJIdEEEENS_27VLCCellPairGeneratorFunctorIS3_EELNS_7options16DataLayoutOption5ValueE0ELb0EED1Ev
00000000001f7790 W _ZN7autopas15VCLC06TraversalINS_16FullParticleCellINS_10MoleculeLJIdEEEENS_27VLCCellPairGeneratorFunctorIS3_EELNS_7options16DataLayoutOption5ValueE0ELb0EED2Ev
00000000001fcdc0 W _ZN7autopas15VCLC06TraversalINS_16FullParticleCellINS_10MoleculeLJIdEEEENS_27VLCCellPairGeneratorFunctorIS3_EELNS_7options16DataLayoutOption5ValueE0ELb1EE12endTraversalEv
00000000001fcdb0 W _ZN7autopas15VCLC06TraversalINS_16FullParticleCellINS_10MoleculeLJIdEEEENS_27VLCCellPairGeneratorFunctorIS3_EELNS_7options16DataLayoutOption5ValueE0ELb1EE13initTraversalEv
00000000003aefb0 W _ZN7autopas15VCLC06TraversalINS_16FullParticleCellINS_10MoleculeLJIdEEEENS_27VLCCellPairGeneratorFunctorIS3_EELNS_7options16DataLayoutOption5ValueE0ELb1EE16processColorCellEmmmi
000000000020f120 W _ZN7autopas15VCLC06TraversalINS_16FullParticleCellINS_10MoleculeLJIdEEEENS_27VLCCellPairGeneratorFunctorIS3_EELNS_7options16DataLayoutOption5ValueE0ELb1EE21traverseParticlePairsEv
0000000000200720 W _ZN7autopas15VCLC06TraversalINS_16FullParticleCellINS_10MoleculeLJIdEEEENS_27VLCCellPairGeneratorFunctorIS3_EELNS_7options16DataLayoutOption5ValueE0ELb1EED0Ev
00000000001f76c0 W _ZN7autopas15VCLC06TraversalINS_16FullParticleCellINS_10MoleculeLJIdEEEENS_27VLCCellPairGeneratorFunctorIS3_EELNS_7options16DataLayoutOption5ValueE0ELb1EED1Ev
00000000001f76c0 W _ZN7autopas15VCLC06TraversalINS_16FullParticleCellINS_10MoleculeLJIdEEEENS_27VLCCellPairGeneratorFunctorIS3_EELNS_7options16DataLayoutOption5ValueE0ELb1EED2Ev
000000000022ae30 W _ZN7autopas15VCLC06TraversalINS_16FullParticleCellINS_10MoleculeLJIdEEEENS_27VLCCellPairGeneratorFunctorIS3_EELNS_7options16DataLayoutOption5ValueE1ELb0EE12endTraversalEv
000000000022adb0 W _ZN7autopas15VCLC06TraversalINS_16FullParticleCellINS_10MoleculeLJIdEEEENS_27VLCCellPairGeneratorFunctorIS3_EELNS_7options16DataLayoutOption5ValueE1ELb0EE13initTraversalEv
00000000003b8040 W _ZN7autopas15VCLC06TraversalINS_16FullParticleCellINS_10MoleculeLJIdEEEENS_27VLCCellPairGeneratorFunctorIS3_EELNS_7options16DataLayoutOption5ValueE1ELb0EE16processColorCellEmmmi
000000000020ec10 W _ZN7autopas15VCLC06TraversalINS_16FullParticleCellINS_10MoleculeLJIdEEEENS_27VLCCellPairGeneratorFunctorIS3_EELNS_7options16DataLayoutOption5ValueE1ELb0EE21traverseParticlePairsEv
0000000000201650 W _ZN7autopas15VCLC06TraversalINS_16FullParticleCellINS_10MoleculeLJIdEEEENS_27VLCCellPairGeneratorFunctorIS3_EELNS_7options16DataLayoutOption5ValueE1ELb0EED0Ev
00000000001f7930 W _ZN7autopas15VCLC06TraversalINS_16FullParticleCellINS_10MoleculeLJIdEEEENS_27VLCCellPairGeneratorFunctorIS3_EELNS_7options16DataLayoutOption5ValueE1ELb0EED1Ev
00000000001f7930 W _ZN7autopas15VCLC06TraversalINS_16FullParticleCellINS_10MoleculeLJIdEEEENS_27VLCCellPairGeneratorFunctorIS3_EELNS_7options16DataLayoutOption5ValueE1ELb0EED2Ev
000000000022acb0 W _ZN7autopas15VCLC06TraversalINS_16FullParticleCellINS_10MoleculeLJIdEEEENS_27VLCCellPairGeneratorFunctorIS3_EELNS_7options16DataLayoutOption5ValueE1ELb1EE12endTraversalEv
000000000022ac30 W _ZN7autopas15VCLC06TraversalINS_16FullParticleCellINS_10MoleculeLJIdEEEENS_27VLCCellPairGeneratorFunctorIS3_EELNS_7options16DataLayoutOption5ValueE1ELb1EE13initTraversalEv
00000000003b7350 W _ZN7autopas15VCLC06TraversalINS_16FullParticleCellINS_10MoleculeLJIdEEEENS_27VLCCellPairGeneratorFunctorIS3_EELNS_7options16DataLayoutOption5ValueE1ELb1EE16processColorCellEmmmi
000000000020edc0 W _ZN7autopas15VCLC06TraversalINS_16FullParticleCellINS_10MoleculeLJIdEEEENS_27VLCCellPairGeneratorFunctorIS3_EELNS_7options16DataLayoutOption5ValueE1ELb1EE21traverseParticlePairsEv
0000000000201140 W _ZN7autopas15VCLC06TraversalINS_16FullParticleCellINS_10MoleculeLJIdEEEENS_27VLCCellPairGeneratorFunctorIS3_EELNS_7options16DataLayoutOption5ValueE1ELb1EED0Ev
00000000001f7860 W _ZN7autopas15VCLC06TraversalINS_16FullParticleCellINS_10MoleculeLJIdEEEENS_27VLCCellPairGeneratorFunctorIS3_EELNS_7options16DataLayoutOption5ValueE1ELb1EED1Ev
00000000001f7860 W _ZN7autopas15VCLC06TraversalINS_16FullParticleCellINS_10MoleculeLJIdEEEENS_27VLCCellPairGeneratorFunctorIS3_EELNS_7options16DataLayoutOption5ValueE1ELb1EED2Ev
000000000020ab90 W _ZN7autopas15VLCC01TraversalINS_16FullParticleCellINS_10MoleculeLJIdEEEENS_27VLCAllCellsGeneratorFunctorIS3_EELNS_7options16DataLayoutOption5ValueE0ELb0ENS_23VLCAllCellsNeighborListIS3_EELNS7_15ContainerOption5ValueE6EE21traverseParticlePairsEv
00000000002020b0 W _ZN7autopas15VLCC01TraversalINS_16FullParticleCellINS_10MoleculeLJIdEEEENS_27VLCAllCellsGeneratorFunctorIS3_EELNS_7options16DataLayoutOption5ValueE0ELb0ENS_23VLCAllCellsNeighborListIS3_EELNS7_15ContainerOption5ValueE6EED0Ev
00000000001f7c10 W _ZN7autopas15VLCC01TraversalINS_16FullParticleCellINS_10MoleculeLJIdEEEENS_27VLCAllCellsGeneratorFunctorIS3_EELNS_7options16DataLayoutOption5ValueE0ELb0ENS_23VLCAllCellsNeighborListIS3_EELNS7_15ContainerOption5ValueE6EED1Ev
00000000001f7c10 W _ZN7autopas15VLCC01TraversalINS_16FullParticleCellINS_10MoleculeLJIdEEEENS_27VLCAllCellsGeneratorFunctorIS3_EELNS_7options16DataLayoutOption5ValueE0ELb0ENS_23VLCAllCellsNeighborListIS3_EELNS7_15ContainerOption5ValueE6EED2Ev
000000000020a960 W _ZN7autopas15VLCC01TraversalINS_16FullParticleCellINS_10MoleculeLJIdEEEENS_27VLCAllCellsGeneratorFunctorIS3_EELNS_7options16DataLayoutOption5ValueE0ELb0ENS_23VLCCellPairNeighborListIS3_EELNS7_15ContainerOption5ValueE7EE21traverseParticlePairsEv
00000000002020a0 W _ZN7autopas15VLCC01TraversalINS_16FullParticleCellINS_10MoleculeLJIdEEEENS_27VLCAllCellsGeneratorFunctorIS3_EELNS_7options16DataLayoutOption5ValueE0ELb0ENS_23VLCCellPairNeighborListIS3_EELNS7_15ContainerOption5ValueE7EED0Ev
00000000001f7c90 W _ZN7autopas15VLCC01TraversalINS_16FullParticleCellINS_10MoleculeLJIdEEEENS_27VLCAllCellsGeneratorFunctorIS3_EELNS_7options16DataLayoutOption5ValueE0ELb0ENS_23VLCCellPairNeighborListIS3_EELNS7_15ContainerOption5ValueE7EED1Ev
00000000001f7c90 W _ZN7autopas15VLCC01TraversalINS_16FullParticleCellINS_10MoleculeLJIdEEEENS_27VLCAllCellsGeneratorFunctorIS3_EELNS_7options16DataLayoutOption5ValueE0ELb0ENS_23VLCCellPairNeighborListIS3_EELNS7_15ContainerOption5ValueE7EED2Ev
000000000020b240 W _ZN7autopas15VLCC01TraversalINS_16FullParticleCellINS_10MoleculeLJIdEEEENS_27VLCAllCellsGeneratorFunctorIS3_EELNS_7options16DataLayoutOption5ValueE0ELb1ENS_23VLCAllCellsNeighborListIS3_EELNS7_15ContainerOption5ValueE6EE21traverseParticlePairsEv
0000000000201ba0 W _ZN7autopas15VLCC01TraversalINS_16FullParticleCellINS_10MoleculeLJIdEEEENS_27VLCAllCellsGeneratorFunctorIS3_EELNS_7options16DataLayoutOption5ValueE0ELb1ENS_23VLCAllCellsNeighborListIS3_EELNS7_15ContainerOption5ValueE6EED0Ev
00000000001f7b40 W _ZN7autopas15VLCC01TraversalINS_16FullParticleCellINS_10MoleculeLJIdEEEENS_27VLCAllCellsGeneratorFunctorIS3_EELNS_7options16DataLayoutOption5ValueE0ELb1ENS_23VLCAllCellsNeighborListIS3_EELNS7_15ContainerOption5ValueE6EED1Ev
00000000001f7b40 W _ZN7autopas15VLCC01TraversalINS_16FullParticleCellINS_10MoleculeLJIdEEEENS_27VLCAllCellsGeneratorFunctorIS3_EELNS_7options16DataLayoutOption5ValueE0ELb1ENS_23VLCAllCellsNeighborListIS3_EELNS7_15ContainerOption5ValueE6EED2Ev
000000000020b010 W _ZN7autopas15VLCC01TraversalINS_16FullParticleCellINS_10MoleculeLJIdEEEENS_27VLCAllCellsGeneratorFunctorIS3_EELNS_7options16DataLayoutOption5ValueE0ELb1ENS_23VLCCellPairNeighborListIS3_EELNS7_15ContainerOption5ValueE7EE21traverseParticlePairsEv
0000000000201b90 W _ZN7autopas15VLCC01TraversalINS_16FullParticleCellINS_10MoleculeLJIdEEEENS_27VLCAllCellsGeneratorFunctorIS3_EELNS_7options16DataLayoutOption5ValueE0ELb1ENS_23VLCCellPairNeighborListIS3_EELNS7_15ContainerOption5ValueE7EED0Ev
00000000001f7bc0 W _ZN7autopas15VLCC01TraversalINS_16FullParticleCellINS_10MoleculeLJIdEEEENS_27VLCAllCellsGeneratorFunctorIS3_EELNS_7options16DataLayoutOption5ValueE0ELb1ENS_23VLCCellPairNeighborListIS3_EELNS7_15ContainerOption5ValueE7EED1Ev
00000000001f7bc0 W _ZN7autopas15VLCC01TraversalINS_16FullParticleCellINS_10MoleculeLJIdEEEENS_27VLCAllCellsGeneratorFunctorIS3_EELNS_7options16DataLayoutOption5ValueE0ELb1ENS_23VLCCellPairNeighborListIS3_EELNS7_15ContainerOption5ValueE7EED2Ev
00000000003d6f60 W _ZN7autopas15VLCC01TraversalINS_16FullParticleCellINS_10MoleculeLJIdEEEENS_27VLCAllCellsGeneratorFunctorIS3_EELNS_7options16DataLayoutOption5ValueE1ELb0ENS_23VLCAllCellsNeighborListIS3_EELNS7_15ContainerOption5ValueE6EE21traverseParticlePairsEv
0000000000202ad0 W _ZN7autopas15VLCC01TraversalINS_16FullParticleCellINS_10MoleculeLJIdEEEENS_27VLCAllCellsGeneratorFunctorIS3_EELNS_7options16DataLayoutOption5ValueE1ELb0ENS_23VLCAllCellsNeighborListIS3_EELNS7_15ContainerOption5ValueE6EED0Ev
00000000001f7db0 W _ZN7autopas15VLCC01TraversalINS_16FullParticleCellINS_10MoleculeLJIdEEEENS_27VLCAllCellsGeneratorFunctorIS3_EELNS_7options16DataLayoutOption5ValueE1ELb0ENS_23VLCAllCellsNeighborListIS3_EELNS7_15ContainerOption5ValueE6EED1Ev
00000000001f7db0 W _ZN7autopas15VLCC01TraversalINS_16FullParticleCellINS_10MoleculeLJIdEEEENS_27VLCAllCellsGeneratorFunctorIS3_EELNS_7options16DataLayoutOption5ValueE1ELb0ENS_23VLCAllCellsNeighborListIS3_EELNS7_15ContainerOption5ValueE6EED2Ev
00000000003d6d40 W _ZN7autopas15VLCC01TraversalINS_16FullParticleCellINS_10MoleculeLJIdEEEENS_27VLCAllCellsGeneratorFunctorIS3_EELNS_7options16DataLayoutOption5ValueE1ELb0ENS_23VLCCellPairNeighborListIS3_EELNS7_15ContainerOption5ValueE7EE21traverseParticlePairsEv
0000000000202ac0 W _ZN7autopas15VLCC01TraversalINS_16FullParticleCellINS_10MoleculeLJIdEEEENS_27VLCAllCellsGeneratorFunctorIS3_EELNS_7options16DataLayoutOption5ValueE1ELb0ENS_23VLCCellPairNeighborListIS3_EELNS7_15ContainerOption5ValueE7EED0Ev
00000000001f7e30 W _ZN7autopas15VLCC01TraversalINS_16FullParticleCellINS_10MoleculeLJIdEEEENS_27VLCAllCellsGeneratorFunctorIS3_EELNS_7options16DataLayoutOption5ValueE1ELb0ENS_23VLCCellPairNeighborListIS3_EELNS7_15ContainerOption5ValueE7EED1Ev
00000000001f7e30 W _ZN7autopas15VLCC01TraversalINS_16FullParticleCellINS_10MoleculeLJIdEEEENS_27VLCAllCellsGeneratorFunctorIS3_EELNS_7options16DataLayoutOption5ValueE1ELb0ENS_23VLCCellPairNeighborListIS3_EELNS7_15ContainerOption5ValueE7EED2Ev
00000000003d7070 W _ZN7autopas15VLCC01TraversalINS_16FullParticleCellINS_10MoleculeLJIdEEEENS_27VLCAllCellsGeneratorFunctorIS3_EELNS_7options16DataLayoutOption5ValueE1ELb1ENS_23VLCAllCellsNeighborListIS3_EELNS7_15ContainerOption5ValueE6EE21traverseParticlePairsEv
00000000002025c0 W _ZN7autopas15VLCC01TraversalINS_16FullParticleCellINS_10MoleculeLJIdEEEENS_27VLCAllCellsGeneratorFunctorIS3_EELNS_7options16DataLayoutOption5ValueE1ELb1ENS_23VLCAllCellsNeighborListIS3_EELNS7_15ContainerOption5ValueE6EED0Ev
00000000001f7ce0 W _ZN7autopas15VLCC01TraversalINS_16FullParticleCellINS_10MoleculeLJIdEEEENS_27VLCAllCellsGeneratorFunctorIS3_EELNS_7options16DataLayoutOption5ValueE1ELb1ENS_23VLCAllCellsNeighborListIS3_EELNS7_15ContainerOption5ValueE6EED1Ev
00000000001f7ce0 W _ZN7autopas15VLCC01TraversalINS_16FullParticleCellINS_10MoleculeLJIdEEEENS_27VLCAllCellsGeneratorFunctorIS3_EELNS_7options16DataLayoutOption5ValueE1ELb1ENS_23VLCAllCellsNeighborListIS3_EELNS7_15ContainerOption5ValueE6EED2Ev
00000000003d6e50 W _ZN7autopas15VLCC01TraversalINS_16FullParticleCellINS_10MoleculeLJIdEEEENS_27VLCAllCellsGeneratorFunctorIS3_EELNS_7options16DataLayoutOption5ValueE1ELb1ENS_23VLCCellPairNeighborListIS3_EELNS7_15ContainerOption5ValueE7EE21traverseParticlePairsEv
00000000002025b0 W _ZN7autopas15VLCC01TraversalINS_16FullParticleCellINS_10MoleculeLJIdEEEENS_27VLCAllCellsGeneratorFunctorIS3_EELNS_7options16DataLayoutOption5ValueE1ELb1ENS_23VLCCellPairNeighborListIS3_EELNS7_15ContainerOption5ValueE7EED0Ev
00000000001f7d60 W _ZN7autopas15VLCC01TraversalINS_16FullParticleCellINS_10MoleculeLJIdEEEENS_27VLCAllCellsGeneratorFunctorIS3_EELNS_7options16DataLayoutOption5ValueE1ELb1ENS_23VLCCellPairNeighborListIS3_EELNS7_15ContainerOption5ValueE7EED1Ev
00000000001f7d60 W _ZN7autopas15VLCC01TraversalINS_16FullParticleCellINS_10MoleculeLJIdEEEENS_27VLCAllCellsGeneratorFunctorIS3_EELNS_7options16DataLayoutOption5ValueE1ELb1ENS_23VLCCellPairNeighborListIS3_EELNS7_15ContainerOption5ValueE7EED2Ev
000000000020c150 W _ZN7autopas15VLCC01TraversalINS_16FullParticleCellINS_10MoleculeLJIdEEEENS_27VLCCellPairGeneratorFunctorIS3_EELNS_7options16DataLayoutOption5ValueE0ELb0ENS_23VLCAllCellsNeighborListIS3_EELNS7_15ContainerOption5ValueE6EE21traverseParticlePairsEv
0000000000200c70 W _ZN7autopas15VLCC01TraversalINS_16FullParticleCellINS_10MoleculeLJIdEEEENS_27VLCCellPairGeneratorFunctorIS3_EELNS_7options16DataLayoutOption5ValueE0ELb0ENS_23VLCAllCellsNeighborListIS3_EELNS7_15ContainerOption5ValueE6EED0Ev
00000000001f7730 W _ZN7autopas15VLCC01TraversalINS_16FullParticleCellINS_10MoleculeLJIdEEEENS_27VLCCellPairGeneratorFunctorIS3_EELNS_7options16DataLayoutOption5ValueE0ELb0ENS_23VLCAllCellsNeighborListIS3_EELNS7_15ContainerOption5ValueE6EED1Ev
00000000001f7730 W _ZN7autopas15VLCC01TraversalINS_16FullParticleCellINS_10MoleculeLJIdEEEENS_27VLCCellPairGeneratorFunctorIS3_EELNS_7options16DataLayoutOption5ValueE0ELb0ENS_23VLCAllCellsNeighborListIS3_EELNS7_15ContainerOption5ValueE6EED2Ev
000000000020bf20 W _ZN7autopas15VLCC01TraversalINS_16FullParticleCellINS_10MoleculeLJIdEEEENS_27VLCCellPairGeneratorFunctorIS3_EELNS_7options16DataLayoutOption5ValueE0ELb0ENS_23VLCCellPairNeighborListIS3_EELNS7_15ContainerOption5ValueE7EE21traverseParticlePairsEv
0000000000200c60 W _ZN7autopas15VLCC01TraversalINS_16FullParticleCellINS_10MoleculeLJIdEEEENS_27VLCCellPairGeneratorFunctorIS3_EELNS_7options16DataLayoutOption5ValueE0ELb0ENS_23VLCCellPairNeighborListIS3_EELNS7_15ContainerOption5ValueE7EED0Ev
00000000001f77b0 W _ZN7autopas15VLCC01TraversalINS_16FullParticleCellINS_10MoleculeLJIdEEEENS_27VLCCellPairGeneratorFunctorIS3_EELNS_7options16DataLayoutOption5ValueE0ELb0ENS_23VLCCellPairNeighborListIS3_EELNS7_15ContainerOption5ValueE7EED1Ev
00000000001f77b0 W _ZN7autopas15VLCC01TraversalINS_16FullParticleCellINS_10MoleculeLJIdEEEENS_27VLCCellPairGeneratorFunctorIS3_EELNS_7options16DataLayoutOption5ValueE0ELb0ENS_23VLCCellPairNeighborListIS3_EELNS7_15ContainerOption5ValueE7EED2Ev
000000000020c800 W _ZN7autopas15VLCC01TraversalINS_16FullParticleCellINS_10MoleculeLJIdEEEENS_27VLCCellPairGeneratorFunctorIS3_EELNS_7options16DataLayoutOption5ValueE0ELb1ENS_23VLCAllCellsNeighborListIS3_EELNS7_15ContainerOption5ValueE6EE21traverseParticlePairsEv
0000000000200750 W _ZN7autopas15VLCC01TraversalINS_16FullParticleCellINS_10MoleculeLJIdEEEENS_27VLCCellPairGeneratorFunctorIS3_EELNS_7options16DataLayoutOption5ValueE0ELb1ENS_23VLCAllCellsNeighborListIS3_EELNS7_15ContainerOption5ValueE6EED0Ev
00000000001f7660 W _ZN7autopas15VLCC01TraversalINS_16FullParticleCellINS_10MoleculeLJIdEEEENS_27VLCCellPairGeneratorFunctorIS3_EELNS_7options16DataLayoutOption5ValueE0ELb1ENS_23VLCAllCellsNeighborListIS3_EELNS7_15ContainerOption5ValueE6EED1Ev
00000000001f7660 W _ZN7autopas15VLCC01TraversalINS_16FullParticleCellINS_10MoleculeLJIdEEEENS_27VLCCellPairGeneratorFunctorIS3_EELNS_7options16DataLayoutOption5ValueE0ELb1ENS_23VLCAllCellsNeighborListIS3_EELNS7_15ContainerOption5ValueE6EED2Ev
000000000020c5d0 W _ZN7autopas15VLCC01TraversalINS_16FullParticleCellINS_10MoleculeLJIdEEEENS_27VLCCellPairGeneratorFunctorIS3_EELNS_7options16DataLayoutOption5ValueE0ELb1ENS_23VLCCellPairNeighborListIS3_EELNS7_15ContainerOption5ValueE7EE21traverseParticlePairsEv
0000000000200760 W _ZN7autopas15VLCC01TraversalINS_16FullParticleCellINS_10MoleculeLJIdEEEENS_27VLCCellPairGeneratorFunctorIS3_EELNS_7options16DataLayoutOption5ValueE0ELb1ENS_23VLCCellPairNeighborListIS3_EELNS7_15ContainerOption5ValueE7EED0Ev
00000000001f76e0 W _ZN7autopas15VLCC01TraversalINS_16FullParticleCellINS_10MoleculeLJIdEEEENS_27VLCCellPairGeneratorFunctorIS3_EELNS_7options16DataLayoutOption5ValueE0ELb1ENS_23VLCCellPairNeighborListIS3_EELNS7_15ContainerOption5ValueE7EED1Ev
00000000001f76e0 W _ZN7autopas15VLCC01TraversalINS_16FullParticleCellINS_10MoleculeLJIdEEEENS_27VLCCellPairGeneratorFunctorIS3_EELNS_7options16DataLayoutOption5ValueE0ELb1ENS_23VLCCellPairNeighborListIS3_EELNS7_15ContainerOption5ValueE7EED2Ev
00000000003d65d0 W _ZN7autopas15VLCC01TraversalINS_16FullParticleCellINS_10MoleculeLJIdEEEENS_27VLCCellPairGeneratorFunctorIS3_EELNS_7options16DataLayoutOption5ValueE1ELb0ENS_23VLCAllCellsNeighborListIS3_EELNS7_15ContainerOption5ValueE6EE21traverseParticlePairsEv
0000000000201690 W _ZN7autopas15VLCC01TraversalINS_16FullParticleCellINS_10MoleculeLJIdEEEENS_27VLCCellPairGeneratorFunctorIS3_EELNS_7options16DataLayoutOption5ValueE1ELb0ENS_23VLCAllCellsNeighborListIS3_EELNS7_15ContainerOption5ValueE6EED0Ev
00000000001f78d0 W _ZN7autopas15VLCC01TraversalINS_16FullParticleCellINS_10MoleculeLJIdEEEENS_27VLCCellPairGeneratorFunctorIS3_EELNS_7options16DataLayoutOption5ValueE1ELb0ENS_23VLCAllCellsNeighborListIS3_EELNS7_15ContainerOption5ValueE6EED1Ev
00000000001f78d0 W _ZN7autopas15VLCC01TraversalINS_16FullParticleCellINS_10MoleculeLJIdEEEENS_27VLCCellPairGeneratorFunctorIS3_EELNS_7options16DataLayoutOption5ValueE1ELb0ENS_23VLCAllCellsNeighborListIS3_EELNS7_15ContainerOption5ValueE6EED2Ev
00000000003d63b0 W _ZN7autopas15VLCC01TraversalINS_16FullParticleCellINS_10MoleculeLJIdEEEENS_27VLCCellPairGeneratorFunctorIS3_EELNS_7options16DataLayoutOption5ValueE1ELb0ENS_23VLCCellPairNeighborListIS3_EELNS7_15ContainerOption5ValueE7EE21traverseParticlePairsEv
0000000000201680 W _ZN7autopas15VLCC01TraversalINS_16FullParticleCellINS_10MoleculeLJIdEEEENS_27VLCCellPairGeneratorFunctorIS3_EELNS_7options16DataLayoutOption5ValueE1ELb0ENS_23VLCCellPairNeighborListIS3_EELNS7_15ContainerOption5ValueE7EED0Ev
00000000001f7950 W _ZN7autopas15VLCC01TraversalINS_16FullParticleCellINS_10MoleculeLJIdEEEENS_27VLCCellPairGeneratorFunctorIS3_EELNS_7options16DataLayoutOption5ValueE1ELb0ENS_23VLCCellPairNeighborListIS3_EELNS7_15ContainerOption5ValueE7EED1Ev
00000000001f7950 W _ZN7autopas15VLCC01TraversalINS_16FullParticleCellINS_10MoleculeLJIdEEEENS_27VLCCellPairGeneratorFunctorIS3_EELNS_7options16DataLayoutOption5ValueE1ELb0ENS_23VLCCellPairNeighborListIS3_EELNS7_15ContainerOption5ValueE7EED2Ev
00000000003d66e0 W _ZN7autopas15VLCC01TraversalINS_16FullParticleCellINS_10MoleculeLJIdEEEENS_27VLCCellPairGeneratorFunctorIS3_EELNS_7options16DataLayoutOption5ValueE1ELb1ENS_23VLCAllCellsNeighborListIS3_EELNS7_15ContainerOption5ValueE6EE21traverseParticlePairsEv
0000000000201180 W _ZN7autopas15VLCC01TraversalINS_16FullParticleCellINS_10MoleculeLJIdEEEENS_27VLCCellPairGeneratorFunctorIS3_EELNS_7options16DataLayoutOption5ValueE1ELb1ENS_23VLCAllCellsNeighborListIS3_EELNS7_15ContainerOption5ValueE6EED0Ev
00000000001f7800 W _ZN7autopas15VLCC01TraversalINS_16FullParticleCellINS_10MoleculeLJIdEEEENS_27VLCCellPairGeneratorFunctorIS3_EELNS_7options16DataLayoutOption5ValueE1ELb1ENS_23VLCAllCellsNeighborListIS3_EELNS7_15ContainerOption5ValueE6EED1Ev
00000000001f7800 W _ZN7autopas15VLCC01TraversalINS_16FullParticleCellINS_10MoleculeLJIdEEEENS_27VLCCellPairGeneratorFunctorIS3_EELNS_7options16DataLayoutOption5ValueE1ELb1ENS_23VLCAllCellsNeighborListIS3_EELNS7_15ContainerOption5ValueE6EED2Ev
00000000003d64c0 W _ZN7autopas15VLCC01TraversalINS_16FullParticleCellINS_10MoleculeLJIdEEEENS_27VLCCellPairGeneratorFunctorIS3_EELNS_7options16DataLayoutOption5ValueE1ELb1ENS_23VLCCellPairNeighborListIS3_EELNS7_15ContainerOption5ValueE7EE21traverseParticlePairsEv
0000000000201170 W _ZN7autopas15VLCC01TraversalINS_16FullParticleCellINS_10MoleculeLJIdEEEENS_27VLCCellPairGeneratorFunctorIS3_EELNS_7options16DataLayoutOption5ValueE1ELb1ENS_23VLCCellPairNeighborListIS3_EELNS7_15ContainerOption5ValueE7EED0Ev
00000000001f7880 W _ZN7autopas15VLCC01TraversalINS_16FullParticleCellINS_10MoleculeLJIdEEEENS_27VLCCellPairGeneratorFunctorIS3_EELNS_7options16DataLayoutOption5ValueE1ELb1ENS_23VLCCellPairNeighborListIS3_EELNS7_15ContainerOption5ValueE7EED1Ev
00000000001f7880 W _ZN7autopas15VLCC01TraversalINS_16FullParticleCellINS_10MoleculeLJIdEEEENS_27VLCCellPairGeneratorFunctorIS3_EELNS_7options16DataLayoutOption5ValueE1ELb1ENS_23VLCCellPairNeighborListIS3_EELNS7_15ContainerOption5ValueE7EED2Ev
000000000020aab0 W _ZN7autopas15VLCC18TraversalINS_16FullParticleCellINS_10MoleculeLJIdEEEENS_27VLCAllCellsGeneratorFunctorIS3_EELNS_7options16DataLayoutOption5ValueE0ELb0ENS_23VLCAllCellsNeighborListIS3_EELNS7_15ContainerOption5ValueE6EE21traverseParticlePairsEv
00000000002020d0 W _ZN7autopas15VLCC18TraversalINS_16FullParticleCellINS_10MoleculeLJIdEEEENS_27VLCAllCellsGeneratorFunctorIS3_EELNS_7options16DataLayoutOption5ValueE0ELb0ENS_23VLCAllCellsNeighborListIS3_EELNS7_15ContainerOption5ValueE6EED0Ev
00000000001f7c20 W _ZN7autopas15VLCC18TraversalINS_16FullParticleCellINS_10MoleculeLJIdEEEENS_27VLCAllCellsGeneratorFunctorIS3_EELNS_7options16DataLayoutOption5ValueE0ELb0ENS_23VLCAllCellsNeighborListIS3_EELNS7_15ContainerOption5ValueE6EED1Ev
00000000001f7c20 W _ZN7autopas15VLCC18TraversalINS_16FullParticleCellINS_10MoleculeLJIdEEEENS_27VLCAllCellsGeneratorFunctorIS3_EELNS_7options16DataLayoutOption5ValueE0ELb0ENS_23VLCAllCellsNeighborListIS3_EELNS7_15ContainerOption5ValueE6EED2Ev
000000000020a880 W _ZN7autopas15VLCC18TraversalINS_16FullParticleCellINS_10MoleculeLJIdEEEENS_27VLCAllCellsGeneratorFunctorIS3_EELNS_7options16DataLayoutOption5ValueE0ELb0ENS_23VLCCellPairNeighborListIS3_EELNS7_15ContainerOption5ValueE7EE21traverseParticlePairsEv
00000000002020c0 W _ZN7autopas15VLCC18TraversalINS_16FullParticleCellINS_10MoleculeLJIdEEEENS_27VLCAllCellsGeneratorFunctorIS3_EELNS_7options16DataLayoutOption5ValueE0ELb0ENS_23VLCCellPairNeighborListIS3_EELNS7_15ContainerOption5ValueE7EED0Ev
00000000001f7ca0 W _ZN7autopas15VLCC18TraversalINS_16FullParticleCellINS_10MoleculeLJIdEEEENS_27VLCAllCellsGeneratorFunctorIS3_EELNS_7options16DataLayoutOption5ValueE0ELb0ENS_23VLCCellPairNeighborListIS3_EELNS7_15ContainerOption5ValueE7EED1Ev
00000000001f7ca0 W _ZN7autopas15VLCC18TraversalINS_16FullParticleCellINS_10MoleculeLJIdEEEENS_27VLCAllCellsGeneratorFunctorIS3_EELNS_7options16DataLayoutOption5ValueE0ELb0ENS_23VLCCellPairNeighborListIS3_EELNS7_15ContainerOption5ValueE7EED2Ev
000000000020b160 W _ZN7autopas15VLCC18TraversalINS_16FullParticleCellINS_10MoleculeLJIdEEEENS_27VLCAllCellsGeneratorFunctorIS3_EELNS_7options16DataLayoutOption5ValueE0ELb1ENS_23VLCAllCellsNeighborListIS3_EELNS7_15ContainerOption5ValueE6EE21traverseParticlePairsEv
0000000000201bc0 W _ZN7autopas15VLCC18TraversalINS_16FullParticleCellINS_10MoleculeLJIdEEEENS_27VLCAllCellsGeneratorFunctorIS3_EELNS_7options16DataLayoutOption5ValueE0ELb1ENS_23VLCAllCellsNeighborListIS3_EELNS7_15ContainerOption5ValueE6EED0Ev
00000000001f7b50 W _ZN7autopas15VLCC18TraversalINS_16FullParticleCellINS_10MoleculeLJIdEEEENS_27VLCAllCellsGeneratorFunctorIS3_EELNS_7options16DataLayoutOption5ValueE0ELb1ENS_23VLCAllCellsNeighborListIS3_EELNS7_15ContainerOption5ValueE6EED1Ev
00000000001f7b50 W _ZN7autopas15VLCC18TraversalINS_16FullParticleCellINS_10MoleculeLJIdEEEENS_27VLCAllCellsGeneratorFunctorIS3_EELNS_7options16DataLayoutOption5ValueE0ELb1ENS_23VLCAllCellsNeighborListIS3_EELNS7_15ContainerOption5ValueE6EED2Ev
000000000020af30 W _ZN7autopas15VLCC18TraversalINS_16FullParticleCellINS_10MoleculeLJIdEEEENS_27VLCAllCellsGeneratorFunctorIS3_EELNS_7options16DataLayoutOption5ValueE0ELb1ENS_23VLCCellPairNeighborListIS3_EELNS7_15ContainerOption5ValueE7EE21traverseParticlePairsEv
0000000000201bb0 W _ZN7autopas15VLCC18TraversalINS_16FullParticleCellINS_10MoleculeLJIdEEEENS_27VLCAllCellsGeneratorFunctorIS3_EELNS_7options16DataLayoutOption5ValueE0ELb1ENS_23VLCCellPairNeighborListIS3_EELNS7_15ContainerOption5ValueE7EED0Ev
00000000001f7bd0 W _ZN7autopas15VLCC18TraversalINS_16FullParticleCellINS_10MoleculeLJIdEEEENS_27VLCAllCellsGeneratorFunctorIS3_EELNS_7options16DataLayoutOption5ValueE0ELb1ENS_23VLCCellPairNeighborListIS3_EELNS7_15ContainerOption5ValueE7EED1Ev
00000000001f7bd0 W _ZN7autopas15VLCC18TraversalINS_16FullParticleCellINS_10MoleculeLJIdEEEENS_27VLCAllCellsGeneratorFunctorIS3_EELNS_7options16DataLayoutOption5ValueE0ELb1ENS_23VLCCellPairNeighborListIS3_EELNS7_15ContainerOption5ValueE7EED2Ev
00000000003bdb20 W _ZN7autopas15VLCC18TraversalINS_16FullParticleCellINS_10MoleculeLJIdEEEENS_27VLCAllCellsGeneratorFunctorIS3_EELNS_7options16DataLayoutOption5ValueE1ELb0ENS_23VLCAllCellsNeighborListIS3_EELNS7_15ContainerOption5ValueE6EE21traverseParticlePairsEv
0000000000202af0 W _ZN7autopas15VLCC18TraversalINS_16FullParticleCellINS_10MoleculeLJIdEEEENS_27VLCAllCellsGeneratorFunctorIS3_EELNS_7options16DataLayoutOption5ValueE1ELb0ENS_23VLCAllCellsNeighborListIS3_EELNS7_15ContainerOption5ValueE6EED0Ev
00000000001f7dc0 W _ZN7autopas15VLCC18TraversalINS_16FullParticleCellINS_10MoleculeLJIdEEEENS_27VLCAllCellsGeneratorFunctorIS3_EELNS_7options16DataLayoutOption5ValueE1ELb0ENS_23VLCAllCellsNeighborListIS3_EELNS7_15ContainerOption5ValueE6EED1Ev
00000000001f7dc0 W _ZN7autopas15VLCC18TraversalINS_16FullParticleCellINS_10MoleculeLJIdEEEENS_27VLCAllCellsGeneratorFunctorIS3_EELNS_7options16DataLayoutOption5ValueE1ELb0ENS_23VLCAllCellsNeighborListIS3_EELNS7_15ContainerOption5ValueE6EED2Ev
00000000003bd970 W _ZN7autopas15VLCC18TraversalINS_16FullParticleCellINS_10MoleculeLJIdEEEENS_27VLCAllCellsGeneratorFunctorIS3_EELNS_7options16DataLayoutOption5ValueE1ELb0ENS_23VLCCellPairNeighborListIS3_EELNS7_15ContainerOption5ValueE7EE21traverseParticlePairsEv
0000000000202ae0 W _ZN7autopas15VLCC18TraversalINS_16FullParticleCellINS_10MoleculeLJIdEEEENS_27VLCAllCellsGeneratorFunctorIS3_EELNS_7options16DataLayoutOption5ValueE1ELb0ENS_23VLCCellPairNeighborListIS3_EELNS7_15ContainerOption5ValueE7EED0Ev
00000000001f7e40 W _ZN7autopas15VLCC18TraversalINS_16FullParticleCellINS_10MoleculeLJIdEEEENS_27VLCAllCellsGeneratorFunctorIS3_EELNS_7options16DataLayoutOption5ValueE1ELb0ENS_23VLCCellPairNeighborListIS3_EELNS7_15ContainerOption5ValueE7EED1Ev
00000000001f7e40 W _ZN7autopas15VLCC18TraversalINS_16FullParticleCellINS_10MoleculeLJIdEEEENS_27VLCAllCellsGeneratorFunctorIS3_EELNS_7options16DataLayoutOption5ValueE1ELb0ENS_23VLCCellPairNeighborListIS3_EELNS7_15ContainerOption5ValueE7EED2Ev
00000000003bd7c0 W _ZN7autopas15VLCC18TraversalINS_16FullParticleCellINS_10MoleculeLJIdEEEENS_27VLCAllCellsGeneratorFunctorIS3_EELNS_7options16DataLayoutOption5ValueE1ELb1ENS_23VLCAllCellsNeighborListIS3_EELNS7_15ContainerOption5ValueE6EE21traverseParticlePairsEv
00000000002025e0 W _ZN7autopas15VLCC18TraversalINS_16FullParticleCellINS_10MoleculeLJIdEEEENS_27VLCAllCellsGeneratorFunctorIS3_EELNS_7options16DataLayoutOption5ValueE1ELb1ENS_23VLCAllCellsNeighborListIS3_EELNS7_15ContainerOption5ValueE6EED0Ev
00000000001f7cf0 W _ZN7autopas15VLCC18TraversalINS_16FullParticleCellINS_10MoleculeLJIdEEEENS_27VLCAllCellsGeneratorFunctorIS3_EELNS_7options16DataLayoutOption5ValueE1ELb1ENS_23VLCAllCellsNeighborListIS3_EELNS7_15ContainerOption5ValueE6EED1Ev
00000000001f7cf0 W _ZN7autopas15VLCC18TraversalINS_16FullParticleCellINS_10MoleculeLJIdEEEENS_27VLCAllCellsGeneratorFunctorIS3_EELNS_7options16DataLayoutOption5ValueE1ELb1ENS_23VLCAllCellsNeighborListIS3_EELNS7_15ContainerOption5ValueE6EED2Ev
00000000003bd610 W _ZN7autopas15VLCC18TraversalINS_16FullParticleCellINS_10MoleculeLJIdEEEENS_27VLCAllCellsGeneratorFunctorIS3_EELNS_7options16DataLayoutOption5ValueE1ELb1ENS_23VLCCellPairNeighborListIS3_EELNS7_15ContainerOption5ValueE7EE21traverseParticlePairsEv
00000000002025d0 W _ZN7autopas15VLCC18TraversalINS_16FullParticleCellINS_10MoleculeLJIdEEEENS_27VLCAllCellsGeneratorFunctorIS3_EELNS_7options16DataLayoutOption5ValueE1ELb1ENS_23VLCCellPairNeighborListIS3_EELNS7_15ContainerOption5ValueE7EED0Ev
00000000001f7d70 W _ZN7autopas15VLCC18TraversalINS_16FullParticleCellINS_10MoleculeLJIdEEEENS_27VLCAllCellsGeneratorFunctorIS3_EELNS_7options16DataLayoutOption5ValueE1ELb1ENS_23VLCCellPairNeighborListIS3_EELNS7_15ContainerOption5ValueE7EED1Ev
00000000001f7d70 W _ZN7autopas15VLCC18TraversalINS_16FullParticleCellINS_10MoleculeLJIdEEEENS_27VLCAllCellsGeneratorFunctorIS3_EELNS_7options16DataLayoutOption5ValueE1ELb1ENS_23VLCCellPairNeighborListIS3_EELNS7_15ContainerOption5ValueE7EED2Ev
000000000020c070 W _ZN7autopas15VLCC18TraversalINS_16FullParticleCellINS_10MoleculeLJIdEEEENS_27VLCCellPairGeneratorFunctorIS3_EELNS_7options16DataLayoutOption5ValueE0ELb0ENS_23VLCAllCellsNeighborListIS3_EELNS7_15ContainerOption5ValueE6EE21traverseParticlePairsEv
0000000000200c90 W _ZN7autopas15VLCC18TraversalINS_16FullParticleCellINS_10MoleculeLJIdEEEENS_27VLCCellPairGeneratorFunctorIS3_EELNS_7options16DataLayoutOption5ValueE0ELb0ENS_23VLCAllCellsNeighborListIS3_EELNS7_15ContainerOption5ValueE6EED0Ev
00000000001f7740 W _ZN7autopas15VLCC18TraversalINS_16FullParticleCellINS_10MoleculeLJIdEEEENS_27VLCCellPairGeneratorFunctorIS3_EELNS_7options16DataLayoutOption5ValueE0ELb0ENS_23VLCAllCellsNeighborListIS3_EELNS7_15ContainerOption5ValueE6EED1Ev
00000000001f7740 W _ZN7autopas15VLCC18TraversalINS_16FullParticleCellINS_10MoleculeLJIdEEEENS_27VLCCellPairGeneratorFunctorIS3_EELNS_7options16DataLayoutOption5ValueE0ELb0ENS_23VLCAllCellsNeighborListIS3_EELNS7_15ContainerOption5ValueE6EED2Ev
000000000020be40 W _ZN7autopas15VLCC18TraversalINS_16FullParticleCellINS_10MoleculeLJIdEEEENS_27VLCCellPairGeneratorFunctorIS3_EELNS_7options16DataLayoutOption5ValueE0ELb0ENS_23VLCCellPairNeighborListIS3_EELNS7_15ContainerOption5ValueE7EE21traverseParticlePairsEv
0000000000200c80 W _ZN7autopas15VLCC18TraversalINS_16FullParticleCellINS_10MoleculeLJIdEEEENS_27VLCCellPairGeneratorFunctorIS3_EELNS_7options16DataLayoutOption5ValueE0ELb0ENS_23VLCCellPairNeighborListIS3_EELNS7_15ContainerOption5ValueE7EED0Ev
00000000001f77c0 W _ZN7autopas15VLCC18TraversalINS_16FullParticleCellINS_10MoleculeLJIdEEEENS_27VLCCellPairGeneratorFunctorIS3_EELNS_7options16DataLayoutOption5ValueE0ELb0ENS_23VLCCellPairNeighborListIS3_EELNS7_15ContainerOption5ValueE7EED1Ev
00000000001f77c0 W _ZN7autopas15VLCC18TraversalINS_16FullParticleCellINS_10MoleculeLJIdEEEENS_27VLCCellPairGeneratorFunctorIS3_EELNS_7options16DataLayoutOption5ValueE0ELb0ENS_23VLCCellPairNeighborListIS3_EELNS7_15ContainerOption5ValueE7EED2Ev
000000000020c720 W _ZN7autopas15VLCC18TraversalINS_16FullParticleCellINS_10MoleculeLJIdEEEENS_27VLCCellPairGeneratorFunctorIS3_EELNS_7options16DataLayoutOption5ValueE0ELb1ENS_23VLCAllCellsNeighborListIS3_EELNS7_15ContainerOption5ValueE6EE21traverseParticlePairsEv
0000000000200770 W _ZN7autopas15VLCC18TraversalINS_16FullParticleCellINS_10MoleculeLJIdEEEENS_27VLCCellPairGeneratorFunctorIS3_EELNS_7options16DataLayoutOption5ValueE0ELb1ENS_23VLCAllCellsNeighborListIS3_EELNS7_15ContainerOption5ValueE6EED0Ev
00000000001f7670 W _ZN7autopas15VLCC18TraversalINS_16FullParticleCellINS_10MoleculeLJIdEEEENS_27VLCCellPairGeneratorFunctorIS3_EELNS_7options16DataLayoutOption5ValueE0ELb1ENS_23VLCAllCellsNeighborListIS3_EELNS7_15ContainerOption5ValueE6EED1Ev
00000000001f7670 W _ZN7autopas15VLCC18TraversalINS_16FullParticleCellINS_10MoleculeLJIdEEEENS_27VLCCellPairGeneratorFunctorIS3_EELNS_7options16DataLayoutOption5ValueE0ELb1ENS_23VLCAllCellsNeighborListIS3_EELNS7_15ContainerOption5ValueE6EED2Ev
000000000020c4f0 W _ZN7autopas15VLCC18TraversalINS_16FullParticleCellINS_10MoleculeLJIdEEEENS_27VLCCellPairGeneratorFunctorIS3_EELNS_7options16DataLayoutOption5ValueE0ELb1ENS_23VLCCellPairNeighborListIS3_EELNS7_15ContainerOption5ValueE7EE21traverseParticlePairsEv
0000000000200780 W _ZN7autopas15VLCC18TraversalINS_16FullParticleCellINS_10MoleculeLJIdEEEENS_27VLCCellPairGeneratorFunctorIS3_EELNS_7options16DataLayoutOption5ValueE0ELb1ENS_23VLCCellPairNeighborListIS3_EELNS7_15ContainerOption5ValueE7EED0Ev
00000000001f76f0 W _ZN7autopas15VLCC18TraversalINS_16FullParticleCellINS_10MoleculeLJIdEEEENS_27VLCCellPairGeneratorFunctorIS3_EELNS_7options16DataLayoutOption5ValueE0ELb1ENS_23VLCCellPairNeighborListIS3_EELNS7_15ContainerOption5ValueE7EED1Ev
00000000001f76f0 W _ZN7autopas15VLCC18TraversalINS_16FullParticleCellINS_10MoleculeLJIdEEEENS_27VLCCellPairGeneratorFunctorIS3_EELNS_7options16DataLayoutOption5ValueE0ELb1ENS_23VLCCellPairNeighborListIS3_EELNS7_15ContainerOption5ValueE7EED2Ev
00000000003bf660 W _ZN7autopas15VLCC18TraversalINS_16FullParticleCellINS_10MoleculeLJIdEEEENS_27VLCCellPairGeneratorFunctorIS3_EELNS_7options16DataLayoutOption5ValueE1ELb0ENS_23VLCAllCellsNeighborListIS3_EELNS7_15ContainerOption5ValueE6EE21traverseParticlePairsEv
00000000002016b0 W _ZN7autopas15VLCC18TraversalINS_16FullParticleCellINS_10MoleculeLJIdEEEENS_27VLCCellPairGeneratorFunctorIS3_EELNS_7options16DataLayoutOption5ValueE1ELb0ENS_23VLCAllCellsNeighborListIS3_EELNS7_15ContainerOption5ValueE6EED0Ev
00000000001f78e0 W _ZN7autopas15VLCC18TraversalINS_16FullParticleCellINS_10MoleculeLJIdEEEENS_27VLCCellPairGeneratorFunctorIS3_EELNS_7options16DataLayoutOption5ValueE1ELb0ENS_23VLCAllCellsNeighborListIS3_EELNS7_15ContainerOption5ValueE6EED1Ev
00000000001f78e0 W _ZN7autopas15VLCC18TraversalINS_16FullParticleCellINS_10MoleculeLJIdEEEENS_27VLCCellPairGeneratorFunctorIS3_EELNS_7options16DataLayoutOption5ValueE1ELb0ENS_23VLCAllCellsNeighborListIS3_EELNS7_15ContainerOption5ValueE6EED2Ev
00000000003bf4b0 W _ZN7autopas15VLCC18TraversalINS_16FullParticleCellINS_10MoleculeLJIdEEEENS_27VLCCellPairGeneratorFunctorIS3_EELNS_7options16DataLayoutOption5ValueE1ELb0ENS_23VLCCellPairNeighborListIS3_EELNS7_15ContainerOption5ValueE7EE21traverseParticlePairsEv
00000000002016a0 W _ZN7autopas15VLCC18TraversalINS_16FullParticleCellINS_10MoleculeLJIdEEEENS_27VLCCellPairGeneratorFunctorIS3_EELNS_7options16DataLayoutOption5ValueE1ELb0ENS_23VLCCellPairNeighborListIS3_EELNS7_15ContainerOption5ValueE7EED0Ev
00000000001f7960 W _ZN7autopas15VLCC18TraversalINS_16FullParticleCellINS_10MoleculeLJIdEEEENS_27VLCCellPairGeneratorFunctorIS3_EELNS_7options16DataLayoutOption5ValueE1ELb0ENS_23VLCCellPairNeighborListIS3_EELNS7_15ContainerOption5ValueE7EED1Ev
00000000001f7960 W _ZN7autopas15VLCC18TraversalINS_16FullParticleCellINS_10MoleculeLJIdEEEENS_27VLCCellPairGeneratorFunctorIS3_EELNS_7options16DataLayoutOption5ValueE1ELb0ENS_23VLCCellPairNeighborListIS3_EELNS7_15ContainerOption5ValueE7EED2Ev
00000000003bf300 W _ZN7autopas15VLCC18TraversalINS_16FullParticleCellINS_10MoleculeLJIdEEEENS_27VLCCellPairGeneratorFunctorIS3_EELNS_7options16DataLayoutOption5ValueE1ELb1ENS_23VLCAllCellsNeighborListIS3_EELNS7_15ContainerOption5ValueE6EE21traverseParticlePairsEv
00000000002011a0 W _ZN7autopas15VLCC18TraversalINS_16FullParticleCellINS_10MoleculeLJIdEEEENS_27VLCCellPairGeneratorFunctorIS3_EELNS_7options16DataLayoutOption5ValueE1ELb1ENS_23VLCAllCellsNeighborListIS3_EELNS7_15ContainerOption5ValueE6EED0Ev
00000000001f7810 W _ZN7autopas15VLCC18TraversalINS_16FullParticleCellINS_10MoleculeLJIdEEEENS_27VLCCellPairGeneratorFunctorIS3_EELNS_7options16DataLayoutOption5ValueE1ELb1ENS_23VLCAllCellsNeighborListIS3_EELNS7_15ContainerOption5ValueE6EED1Ev
00000000001f7810 W _ZN7autopas15VLCC18TraversalINS_16FullParticleCellINS_10MoleculeLJIdEEEENS_27VLCCellPairGeneratorFunctorIS3_EELNS_7options16DataLayoutOption5ValueE1ELb1ENS_23VLCAllCellsNeighborListIS3_EELNS7_15ContainerOption5ValueE6EED2Ev
00000000003bf150 W _ZN7autopas15VLCC18TraversalINS_16FullParticleCellINS_10MoleculeLJIdEEEENS_27VLCCellPairGeneratorFunctorIS3_EELNS_7options16DataLayoutOption5ValueE1ELb1ENS_23VLCCellPairNeighborListIS3_EELNS7_15ContainerOption5ValueE7EE21traverseParticlePairsEv
0000000000201190 W _ZN7autopas15VLCC18TraversalINS_16FullParticleCellINS_10MoleculeLJIdEEEENS_27VLCCellPairGeneratorFunctorIS3_EELNS_7options16DataLayoutOption5ValueE1ELb1ENS_23VLCCellPairNeighborListIS3_EELNS7_15ContainerOption5ValueE7EED0Ev
00000000001f7890 W _ZN7autopas15VLCC18TraversalINS_16FullParticleCellINS_10MoleculeLJIdEEEENS_27VLCCellPairGeneratorFunctorIS3_EELNS_7options16DataLayoutOption5ValueE1ELb1ENS_23VLCCellPairNeighborListIS3_EELNS7_15ContainerOption5ValueE7EED1Ev
00000000001f7890 W _ZN7autopas15VLCC18TraversalINS_16FullParticleCellINS_10MoleculeLJIdEEEENS_27VLCCellPairGeneratorFunctorIS3_EELNS_7options16DataLayoutOption5ValueE1ELb1ENS_23VLCCellPairNeighborListIS3_EELNS7_15ContainerOption5ValueE7EED2Ev
00000000001d71f0 t _ZN7autopas16AlignedAllocatorINS_14OwnershipStateELm64EE8allocateEm.isra.0
00000000001ce910 t _ZN7autopas16AlignedAllocatorINS_14OwnershipStateELm64EE8allocateEm.isra.0.cold
00000000001d7170 t _ZN7autopas16AlignedAllocatorIPNS_10MoleculeLJIdEELm64EE8allocateEm.isra.0
00000000001ce858 t _ZN7autopas16AlignedAllocatorIPNS_10MoleculeLJIdEELm64EE8allocateEm.isra.0.cold
00000000001d71b0 t _ZN7autopas16AlignedAllocatorImLm64EE8allocateEm.isra.0
00000000001ce8b4 t _ZN7autopas16AlignedAllocatorImLm64EE8allocateEm.isra.0.cold
0000000000271fc0 W _ZN7autopas16FullParticleCellINS_10MoleculeLJIdEEE11addParticleERKS2_
00000000002b0c30 W _ZN7autopas16FullParticleCellINS_10MoleculeLJIdEEE13deleteByIndexEm
00000000001f2d00 W _ZN7autopas16FullParticleCellINS_10MoleculeLJIdEEE13setCellLengthERSt5arrayIdLm3EE
00000000002b6260 W _ZN7autopas16FullParticleCellINS_10MoleculeLJIdEEE20deleteDummyParticlesEv
00000000001f6040 W _ZN7autopas16FullParticleCellINS_10MoleculeLJIdEEE25getParticleCellTypeAsEnumEv
00000000001fe000 W _ZN7autopas16FullParticleCellINS_10MoleculeLJIdEEE5beginEv
00000000001f6020 W _ZN7autopas16FullParticleCellINS_10MoleculeLJIdEEE5clearEv
00000000002425b0 W _ZN7autopas16FullParticleCellINS_10MoleculeLJIdEEED0Ev
0000000000242030 W _ZN7autopas16FullParticleCellINS_10MoleculeLJIdEEED1Ev
0000000000242030 W _ZN7autopas16FullParticleCellINS_10MoleculeLJIdEEED2Ev
00000000001e7470 t _ZN7autopas16LCC08CellHandlerINS_16FullParticleCellINS_10MoleculeLJIdEEEENS_27VLCAllCellsGeneratorFunctorIS3_EELNS_7options16DataLayoutOption5ValueE0ELb0EE14computeOffsetsESt5arrayImLm3EE.isra.0
00000000001d25d4 t _ZN7autopas16LCC08CellHandlerINS_16FullParticleCellINS_10MoleculeLJIdEEEENS_27VLCAllCellsGeneratorFunctorIS3_EELNS_7options16DataLayoutOption5ValueE0ELb0EE14computeOffsetsESt5arrayImLm3EE.isra.0.cold
00000000002f2e00 W _ZN7autopas16LCC08CellHandlerINS_16FullParticleCellINS_10MoleculeLJIdEEEENS_27VLCAllCellsGeneratorFunctorIS3_EELNS_7options16DataLayoutOption5ValueE0ELb0EEC1EPS6_St5arrayImLm3EEdRKSC_IdLm3EERKSD_
00000000002f2e00 W _ZN7autopas16LCC08CellHandlerINS_16FullParticleCellINS_10MoleculeLJIdEEEENS_27VLCAllCellsGeneratorFunctorIS3_EELNS_7options16DataLayoutOption5ValueE0ELb0EEC2EPS6_St5arrayImLm3EEdRKSC_IdLm3EERKSD_
00000000001e6c00 t _ZN7autopas16LCC08CellHandlerINS_16FullParticleCellINS_10MoleculeLJIdEEEENS_27VLCAllCellsGeneratorFunctorIS3_EELNS_7options16DataLayoutOption5ValueE0ELb1EE14computeOffsetsESt5arrayImLm3EE.isra.0
00000000001d25aa t _ZN7autopas16LCC08CellHandlerINS_16FullParticleCellINS_10MoleculeLJIdEEEENS_27VLCAllCellsGeneratorFunctorIS3_EELNS_7options16DataLayoutOption5ValueE0ELb1EE14computeOffsetsESt5arrayImLm3EE.isra.0.cold
00000000002f08b0 W _ZN7autopas16LCC08CellHandlerINS_16FullParticleCellINS_10MoleculeLJIdEEEENS_27VLCAllCellsGeneratorFunctorIS3_EELNS_7options16DataLayoutOption5ValueE0ELb1EEC1EPS6_St5arrayImLm3EEdRKSC_IdLm3EERKSD_
00000000002f08b0 W _ZN7autopas16LCC08CellHandlerINS_16FullParticleCellINS_10MoleculeLJIdEEEENS_27VLCAllCellsGeneratorFunctorIS3_EELNS_7options16DataLayoutOption5ValueE0ELb1EEC2EPS6_St5arrayImLm3EEdRKSC_IdLm3EERKSD_
00000000001e4a40 t _ZN7autopas16LCC08CellHandlerINS_16FullParticleCellINS_10MoleculeLJIdEEEENS_27VLCAllCellsGeneratorFunctorIS3_EELNS_7options16DataLayoutOption5ValueE1ELb0EE14computeOffsetsESt5arrayImLm3EE.isra.0
00000000001d2502 t _ZN7autopas16LCC08CellHandlerINS_16FullParticleCellINS_10MoleculeLJIdEEEENS_27VLCAllCellsGeneratorFunctorIS3_EELNS_7options16DataLayoutOption5ValueE1ELb0EE14computeOffsetsESt5arrayImLm3EE.isra.0.cold
00000000002ef6c0 W _ZN7autopas16LCC08CellHandlerINS_16FullParticleCellINS_10MoleculeLJIdEEEENS_27VLCAllCellsGeneratorFunctorIS3_EELNS_7options16DataLayoutOption5ValueE1ELb0EEC1EPS6_St5arrayImLm3EEdRKSC_IdLm3EERKSD_
00000000002ef6c0 W _ZN7autopas16LCC08CellHandlerINS_16FullParticleCellINS_10MoleculeLJIdEEEENS_27VLCAllCellsGeneratorFunctorIS3_EELNS_7options16DataLayoutOption5ValueE1ELb0EEC2EPS6_St5arrayImLm3EEdRKSC_IdLm3EERKSD_
00000000001e7ce0 t _ZN7autopas16LCC08CellHandlerINS_16FullParticleCellINS_10MoleculeLJIdEEEENS_27VLCAllCellsGeneratorFunctorIS3_EELNS_7options16DataLayoutOption5ValueE1ELb1EE14computeOffsetsESt5arrayImLm3EE.isra.0
00000000001d25fe t _ZN7autopas16LCC08CellHandlerINS_16FullParticleCellINS_10MoleculeLJIdEEEENS_27VLCAllCellsGeneratorFunctorIS3_EELNS_7options16DataLayoutOption5ValueE1ELb1EE14computeOffsetsESt5arrayImLm3EE.isra.0.cold
00000000002f5bb0 W _ZN7autopas16LCC08CellHandlerINS_16FullParticleCellINS_10MoleculeLJIdEEEENS_27VLCAllCellsGeneratorFunctorIS3_EELNS_7options16DataLayoutOption5ValueE1ELb1EEC1EPS6_St5arrayImLm3EEdRKSC_IdLm3EERKSD_
00000000002f5bb0 W _ZN7autopas16LCC08CellHandlerINS_16FullParticleCellINS_10MoleculeLJIdEEEENS_27VLCAllCellsGeneratorFunctorIS3_EELNS_7options16DataLayoutOption5ValueE1ELb1EEC2EPS6_St5arrayImLm3EEdRKSC_IdLm3EERKSD_
00000000001e52b0 t _ZN7autopas16LCC08CellHandlerINS_16FullParticleCellINS_10MoleculeLJIdEEEENS_27VLCCellPairGeneratorFunctorIS3_EELNS_7options16DataLayoutOption5ValueE0ELb0EE14computeOffsetsESt5arrayImLm3EE.isra.0
00000000001d252c t _ZN7autopas16LCC08CellHandlerINS_16FullParticleCellINS_10MoleculeLJIdEEEENS_27VLCCellPairGeneratorFunctorIS3_EELNS_7options16DataLayoutOption5ValueE0ELb0EE14computeOffsetsESt5arrayImLm3EE.isra.0.cold
00000000002f0700 W _ZN7autopas16LCC08CellHandlerINS_16FullParticleCellINS_10MoleculeLJIdEEEENS_27VLCCellPairGeneratorFunctorIS3_EELNS_7options16DataLayoutOption5ValueE0ELb0EEC1EPS6_St5arrayImLm3EEdRKSC_IdLm3EERKSD_
00000000002f0700 W _ZN7autopas16LCC08CellHandlerINS_16FullParticleCellINS_10MoleculeLJIdEEEENS_27VLCCellPairGeneratorFunctorIS3_EELNS_7options16DataLayoutOption5ValueE0ELb0EEC2EPS6_St5arrayImLm3EEdRKSC_IdLm3EERKSD_
00000000001e6390 t _ZN7autopas16LCC08CellHandlerINS_16FullParticleCellINS_10MoleculeLJIdEEEENS_27VLCCellPairGeneratorFunctorIS3_EELNS_7options16DataLayoutOption5ValueE0ELb1EE14computeOffsetsESt5arrayImLm3EE.isra.0
00000000001d2580 t _ZN7autopas16LCC08CellHandlerINS_16FullParticleCellINS_10MoleculeLJIdEEEENS_27VLCCellPairGeneratorFunctorIS3_EELNS_7options16DataLayoutOption5ValueE0ELb1EE14computeOffsetsESt5arrayImLm3EE.isra.0.cold
00000000002f0820 W _ZN7autopas16LCC08CellHandlerINS_16FullParticleCellINS_10MoleculeLJIdEEEENS_27VLCCellPairGeneratorFunctorIS3_EELNS_7options16DataLayoutOption5ValueE0ELb1EEC1EPS6_St5arrayImLm3EEdRKSC_IdLm3EERKSD_
00000000002f0820 W _ZN7autopas16LCC08CellHandlerINS_16FullParticleCellINS_10MoleculeLJIdEEEENS_27VLCCellPairGeneratorFunctorIS3_EELNS_7options16DataLayoutOption5ValueE0ELb1EEC2EPS6_St5arrayImLm3EEdRKSC_IdLm3EERKSD_
00000000001e8550 t _ZN7autopas16LCC08CellHandlerINS_16FullParticleCellINS_10MoleculeLJIdEEEENS_27VLCCellPairGeneratorFunctorIS3_EELNS_7options16DataLayoutOption5ValueE1ELb0EE14computeOffsetsESt5arrayImLm3EE.isra.0
00000000001d2628 t _ZN7autopas16LCC08CellHandlerINS_16FullParticleCellINS_10MoleculeLJIdEEEENS_27VLCCellPairGeneratorFunctorIS3_EELNS_7options16DataLayoutOption5ValueE1ELb0EE14computeOffsetsESt5arrayImLm3EE.isra.0.cold
00000000002f5c40 W _ZN7autopas16LCC08CellHandlerINS_16FullParticleCellINS_10MoleculeLJIdEEEENS_27VLCCellPairGeneratorFunctorIS3_EELNS_7options16DataLayoutOption5ValueE1ELb0EEC1EPS6_St5arrayImLm3EEdRKSC_IdLm3EERKSD_
00000000002f5c40 W _ZN7autopas16LCC08CellHandlerINS_16FullParticleCellINS_10MoleculeLJIdEEEENS_27VLCCellPairGeneratorFunctorIS3_EELNS_7options16DataLayoutOption5ValueE1ELb0EEC2EPS6_St5arrayImLm3EEdRKSC_IdLm3EERKSD_
00000000001e5b20 t _ZN7autopas16LCC08CellHandlerINS_16FullParticleCellINS_10MoleculeLJIdEEEENS_27VLCCellPairGeneratorFunctorIS3_EELNS_7options16DataLayoutOption5ValueE1ELb1EE14computeOffsetsESt5arrayImLm3EE.isra.0
00000000001d2556 t _ZN7autopas16LCC08CellHandlerINS_16FullParticleCellINS_10MoleculeLJIdEEEENS_27VLCCellPairGeneratorFunctorIS3_EELNS_7options16DataLayoutOption5ValueE1ELb1EE14computeOffsetsESt5arrayImLm3EE.isra.0.cold
00000000002f0790 W _ZN7autopas16LCC08CellHandlerINS_16FullParticleCellINS_10MoleculeLJIdEEEENS_27VLCCellPairGeneratorFunctorIS3_EELNS_7options16DataLayoutOption5ValueE1ELb1EEC1EPS6_St5arrayImLm3EEdRKSC_IdLm3EERKSD_
00000000002f0790 W _ZN7autopas16LCC08CellHandlerINS_16FullParticleCellINS_10MoleculeLJIdEEEENS_27VLCCellPairGeneratorFunctorIS3_EELNS_7options16DataLayoutOption5ValueE1ELb1EEC2EPS6_St5arrayImLm3EEdRKSC_IdLm3EERKSD_
000000000040ce90 T _ZN7autopas16PredictionLogger17logAllPredictionsERKSt3setINS_13ConfigurationESt4lessIS2_ESaIS2_EERKSt13unordered_mapIS2_lNS_10ConfigHashESt8equal_toIS2_ESaISt4pairIKS2_lEEElm
000000000040cdd0 T _ZN7autopas16PredictionLoggerC1ERKNSt7__cxx1112basic_stringIcSt11char_traitsIcESaIcEEE
000000000040cdd0 T _ZN7autopas16PredictionLoggerC2ERKNSt7__cxx1112basic_stringIcSt11char_traitsIcESaIcEEE
00000000001d405e t _ZN7autopas16PredictionLoggerC2ERKNSt7__cxx1112basic_stringIcSt11char_traitsIcESaIcEEE.cold
000000000040ce60 T _ZN7autopas16PredictionLoggerD1Ev
000000000040ce60 T _ZN7autopas16PredictionLoggerD2Ev
00000000003f1700 W _ZN7autopas16PredictiveTuning11addEvidenceElm
00000000003f2cb0 W _ZN7autopas16PredictiveTuning16linearRegressionEv
00000000003f3210 W _ZN7autopas16PredictiveTuning16newtonPolynomialEv
00000000003f1b10 W _ZN7autopas16PredictiveTuning26selectOptimalConfigurationEv
00000000003f23f0 W _ZN7autopas16PredictiveTuning4tuneEb
00000000003f3cb0 W _ZN7autopas16PredictiveTuning5resetEm
00000000003e83f0 W _ZN7autopas16PredictiveTuningD0Ev
00000000003e8100 W _ZN7autopas16PredictiveTuningD1Ev
00000000003e8100 W _ZN7autopas16PredictiveTuningD2Ev
000000000040cf60 T _ZN7autopas16TuningDataLogger13logTuningDataERKNS_13ConfigurationERKSt6vectorIlSaIlEES8_mll
000000000040cea0 T _ZN7autopas16TuningDataLoggerC1EmRKNSt7__cxx1112basic_stringIcSt11char_traitsIcESaIcEEE
000000000040cea0 T _ZN7autopas16TuningDataLoggerC2EmRKNSt7__cxx1112basic_stringIcSt11char_traitsIcESaIcEEE
00000000001d4082 t _ZN7autopas16TuningDataLoggerC2EmRKNSt7__cxx1112basic_stringIcSt11char_traitsIcESaIcEEE.cold
000000000040cf30 T _ZN7autopas16TuningDataLoggerD1Ev
000000000040cf30 T _ZN7autopas16TuningDataLoggerD2Ev
00000000002b2230 W _ZN7autopas16VerletListsCellsINS_10MoleculeLJIdEENS_23VLCAllCellsNeighborListIS2_EEE15iteratePairwiseEPNS_18TraversalInterfaceE
00000000003091a0 W _ZN7autopas16VerletListsCellsINS_10MoleculeLJIdEENS_23VLCAllCellsNeighborListIS2_EEE20rebuildNeighborListsEPNS_18TraversalInterfaceE
000000000028bd60 W _ZN7autopas16VerletListsCellsINS_10MoleculeLJIdEENS_23VLCAllCellsNeighborListIS2_EEED0Ev
000000000028ba60 W _ZN7autopas16VerletListsCellsINS_10MoleculeLJIdEENS_23VLCAllCellsNeighborListIS2_EEED1Ev
000000000028ba60 W _ZN7autopas16VerletListsCellsINS_10MoleculeLJIdEENS_23VLCAllCellsNeighborListIS2_EEED2Ev
00000000002b2470 W _ZN7autopas16VerletListsCellsINS_10MoleculeLJIdEENS_23VLCCellPairNeighborListIS2_EEE15iteratePairwiseEPNS_18TraversalInterfaceE
0000000000319d80 W _ZN7autopas16VerletListsCellsINS_10MoleculeLJIdEENS_23VLCCellPairNeighborListIS2_EEE20rebuildNeighborListsEPNS_18TraversalInterfaceE
000000000028cce0 W _ZN7autopas16VerletListsCellsINS_10MoleculeLJIdEENS_23VLCCellPairNeighborListIS2_EEED0Ev
000000000028c8c0 W _ZN7autopas16VerletListsCellsINS_10MoleculeLJIdEENS_23VLCCellPairNeighborListIS2_EEED1Ev
000000000028c8c0 W _ZN7autopas16VerletListsCellsINS_10MoleculeLJIdEENS_23VLCCellPairNeighborListIS2_EEED2Ev
00000000001f7fa0 W _ZN7autopas17CellPairTraversalINS_14OctreeLeafNodeINS_10MoleculeLJIdEEEEE18setCellsToTraverseERSt6vectorIS4_SaIS4_EE
00000000001f7540 W _ZN7autopas17CellPairTraversalINS_16FullParticleCellINS_10MoleculeLJIdEEEEE18setCellsToTraverseERSt6vectorIS4_SaIS4_EE
00000000001f7530 W _ZN7autopas17CellPairTraversalINS_21ReferenceParticleCellINS_10MoleculeLJIdEEEEE18setCellsToTraverseERSt6vectorIS4_SaIS4_EE
00000000002a05c0 W _ZN7autopas17ContainerSelectorINS_10MoleculeLJIdEEE15selectContainerENS_7options15ContainerOptionENS_21ContainerSelectorInfoE
000000000029e800 W _ZN7autopas17ContainerSelectorINS_10MoleculeLJIdEEE17generateContainerENS_7options15ContainerOptionENS_21ContainerSelectorInfoE
000000000025db10 W _ZN7autopas17ContainerSelectorINS_10MoleculeLJIdEEE19getCurrentContainerEv
000000000033e620 W _ZN7autopas17LCC04HCPTraversalINS_16FullParticleCellINS_10MoleculeLJIdEEEENS_27VLCAllCellsGeneratorFunctorIS3_EELNS_7options16DataLayoutOption5ValueE0ELb0EE16processBasePack6ERSt6vectorIS4_SaIS4_EERKSt5arrayIlLm3EE
000000000033e8a0 W _ZN7autopas17LCC04HCPTraversalINS_16FullParticleCellINS_10MoleculeLJIdEEEENS_27VLCAllCellsGeneratorFunctorIS3_EELNS_7options16DataLayoutOption5ValueE0ELb0EE19traverseSingleColorERSt6vectorIS4_SaIS4_EEi
0000000000206b50 W _ZN7autopas17LCC04HCPTraversalINS_16FullParticleCellINS_10MoleculeLJIdEEEENS_27VLCAllCellsGeneratorFunctorIS3_EELNS_7options16DataLayoutOption5ValueE0ELb0EE21traverseParticlePairsEv
000000000033ebc0 t _ZN7autopas17LCC04HCPTraversalINS_16FullParticleCellINS_10MoleculeLJIdEEEENS_27VLCAllCellsGeneratorFunctorIS3_EELNS_7options16DataLayoutOption5ValueE0ELb0EE21traverseParticlePairsEv._omp_fn.0
0000000000203a10 W _ZN7autopas17LCC04HCPTraversalINS_16FullParticleCellINS_10MoleculeLJIdEEEENS_27VLCAllCellsGeneratorFunctorIS3_EELNS_7options16DataLayoutOption5ValueE0ELb0EED0Ev
00000000002039d0 W _ZN7autopas17LCC04HCPTraversalINS_16FullParticleCellINS_10MoleculeLJIdEEEENS_27VLCAllCellsGeneratorFunctorIS3_EELNS_7options16DataLayoutOption5ValueE0ELb0EED1Ev
00000000002039d0 W _ZN7autopas17LCC04HCPTraversalINS_16FullParticleCellINS_10MoleculeLJIdEEEENS_27VLCAllCellsGeneratorFunctorIS3_EELNS_7options16DataLayoutOption5ValueE0ELb0EED2Ev
000000000033ba90 W _ZN7autopas17LCC04HCPTraversalINS_16FullParticleCellINS_10MoleculeLJIdEEEENS_27VLCAllCellsGeneratorFunctorIS3_EELNS_7options16DataLayoutOption5ValueE0ELb1EE16processBasePack6ERSt6vectorIS4_SaIS4_EERKSt5arrayIlLm3EE
000000000033bd10 W _ZN7autopas17LCC04HCPTraversalINS_16FullParticleCellINS_10MoleculeLJIdEEEENS_27VLCAllCellsGeneratorFunctorIS3_EELNS_7options16DataLayoutOption5ValueE0ELb1EE19traverseSingleColorERSt6vectorIS4_SaIS4_EEi
0000000000206c10 W _ZN7autopas17LCC04HCPTraversalINS_16FullParticleCellINS_10MoleculeLJIdEEEENS_27VLCAllCellsGeneratorFunctorIS3_EELNS_7options16DataLayoutOption5ValueE0ELb1EE21traverseParticlePairsEv
000000000033c030 t _ZN7autopas17LCC04HCPTraversalINS_16FullParticleCellINS_10MoleculeLJIdEEEENS_27VLCAllCellsGeneratorFunctorIS3_EELNS_7options16DataLayoutOption5ValueE0ELb1EE21traverseParticlePairsEv._omp_fn.0
0000000000203cf0 W _ZN7autopas17LCC04HCPTraversalINS_16FullParticleCellINS_10MoleculeLJIdEEEENS_27VLCAllCellsGeneratorFunctorIS3_EELNS_7options16DataLayoutOption5ValueE0ELb1EED0Ev
0000000000203cb0 W _ZN7autopas17LCC04HCPTraversalINS_16FullParticleCellINS_10MoleculeLJIdEEEENS_27VLCAllCellsGeneratorFunctorIS3_EELNS_7options16DataLayoutOption5ValueE0ELb1EED1Ev
0000000000203cb0 W _ZN7autopas17LCC04HCPTraversalINS_16FullParticleCellINS_10MoleculeLJIdEEEENS_27VLCAllCellsGeneratorFunctorIS3_EELNS_7options16DataLayoutOption5ValueE0ELb1EED2Ev
000000000032cb80 W _ZN7autopas17LCC04HCPTraversalINS_16FullParticleCellINS_10MoleculeLJIdEEEENS_27VLCAllCellsGeneratorFunctorIS3_EELNS_7options16DataLayoutOption5ValueE1ELb0EE16processBasePack6ERSt6vectorIS4_SaIS4_EERKSt5arrayIlLm3EE
000000000032cdb0 W _ZN7autopas17LCC04HCPTraversalINS_16FullParticleCellINS_10MoleculeLJIdEEEENS_27VLCAllCellsGeneratorFunctorIS3_EELNS_7options16DataLayoutOption5ValueE1ELb0EE19traverseSingleColorERSt6vectorIS4_SaIS4_EEi
00000000002069d0 W _ZN7autopas17LCC04HCPTraversalINS_16FullParticleCellINS_10MoleculeLJIdEEEENS_27VLCAllCellsGeneratorFunctorIS3_EELNS_7options16DataLayoutOption5ValueE1ELb0EE21traverseParticlePairsEv
000000000032d0d0 t _ZN7autopas17LCC04HCPTraversalINS_16FullParticleCellINS_10MoleculeLJIdEEEENS_27VLCAllCellsGeneratorFunctorIS3_EELNS_7options16DataLayoutOption5ValueE1ELb0EE21traverseParticlePairsEv._omp_fn.0
0000000000203450 W _ZN7autopas17LCC04HCPTraversalINS_16FullParticleCellINS_10MoleculeLJIdEEEENS_27VLCAllCellsGeneratorFunctorIS3_EELNS_7options16DataLayoutOption5ValueE1ELb0EED0Ev
0000000000203410 W _ZN7autopas17LCC04HCPTraversalINS_16FullParticleCellINS_10MoleculeLJIdEEEENS_27VLCAllCellsGeneratorFunctorIS3_EELNS_7options16DataLayoutOption5ValueE1ELb0EED1Ev
0000000000203410 W _ZN7autopas17LCC04HCPTraversalINS_16FullParticleCellINS_10MoleculeLJIdEEEENS_27VLCAllCellsGeneratorFunctorIS3_EELNS_7options16DataLayoutOption5ValueE1ELb0EED2Ev
0000000000332670 W _ZN7autopas17LCC04HCPTraversalINS_16FullParticleCellINS_10MoleculeLJIdEEEENS_27VLCAllCellsGeneratorFunctorIS3_EELNS_7options16DataLayoutOption5ValueE1ELb1EE16processBasePack6ERSt6vectorIS4_SaIS4_EERKSt5arrayIlLm3EE
00000000003328a0 W _ZN7autopas17LCC04HCPTraversalINS_16FullParticleCellINS_10MoleculeLJIdEEEENS_27VLCAllCellsGeneratorFunctorIS3_EELNS_7options16DataLayoutOption5ValueE1ELb1EE19traverseSingleColorERSt6vectorIS4_SaIS4_EEi
0000000000206a90 W _ZN7autopas17LCC04HCPTraversalINS_16FullParticleCellINS_10MoleculeLJIdEEEENS_27VLCAllCellsGeneratorFunctorIS3_EELNS_7options16DataLayoutOption5ValueE1ELb1EE21traverseParticlePairsEv
0000000000332bc0 t _ZN7autopas17LCC04HCPTraversalINS_16FullParticleCellINS_10MoleculeLJIdEEEENS_27VLCAllCellsGeneratorFunctorIS3_EELNS_7options16DataLayoutOption5ValueE1ELb1EE21traverseParticlePairsEv._omp_fn.0
0000000000203730 W _ZN7autopas17LCC04HCPTraversalINS_16FullParticleCellINS_10MoleculeLJIdEEEENS_27VLCAllCellsGeneratorFunctorIS3_EELNS_7options16DataLayoutOption5ValueE1ELb1EED0Ev
00000000002036f0 W _ZN7autopas17LCC04HCPTraversalINS_16FullParticleCellINS_10MoleculeLJIdEEEENS_27VLCAllCellsGeneratorFunctorIS3_EELNS_7options16DataLayoutOption5ValueE1ELb1EED1Ev
00000000002036f0 W _ZN7autopas17LCC04HCPTraversalINS_16FullParticleCellINS_10MoleculeLJIdEEEENS_27VLCAllCellsGeneratorFunctorIS3_EELNS_7options16DataLayoutOption5ValueE1ELb1EED2Ev
000000000038ac50 W _ZN7autopas17LCC04HCPTraversalINS_16FullParticleCellINS_10MoleculeLJIdEEEENS_27VLCCellPairGeneratorFunctorIS3_EELNS_7options16DataLayoutOption5ValueE0ELb0EE16processBasePack6ERSt6vectorIS4_SaIS4_EERKSt5arrayIlLm3EE
000000000038aed0 W _ZN7autopas17LCC04HCPTraversalINS_16FullParticleCellINS_10MoleculeLJIdEEEENS_27VLCCellPairGeneratorFunctorIS3_EELNS_7options16DataLayoutOption5ValueE0ELb0EE19traverseSingleColorERSt6vectorIS4_SaIS4_EEi
0000000000206e50 W _ZN7autopas17LCC04HCPTraversalINS_16FullParticleCellINS_10MoleculeLJIdEEEENS_27VLCCellPairGeneratorFunctorIS3_EELNS_7options16DataLayoutOption5ValueE0ELb0EE21traverseParticlePairsEv
000000000038b1f0 t _ZN7autopas17LCC04HCPTraversalINS_16FullParticleCellINS_10MoleculeLJIdEEEENS_27VLCCellPairGeneratorFunctorIS3_EELNS_7options16DataLayoutOption5ValueE0ELb0EE21traverseParticlePairsEv._omp_fn.0
0000000000204990 W _ZN7autopas17LCC04HCPTraversalINS_16FullParticleCellINS_10MoleculeLJIdEEEENS_27VLCCellPairGeneratorFunctorIS3_EELNS_7options16DataLayoutOption5ValueE0ELb0EED0Ev
0000000000204950 W _ZN7autopas17LCC04HCPTraversalINS_16FullParticleCellINS_10MoleculeLJIdEEEENS_27VLCCellPairGeneratorFunctorIS3_EELNS_7options16DataLayoutOption5ValueE0ELb0EED1Ev
0000000000204950 W _ZN7autopas17LCC04HCPTraversalINS_16FullParticleCellINS_10MoleculeLJIdEEEENS_27VLCCellPairGeneratorFunctorIS3_EELNS_7options16DataLayoutOption5ValueE0ELb0EED2Ev
0000000000386620 W _ZN7autopas17LCC04HCPTraversalINS_16FullParticleCellINS_10MoleculeLJIdEEEENS_27VLCCellPairGeneratorFunctorIS3_EELNS_7options16DataLayoutOption5ValueE0ELb1EE16processBasePack6ERSt6vectorIS4_SaIS4_EERKSt5arrayIlLm3EE
00000000003868a0 W _ZN7autopas17LCC04HCPTraversalINS_16FullParticleCellINS_10MoleculeLJIdEEEENS_27VLCCellPairGeneratorFunctorIS3_EELNS_7options16DataLayoutOption5ValueE0ELb1EE19traverseSingleColorERSt6vectorIS4_SaIS4_EEi
0000000000206f10 W _ZN7autopas17LCC04HCPTraversalINS_16FullParticleCellINS_10MoleculeLJIdEEEENS_27VLCCellPairGeneratorFunctorIS3_EELNS_7options16DataLayoutOption5ValueE0ELb1EE21traverseParticlePairsEv
0000000000386bc0 t _ZN7autopas17LCC04HCPTraversalINS_16FullParticleCellINS_10MoleculeLJIdEEEENS_27VLCCellPairGeneratorFunctorIS3_EELNS_7options16DataLayoutOption5ValueE0ELb1EE21traverseParticlePairsEv._omp_fn.0
0000000000203250 W _ZN7autopas17LCC04HCPTraversalINS_16FullParticleCellINS_10MoleculeLJIdEEEENS_27VLCCellPairGeneratorFunctorIS3_EELNS_7options16DataLayoutOption5ValueE0ELb1EED0Ev
0000000000203210 W _ZN7autopas17LCC04HCPTraversalINS_16FullParticleCellINS_10MoleculeLJIdEEEENS_27VLCCellPairGeneratorFunctorIS3_EELNS_7options16DataLayoutOption5ValueE0ELb1EED1Ev
0000000000203210 W _ZN7autopas17LCC04HCPTraversalINS_16FullParticleCellINS_10MoleculeLJIdEEEENS_27VLCCellPairGeneratorFunctorIS3_EELNS_7options16DataLayoutOption5ValueE0ELb1EED2Ev
000000000038d9e0 W _ZN7autopas17LCC04HCPTraversalINS_16FullParticleCellINS_10MoleculeLJIdEEEENS_27VLCCellPairGeneratorFunctorIS3_EELNS_7options16DataLayoutOption5ValueE1ELb0EE16processBasePack6ERSt6vectorIS4_SaIS4_EERKSt5arrayIlLm3EE
000000000038dc10 W _ZN7autopas17LCC04HCPTraversalINS_16FullParticleCellINS_10MoleculeLJIdEEEENS_27VLCCellPairGeneratorFunctorIS3_EELNS_7options16DataLayoutOption5ValueE1ELb0EE19traverseSingleColorERSt6vectorIS4_SaIS4_EEi
0000000000206cd0 W _ZN7autopas17LCC04HCPTraversalINS_16FullParticleCellINS_10MoleculeLJIdEEEENS_27VLCCellPairGeneratorFunctorIS3_EELNS_7options16DataLayoutOption5ValueE1ELb0EE21traverseParticlePairsEv
000000000038df30 t _ZN7autopas17LCC04HCPTraversalINS_16FullParticleCellINS_10MoleculeLJIdEEEENS_27VLCCellPairGeneratorFunctorIS3_EELNS_7options16DataLayoutOption5ValueE1ELb0EE21traverseParticlePairsEv._omp_fn.0
00000000002043d0 W _ZN7autopas17LCC04HCPTraversalINS_16FullParticleCellINS_10MoleculeLJIdEEEENS_27VLCCellPairGeneratorFunctorIS3_EELNS_7options16DataLayoutOption5ValueE1ELb0EED0Ev
0000000000204390 W _ZN7autopas17LCC04HCPTraversalINS_16FullParticleCellINS_10MoleculeLJIdEEEENS_27VLCCellPairGeneratorFunctorIS3_EELNS_7options16DataLayoutOption5ValueE1ELb0EED1Ev
0000000000204390 W _ZN7autopas17LCC04HCPTraversalINS_16FullParticleCellINS_10MoleculeLJIdEEEENS_27VLCCellPairGeneratorFunctorIS3_EELNS_7options16DataLayoutOption5ValueE1ELb0EED2Ev
000000000038fbe0 W _ZN7autopas17LCC04HCPTraversalINS_16FullParticleCellINS_10MoleculeLJIdEEEENS_27VLCCellPairGeneratorFunctorIS3_EELNS_7options16DataLayoutOption5ValueE1ELb1EE16processBasePack6ERSt6vectorIS4_SaIS4_EERKSt5arrayIlLm3EE
000000000038fe10 W _ZN7autopas17LCC04HCPTraversalINS_16FullParticleCellINS_10MoleculeLJIdEEEENS_27VLCCellPairGeneratorFunctorIS3_EELNS_7options16DataLayoutOption5ValueE1ELb1EE19traverseSingleColorERSt6vectorIS4_SaIS4_EEi
0000000000206d90 W _ZN7autopas17LCC04HCPTraversalINS_16FullParticleCellINS_10MoleculeLJIdEEEENS_27VLCCellPairGeneratorFunctorIS3_EELNS_7options16DataLayoutOption5ValueE1ELb1EE21traverseParticlePairsEv
0000000000390130 t _ZN7autopas17LCC04HCPTraversalINS_16FullParticleCellINS_10MoleculeLJIdEEEENS_27VLCCellPairGeneratorFunctorIS3_EELNS_7options16DataLayoutOption5ValueE1ELb1EE21traverseParticlePairsEv._omp_fn.0
00000000002046b0 W _ZN7autopas17LCC04HCPTraversalINS_16FullParticleCellINS_10MoleculeLJIdEEEENS_27VLCCellPairGeneratorFunctorIS3_EELNS_7options16DataLayoutOption5ValueE1ELb1EED0Ev
0000000000204670 W _ZN7autopas17LCC04HCPTraversalINS_16FullParticleCellINS_10MoleculeLJIdEEEENS_27VLCCellPairGeneratorFunctorIS3_EELNS_7options16DataLayoutOption5ValueE1ELb1EED1Ev
0000000000204670 W _ZN7autopas17LCC04HCPTraversalINS_16FullParticleCellINS_10MoleculeLJIdEEEENS_27VLCCellPairGeneratorFunctorIS3_EELNS_7options16DataLayoutOption5ValueE1ELb1EED2Ev
0000000000368270 W _ZN7autopas17LCSlicedTraversalINS_16FullParticleCellINS_10MoleculeLJIdEEEENS_27VLCAllCellsGeneratorFunctorIS3_EELNS_7options16DataLayoutOption5ValueE0ELb0EE21traverseParticlePairsEv
0000000000221630 W _ZN7autopas17LCSlicedTraversalINS_16FullParticleCellINS_10MoleculeLJIdEEEENS_27VLCAllCellsGeneratorFunctorIS3_EELNS_7options16DataLayoutOption5ValueE0ELb0EED0Ev
0000000000203b40 W _ZN7autopas17LCSlicedTraversalINS_16FullParticleCellINS_10MoleculeLJIdEEEENS_27VLCAllCellsGeneratorFunctorIS3_EELNS_7options16DataLayoutOption5ValueE0ELb0EED1Ev
0000000000203b40 W _ZN7autopas17LCSlicedTraversalINS_16FullParticleCellINS_10MoleculeLJIdEEEENS_27VLCAllCellsGeneratorFunctorIS3_EELNS_7options16DataLayoutOption5ValueE0ELb0EED2Ev
000000000036d8b0 W _ZN7autopas17LCSlicedTraversalINS_16FullParticleCellINS_10MoleculeLJIdEEEENS_27VLCAllCellsGeneratorFunctorIS3_EELNS_7options16DataLayoutOption5ValueE0ELb1EE21traverseParticlePairsEv
0000000000221320 W _ZN7autopas17LCSlicedTraversalINS_16FullParticleCellINS_10MoleculeLJIdEEEENS_27VLCAllCellsGeneratorFunctorIS3_EELNS_7options16DataLayoutOption5ValueE0ELb1EED0Ev
0000000000203e20 W _ZN7autopas17LCSlicedTraversalINS_16FullParticleCellINS_10MoleculeLJIdEEEENS_27VLCAllCellsGeneratorFunctorIS3_EELNS_7options16DataLayoutOption5ValueE0ELb1EED1Ev
0000000000203e20 W _ZN7autopas17LCSlicedTraversalINS_16FullParticleCellINS_10MoleculeLJIdEEEENS_27VLCAllCellsGeneratorFunctorIS3_EELNS_7options16DataLayoutOption5ValueE0ELb1EED2Ev
000000000035d6f0 W _ZN7autopas17LCSlicedTraversalINS_16FullParticleCellINS_10MoleculeLJIdEEEENS_27VLCAllCellsGeneratorFunctorIS3_EELNS_7options16DataLayoutOption5ValueE1ELb0EE21traverseParticlePairsEv
0000000000221780 W _ZN7autopas17LCSlicedTraversalINS_16FullParticleCellINS_10MoleculeLJIdEEEENS_27VLCAllCellsGeneratorFunctorIS3_EELNS_7options16DataLayoutOption5ValueE1ELb0EED0Ev
0000000000203580 W _ZN7autopas17LCSlicedTraversalINS_16FullParticleCellINS_10MoleculeLJIdEEEENS_27VLCAllCellsGeneratorFunctorIS3_EELNS_7options16DataLayoutOption5ValueE1ELb0EED1Ev
0000000000203580 W _ZN7autopas17LCSlicedTraversalINS_16FullParticleCellINS_10MoleculeLJIdEEEENS_27VLCAllCellsGeneratorFunctorIS3_EELNS_7options16DataLayoutOption5ValueE1ELb0EED2Ev
0000000000362c30 W _ZN7autopas17LCSlicedTraversalINS_16FullParticleCellINS_10MoleculeLJIdEEEENS_27VLCAllCellsGeneratorFunctorIS3_EELNS_7options16DataLayoutOption5ValueE1ELb1EE21traverseParticlePairsEv
00000000002212b0 W _ZN7autopas17LCSlicedTraversalINS_16FullParticleCellINS_10MoleculeLJIdEEEENS_27VLCAllCellsGeneratorFunctorIS3_EELNS_7options16DataLayoutOption5ValueE1ELb1EED0Ev
0000000000203860 W _ZN7autopas17LCSlicedTraversalINS_16FullParticleCellINS_10MoleculeLJIdEEEENS_27VLCAllCellsGeneratorFunctorIS3_EELNS_7options16DataLayoutOption5ValueE1ELb1EED1Ev
0000000000203860 W _ZN7autopas17LCSlicedTraversalINS_16FullParticleCellINS_10MoleculeLJIdEEEENS_27VLCAllCellsGeneratorFunctorIS3_EELNS_7options16DataLayoutOption5ValueE1ELb1EED2Ev
000000000037d970 W _ZN7autopas17LCSlicedTraversalINS_16FullParticleCellINS_10MoleculeLJIdEEEENS_27VLCCellPairGeneratorFunctorIS3_EELNS_7options16DataLayoutOption5ValueE0ELb0EE21traverseParticlePairsEv
0000000000221160 W _ZN7autopas17LCSlicedTraversalINS_16FullParticleCellINS_10MoleculeLJIdEEEENS_27VLCCellPairGeneratorFunctorIS3_EELNS_7options16DataLayoutOption5ValueE0ELb0EED0Ev
0000000000204ac0 W _ZN7autopas17LCSlicedTraversalINS_16FullParticleCellINS_10MoleculeLJIdEEEENS_27VLCCellPairGeneratorFunctorIS3_EELNS_7options16DataLayoutOption5ValueE0ELb0EED1Ev
0000000000204ac0 W _ZN7autopas17LCSlicedTraversalINS_16FullParticleCellINS_10MoleculeLJIdEEEENS_27VLCCellPairGeneratorFunctorIS3_EELNS_7options16DataLayoutOption5ValueE0ELb0EED2Ev
0000000000382fb0 W _ZN7autopas17LCSlicedTraversalINS_16FullParticleCellINS_10MoleculeLJIdEEEENS_27VLCCellPairGeneratorFunctorIS3_EELNS_7options16DataLayoutOption5ValueE0ELb1EE21traverseParticlePairsEv
00000000002214e0 W _ZN7autopas17LCSlicedTraversalINS_16FullParticleCellINS_10MoleculeLJIdEEEENS_27VLCCellPairGeneratorFunctorIS3_EELNS_7options16DataLayoutOption5ValueE0ELb1EED0Ev
00000000002030b0 W _ZN7autopas17LCSlicedTraversalINS_16FullParticleCellINS_10MoleculeLJIdEEEENS_27VLCCellPairGeneratorFunctorIS3_EELNS_7options16DataLayoutOption5ValueE0ELb1EED1Ev
00000000002030b0 W _ZN7autopas17LCSlicedTraversalINS_16FullParticleCellINS_10MoleculeLJIdEEEENS_27VLCCellPairGeneratorFunctorIS3_EELNS_7options16DataLayoutOption5ValueE0ELb1EED2Ev
0000000000372df0 W _ZN7autopas17LCSlicedTraversalINS_16FullParticleCellINS_10MoleculeLJIdEEEENS_27VLCCellPairGeneratorFunctorIS3_EELNS_7options16DataLayoutOption5ValueE1ELb0EE21traverseParticlePairsEv
0000000000221240 W _ZN7autopas17LCSlicedTraversalINS_16FullParticleCellINS_10MoleculeLJIdEEEENS_27VLCCellPairGeneratorFunctorIS3_EELNS_7options16DataLayoutOption5ValueE1ELb0EED0Ev
0000000000204500 W _ZN7autopas17LCSlicedTraversalINS_16FullParticleCellINS_10MoleculeLJIdEEEENS_27VLCCellPairGeneratorFunctorIS3_EELNS_7options16DataLayoutOption5ValueE1ELb0EED1Ev
0000000000204500 W _ZN7autopas17LCSlicedTraversalINS_16FullParticleCellINS_10MoleculeLJIdEEEENS_27VLCCellPairGeneratorFunctorIS3_EELNS_7options16DataLayoutOption5ValueE1ELb0EED2Ev
0000000000378330 W _ZN7autopas17LCSlicedTraversalINS_16FullParticleCellINS_10MoleculeLJIdEEEENS_27VLCCellPairGeneratorFunctorIS3_EELNS_7options16DataLayoutOption5ValueE1ELb1EE21traverseParticlePairsEv
0000000000221550 W _ZN7autopas17LCSlicedTraversalINS_16FullParticleCellINS_10MoleculeLJIdEEEENS_27VLCCellPairGeneratorFunctorIS3_EELNS_7options16DataLayoutOption5ValueE1ELb1EED0Ev
00000000002047e0 W _ZN7autopas17LCSlicedTraversalINS_16FullParticleCellINS_10MoleculeLJIdEEEENS_27VLCCellPairGeneratorFunctorIS3_EELNS_7options16DataLayoutOption5ValueE1ELb1EED1Ev
00000000002047e0 W _ZN7autopas17LCSlicedTraversalINS_16FullParticleCellINS_10MoleculeLJIdEEEENS_27VLCCellPairGeneratorFunctorIS3_EELNS_7options16DataLayoutOption5ValueE1ELb1EED2Ev
00000000002057b0 W _ZN7autopas17OctreeNodeWrapperINS_10MoleculeLJIdEEE11addParticleERKS2_
00000000001ce6e0 W _ZN7autopas17OctreeNodeWrapperINS_10MoleculeLJIdEEE13deleteByIndexEm
00000000001ce7dc W _ZN7autopas17OctreeNodeWrapperINS_10MoleculeLJIdEEE13setCellLengthERSt5arrayIdLm3EE
00000000001f62d0 W _ZN7autopas17OctreeNodeWrapperINS_10MoleculeLJIdEEE20deleteDummyParticlesEv
00000000001f62e0 W _ZN7autopas17OctreeNodeWrapperINS_10MoleculeLJIdEEE25getParticleCellTypeAsEnumEv
0000000000205880 W _ZN7autopas17OctreeNodeWrapperINS_10MoleculeLJIdEEE5beginEv
0000000000205750 W _ZN7autopas17OctreeNodeWrapperINS_10MoleculeLJIdEEE5clearEv
000000000028d190 W _ZN7autopas17OctreeNodeWrapperINS_10MoleculeLJIdEEEC1ERKSt5arrayIdLm3EES7_jdd
000000000028d190 W _ZN7autopas17OctreeNodeWrapperINS_10MoleculeLJIdEEEC2ERKSt5arrayIdLm3EES7_jdd
000000000022d870 W _ZN7autopas17OctreeNodeWrapperINS_10MoleculeLJIdEEED0Ev
000000000020e4f0 W _ZN7autopas17OctreeNodeWrapperINS_10MoleculeLJIdEEED1Ev
000000000020e4f0 W _ZN7autopas17OctreeNodeWrapperINS_10MoleculeLJIdEEED2Ev
0000000000301610 W _ZN7autopas17TraversalSelectorINS_16FullParticleCellINS_10MoleculeLJIdEEEEE17generateTraversalINS_27VLCAllCellsGeneratorFunctorIS3_EELNS_7options16DataLayoutOption5ValueE0ELb0EEESt10unique_ptrINS_18TraversalInterfaceESt14default_deleteISD_EENS9_15TraversalOptionERT_RKNS_21TraversalSelectorInfoE
0000000000305260 W _ZN7autopas17TraversalSelectorINS_16FullParticleCellINS_10MoleculeLJIdEEEEE17generateTraversalINS_27VLCAllCellsGeneratorFunctorIS3_EELNS_7options16DataLayoutOption5ValueE0ELb1EEESt10unique_ptrINS_18TraversalInterfaceESt14default_deleteISD_EENS9_15TraversalOptionERT_RKNS_21TraversalSelectorInfoE
00000000002f9cb0 W _ZN7autopas17TraversalSelectorINS_16FullParticleCellINS_10MoleculeLJIdEEEEE17generateTraversalINS_27VLCAllCellsGeneratorFunctorIS3_EELNS_7options16DataLayoutOption5ValueE1ELb0EEESt10unique_ptrINS_18TraversalInterfaceESt14default_deleteISD_EENS9_15TraversalOptionERT_RKNS_21TraversalSelectorInfoE
00000000002fd900 W _ZN7autopas17TraversalSelectorINS_16FullParticleCellINS_10MoleculeLJIdEEEEE17generateTraversalINS_27VLCAllCellsGeneratorFunctorIS3_EELNS_7options16DataLayoutOption5ValueE1ELb1EEESt10unique_ptrINS_18TraversalInterfaceESt14default_deleteISD_EENS9_15TraversalOptionERT_RKNS_21TraversalSelectorInfoE
0000000000311b30 W _ZN7autopas17TraversalSelectorINS_16FullParticleCellINS_10MoleculeLJIdEEEEE17generateTraversalINS_27VLCCellPairGeneratorFunctorIS3_EELNS_7options16DataLayoutOption5ValueE0ELb0EEESt10unique_ptrINS_18TraversalInterfaceESt14default_deleteISD_EENS9_15TraversalOptionERT_RKNS_21TraversalSelectorInfoE
0000000000315780 W _ZN7autopas17TraversalSelectorINS_16FullParticleCellINS_10MoleculeLJIdEEEEE17generateTraversalINS_27VLCCellPairGeneratorFunctorIS3_EELNS_7options16DataLayoutOption5ValueE0ELb1EEESt10unique_ptrINS_18TraversalInterfaceESt14default_deleteISD_EENS9_15TraversalOptionERT_RKNS_21TraversalSelectorInfoE
000000000030a1d0 W _ZN7autopas17TraversalSelectorINS_16FullParticleCellINS_10MoleculeLJIdEEEEE17generateTraversalINS_27VLCCellPairGeneratorFunctorIS3_EELNS_7options16DataLayoutOption5ValueE1ELb0EEESt10unique_ptrINS_18TraversalInterfaceESt14default_deleteISD_EENS9_15TraversalOptionERT_RKNS_21TraversalSelectorInfoE
000000000030de20 W _ZN7autopas17TraversalSelectorINS_16FullParticleCellINS_10MoleculeLJIdEEEEE17generateTraversalINS_27VLCCellPairGeneratorFunctorIS3_EELNS_7options16DataLayoutOption5ValueE1ELb1EEESt10unique_ptrINS_18TraversalInterfaceESt14default_deleteISD_EENS9_15TraversalOptionERT_RKNS_21TraversalSelectorInfoE
00000000002bc350 W _ZN7autopas17VerletListHelpersINS_10MoleculeLJIdEEE26VerletListGeneratorFunctor10AoSFunctorERS2_S5_b
0000000000205230 W _ZN7autopas17VerletListHelpersINS_10MoleculeLJIdEEE26VerletListGeneratorFunctor13allowsNewton3Ev
00000000002e5bd0 W _ZN7autopas17VerletListHelpersINS_10MoleculeLJIdEEE26VerletListGeneratorFunctor14SoAFunctorPairENS_7SoAViewISt5tupleIJSt6vectorIPS2_NS_16AlignedAllocatorIS8_Lm64EEEES7_ImNS9_ImLm64EEEES7_IdNS9_IdLm64EEEESF_SF_SF_SF_SF_SF_SF_SF_SF_SF_SF_SD_S7_INS_14OwnershipStateENS9_ISG_Lm64EEEEEEEESK_b
00000000002e6de0 W _ZN7autopas17VerletListHelpersINS_10MoleculeLJIdEEE26VerletListGeneratorFunctor16SoAFunctorSingleENS_7SoAViewISt5tupleIJSt6vectorIPS2_NS_16AlignedAllocatorIS8_Lm64EEEES7_ImNS9_ImLm64EEEES7_IdNS9_IdLm64EEEESF_SF_SF_SF_SF_SF_SF_SF_SF_SF_SF_SD_S7_INS_14OwnershipStateENS9_ISG_Lm64EEEEEEEEb
0000000000205210 W _ZN7autopas17VerletListHelpersINS_10MoleculeLJIdEEE26VerletListGeneratorFunctor16allowsNonNewton3Ev
00000000001fd790 W _ZN7autopas17VerletListHelpersINS_10MoleculeLJIdEEE26VerletListGeneratorFunctor19isRelevantForTuningEv
00000000002000d0 W _ZN7autopas17VerletListHelpersINS_10MoleculeLJIdEEE26VerletListGeneratorFunctorD0Ev
00000000001f66f0 W _ZN7autopas17VerletListHelpersINS_10MoleculeLJIdEEE26VerletListGeneratorFunctorD1Ev
00000000001f66f0 W _ZN7autopas17VerletListHelpersINS_10MoleculeLJIdEEE26VerletListGeneratorFunctorD2Ev
000000000040d030 T _ZN7autopas18TuningResultLogger15logTuningResultERKNS_13ConfigurationEml
000000000040cf70 T _ZN7autopas18TuningResultLoggerC1ERKNSt7__cxx1112basic_stringIcSt11char_traitsIcESaIcEEE
000000000040cf70 T _ZN7autopas18TuningResultLoggerC2ERKNSt7__cxx1112basic_stringIcSt11char_traitsIcESaIcEEE
00000000001d40a6 t _ZN7autopas18TuningResultLoggerC2ERKNSt7__cxx1112basic_stringIcSt11char_traitsIcESaIcEEE.cold
000000000040d000 T _ZN7autopas18TuningResultLoggerD1Ev
000000000040d000 T _ZN7autopas18TuningResultLoggerD2Ev
00000000001f96d0 W _ZN7autopas18VCLSlicedTraversalINS_16FullParticleCellINS_10MoleculeLJIdEEEENS_27VLCAllCellsGeneratorFunctorIS3_EELNS_7options16DataLayoutOption5ValueE0ELb0EE12endTraversalEv
00000000001f96e0 W _ZN7autopas18VCLSlicedTraversalINS_16FullParticleCellINS_10MoleculeLJIdEEEENS_27VLCAllCellsGeneratorFunctorIS3_EELNS_7options16DataLayoutOption5ValueE0ELb0EE14loadDataLayoutEv
0000000000365740 W _ZN7autopas18VCLSlicedTraversalINS_16FullParticleCellINS_10MoleculeLJIdEEEENS_27VLCAllCellsGeneratorFunctorIS3_EELNS_7options16DataLayoutOption5ValueE0ELb0EE21traverseParticlePairsEv
0000000000202200 W _ZN7autopas18VCLSlicedTraversalINS_16FullParticleCellINS_10MoleculeLJIdEEEENS_27VLCAllCellsGeneratorFunctorIS3_EELNS_7options16DataLayoutOption5ValueE0ELb0EED0Ev
0000000000202180 W _ZN7autopas18VCLSlicedTraversalINS_16FullParticleCellINS_10MoleculeLJIdEEEENS_27VLCAllCellsGeneratorFunctorIS3_EELNS_7options16DataLayoutOption5ValueE0ELb0EED1Ev
0000000000202180 W _ZN7autopas18VCLSlicedTraversalINS_16FullParticleCellINS_10MoleculeLJIdEEEENS_27VLCAllCellsGeneratorFunctorIS3_EELNS_7options16DataLayoutOption5ValueE0ELb0EED2Ev
00000000001fa280 W _ZN7autopas18VCLSlicedTraversalINS_16FullParticleCellINS_10MoleculeLJIdEEEENS_27VLCAllCellsGeneratorFunctorIS3_EELNS_7options16DataLayoutOption5ValueE0ELb1EE12endTraversalEv
00000000001fa290 W _ZN7autopas18VCLSlicedTraversalINS_16FullParticleCellINS_10MoleculeLJIdEEEENS_27VLCAllCellsGeneratorFunctorIS3_EELNS_7options16DataLayoutOption5ValueE0ELb1EE14loadDataLayoutEv
000000000036ad80 W _ZN7autopas18VCLSlicedTraversalINS_16FullParticleCellINS_10MoleculeLJIdEEEENS_27VLCAllCellsGeneratorFunctorIS3_EELNS_7options16DataLayoutOption5ValueE0ELb1EE21traverseParticlePairsEv
0000000000201cf0 W _ZN7autopas18VCLSlicedTraversalINS_16FullParticleCellINS_10MoleculeLJIdEEEENS_27VLCAllCellsGeneratorFunctorIS3_EELNS_7options16DataLayoutOption5ValueE0ELb1EED0Ev
0000000000201c70 W _ZN7autopas18VCLSlicedTraversalINS_16FullParticleCellINS_10MoleculeLJIdEEEENS_27VLCAllCellsGeneratorFunctorIS3_EELNS_7options16DataLayoutOption5ValueE0ELb1EED1Ev
0000000000201c70 W _ZN7autopas18VCLSlicedTraversalINS_16FullParticleCellINS_10MoleculeLJIdEEEENS_27VLCAllCellsGeneratorFunctorIS3_EELNS_7options16DataLayoutOption5ValueE0ELb1EED2Ev
000000000022a6b0 W _ZN7autopas18VCLSlicedTraversalINS_16FullParticleCellINS_10MoleculeLJIdEEEENS_27VLCAllCellsGeneratorFunctorIS3_EELNS_7options16DataLayoutOption5ValueE1ELb0EE12endTraversalEv
000000000022a730 W _ZN7autopas18VCLSlicedTraversalINS_16FullParticleCellINS_10MoleculeLJIdEEEENS_27VLCAllCellsGeneratorFunctorIS3_EELNS_7options16DataLayoutOption5ValueE1ELb0EE14loadDataLayoutEv
000000000035ac40 W _ZN7autopas18VCLSlicedTraversalINS_16FullParticleCellINS_10MoleculeLJIdEEEENS_27VLCAllCellsGeneratorFunctorIS3_EELNS_7options16DataLayoutOption5ValueE1ELb0EE21traverseParticlePairsEv
0000000000202c20 W _ZN7autopas18VCLSlicedTraversalINS_16FullParticleCellINS_10MoleculeLJIdEEEENS_27VLCAllCellsGeneratorFunctorIS3_EELNS_7options16DataLayoutOption5ValueE1ELb0EED0Ev
0000000000202ba0 W _ZN7autopas18VCLSlicedTraversalINS_16FullParticleCellINS_10MoleculeLJIdEEEENS_27VLCAllCellsGeneratorFunctorIS3_EELNS_7options16DataLayoutOption5ValueE1ELb0EED1Ev
0000000000202ba0 W _ZN7autopas18VCLSlicedTraversalINS_16FullParticleCellINS_10MoleculeLJIdEEEENS_27VLCAllCellsGeneratorFunctorIS3_EELNS_7options16DataLayoutOption5ValueE1ELb0EED2Ev
0000000000229c30 W _ZN7autopas18VCLSlicedTraversalINS_16FullParticleCellINS_10MoleculeLJIdEEEENS_27VLCAllCellsGeneratorFunctorIS3_EELNS_7options16DataLayoutOption5ValueE1ELb1EE12endTraversalEv
000000000022a030 W _ZN7autopas18VCLSlicedTraversalINS_16FullParticleCellINS_10MoleculeLJIdEEEENS_27VLCAllCellsGeneratorFunctorIS3_EELNS_7options16DataLayoutOption5ValueE1ELb1EE14loadDataLayoutEv
0000000000360180 W _ZN7autopas18VCLSlicedTraversalINS_16FullParticleCellINS_10MoleculeLJIdEEEENS_27VLCAllCellsGeneratorFunctorIS3_EELNS_7options16DataLayoutOption5ValueE1ELb1EE21traverseParticlePairsEv
0000000000202710 W _ZN7autopas18VCLSlicedTraversalINS_16FullParticleCellINS_10MoleculeLJIdEEEENS_27VLCAllCellsGeneratorFunctorIS3_EELNS_7options16DataLayoutOption5ValueE1ELb1EED0Ev
0000000000202690 W _ZN7autopas18VCLSlicedTraversalINS_16FullParticleCellINS_10MoleculeLJIdEEEENS_27VLCAllCellsGeneratorFunctorIS3_EELNS_7options16DataLayoutOption5ValueE1ELb1EED1Ev
0000000000202690 W _ZN7autopas18VCLSlicedTraversalINS_16FullParticleCellINS_10MoleculeLJIdEEEENS_27VLCAllCellsGeneratorFunctorIS3_EELNS_7options16DataLayoutOption5ValueE1ELb1EED2Ev
00000000001fc330 W _ZN7autopas18VCLSlicedTraversalINS_16FullParticleCellINS_10MoleculeLJIdEEEENS_27VLCCellPairGeneratorFunctorIS3_EELNS_7options16DataLayoutOption5ValueE0ELb0EE12endTraversalEv
00000000001fc340 W _ZN7autopas18VCLSlicedTraversalINS_16FullParticleCellINS_10MoleculeLJIdEEEENS_27VLCCellPairGeneratorFunctorIS3_EELNS_7options16DataLayoutOption5ValueE0ELb0EE14loadDataLayoutEv
000000000037ae40 W _ZN7autopas18VCLSlicedTraversalINS_16FullParticleCellINS_10MoleculeLJIdEEEENS_27VLCCellPairGeneratorFunctorIS3_EELNS_7options16DataLayoutOption5ValueE0ELb0EE21traverseParticlePairsEv
0000000000200dc0 W _ZN7autopas18VCLSlicedTraversalINS_16FullParticleCellINS_10MoleculeLJIdEEEENS_27VLCCellPairGeneratorFunctorIS3_EELNS_7options16DataLayoutOption5ValueE0ELb0EED0Ev
0000000000200d40 W _ZN7autopas18VCLSlicedTraversalINS_16FullParticleCellINS_10MoleculeLJIdEEEENS_27VLCCellPairGeneratorFunctorIS3_EELNS_7options16DataLayoutOption5ValueE0ELb0EED1Ev
0000000000200d40 W _ZN7autopas18VCLSlicedTraversalINS_16FullParticleCellINS_10MoleculeLJIdEEEENS_27VLCCellPairGeneratorFunctorIS3_EELNS_7options16DataLayoutOption5ValueE0ELb0EED2Ev
00000000001fcee0 W _ZN7autopas18VCLSlicedTraversalINS_16FullParticleCellINS_10MoleculeLJIdEEEENS_27VLCCellPairGeneratorFunctorIS3_EELNS_7options16DataLayoutOption5ValueE0ELb1EE12endTraversalEv
00000000001fcef0 W _ZN7autopas18VCLSlicedTraversalINS_16FullParticleCellINS_10MoleculeLJIdEEEENS_27VLCCellPairGeneratorFunctorIS3_EELNS_7options16DataLayoutOption5ValueE0ELb1EE14loadDataLayoutEv
0000000000380480 W _ZN7autopas18VCLSlicedTraversalINS_16FullParticleCellINS_10MoleculeLJIdEEEENS_27VLCCellPairGeneratorFunctorIS3_EELNS_7options16DataLayoutOption5ValueE0ELb1EE21traverseParticlePairsEv
00000000002008b0 W _ZN7autopas18VCLSlicedTraversalINS_16FullParticleCellINS_10MoleculeLJIdEEEENS_27VLCCellPairGeneratorFunctorIS3_EELNS_7options16DataLayoutOption5ValueE0ELb1EED0Ev
0000000000200830 W _ZN7autopas18VCLSlicedTraversalINS_16FullParticleCellINS_10MoleculeLJIdEEEENS_27VLCCellPairGeneratorFunctorIS3_EELNS_7options16DataLayoutOption5ValueE0ELb1EED1Ev
0000000000200830 W _ZN7autopas18VCLSlicedTraversalINS_16FullParticleCellINS_10MoleculeLJIdEEEENS_27VLCCellPairGeneratorFunctorIS3_EELNS_7options16DataLayoutOption5ValueE0ELb1EED2Ev
000000000022ab30 W _ZN7autopas18VCLSlicedTraversalINS_16FullParticleCellINS_10MoleculeLJIdEEEENS_27VLCCellPairGeneratorFunctorIS3_EELNS_7options16DataLayoutOption5ValueE1ELb0EE12endTraversalEv
000000000022afb0 W _ZN7autopas18VCLSlicedTraversalINS_16FullParticleCellINS_10MoleculeLJIdEEEENS_27VLCCellPairGeneratorFunctorIS3_EELNS_7options16DataLayoutOption5ValueE1ELb0EE14loadDataLayoutEv
0000000000370340 W _ZN7autopas18VCLSlicedTraversalINS_16FullParticleCellINS_10MoleculeLJIdEEEENS_27VLCCellPairGeneratorFunctorIS3_EELNS_7options16DataLayoutOption5ValueE1ELb0EE21traverseParticlePairsEv
00000000002017e0 W _ZN7autopas18VCLSlicedTraversalINS_16FullParticleCellINS_10MoleculeLJIdEEEENS_27VLCCellPairGeneratorFunctorIS3_EELNS_7options16DataLayoutOption5ValueE1ELb0EED0Ev
0000000000201760 W _ZN7autopas18VCLSlicedTraversalINS_16FullParticleCellINS_10MoleculeLJIdEEEENS_27VLCCellPairGeneratorFunctorIS3_EELNS_7options16DataLayoutOption5ValueE1ELb0EED1Ev
0000000000201760 W _ZN7autopas18VCLSlicedTraversalINS_16FullParticleCellINS_10MoleculeLJIdEEEENS_27VLCCellPairGeneratorFunctorIS3_EELNS_7options16DataLayoutOption5ValueE1ELb0EED2Ev
000000000022a130 W _ZN7autopas18VCLSlicedTraversalINS_16FullParticleCellINS_10MoleculeLJIdEEEENS_27VLCCellPairGeneratorFunctorIS3_EELNS_7options16DataLayoutOption5ValueE1ELb1EE12endTraversalEv
000000000022a1b0 W _ZN7autopas18VCLSlicedTraversalINS_16FullParticleCellINS_10MoleculeLJIdEEEENS_27VLCCellPairGeneratorFunctorIS3_EELNS_7options16DataLayoutOption5ValueE1ELb1EE14loadDataLayoutEv
0000000000375880 W _ZN7autopas18VCLSlicedTraversalINS_16FullParticleCellINS_10MoleculeLJIdEEEENS_27VLCCellPairGeneratorFunctorIS3_EELNS_7options16DataLayoutOption5ValueE1ELb1EE21traverseParticlePairsEv
00000000002012d0 W _ZN7autopas18VCLSlicedTraversalINS_16FullParticleCellINS_10MoleculeLJIdEEEENS_27VLCCellPairGeneratorFunctorIS3_EELNS_7options16DataLayoutOption5ValueE1ELb1EED0Ev
0000000000201250 W _ZN7autopas18VCLSlicedTraversalINS_16FullParticleCellINS_10MoleculeLJIdEEEENS_27VLCCellPairGeneratorFunctorIS3_EELNS_7options16DataLayoutOption5ValueE1ELb1EED1Ev
0000000000201250 W _ZN7autopas18VCLSlicedTraversalINS_16FullParticleCellINS_10MoleculeLJIdEEEENS_27VLCCellPairGeneratorFunctorIS3_EELNS_7options16DataLayoutOption5ValueE1ELb1EED2Ev
0000000000366cc0 W _ZN7autopas18VLCSlicedTraversalINS_16FullParticleCellINS_10MoleculeLJIdEEEENS_27VLCAllCellsGeneratorFunctorIS3_EELNS_7options16DataLayoutOption5ValueE0ELb0ENS_23VLCAllCellsNeighborListIS3_EELNS7_15ContainerOption5ValueE6EE21traverseParticlePairsEv
00000000002022e0 W _ZN7autopas18VLCSlicedTraversalINS_16FullParticleCellINS_10MoleculeLJIdEEEENS_27VLCAllCellsGeneratorFunctorIS3_EELNS_7options16DataLayoutOption5ValueE0ELb0ENS_23VLCAllCellsNeighborListIS3_EELNS7_15ContainerOption5ValueE6EED0Ev
0000000000202290 W _ZN7autopas18VLCSlicedTraversalINS_16FullParticleCellINS_10MoleculeLJIdEEEENS_27VLCAllCellsGeneratorFunctorIS3_EELNS_7options16DataLayoutOption5ValueE0ELb0ENS_23VLCAllCellsNeighborListIS3_EELNS7_15ContainerOption5ValueE6EED1Ev
0000000000202290 W _ZN7autopas18VLCSlicedTraversalINS_16FullParticleCellINS_10MoleculeLJIdEEEENS_27VLCAllCellsGeneratorFunctorIS3_EELNS_7options16DataLayoutOption5ValueE0ELb0ENS_23VLCAllCellsNeighborListIS3_EELNS7_15ContainerOption5ValueE6EED2Ev
00000000003641c0 W _ZN7autopas18VLCSlicedTraversalINS_16FullParticleCellINS_10MoleculeLJIdEEEENS_27VLCAllCellsGeneratorFunctorIS3_EELNS_7options16DataLayoutOption5ValueE0ELb0ENS_23VLCCellPairNeighborListIS3_EELNS7_15ContainerOption5ValueE7EE21traverseParticlePairsEv
0000000000202130 W _ZN7autopas18VLCSlicedTraversalINS_16FullParticleCellINS_10MoleculeLJIdEEEENS_27VLCAllCellsGeneratorFunctorIS3_EELNS_7options16DataLayoutOption5ValueE0ELb0ENS_23VLCCellPairNeighborListIS3_EELNS7_15ContainerOption5ValueE7EED0Ev
00000000002020e0 W _ZN7autopas18VLCSlicedTraversalINS_16FullParticleCellINS_10MoleculeLJIdEEEENS_27VLCAllCellsGeneratorFunctorIS3_EELNS_7options16DataLayoutOption5ValueE0ELb0ENS_23VLCCellPairNeighborListIS3_EELNS7_15ContainerOption5ValueE7EED1Ev
00000000002020e0 W _ZN7autopas18VLCSlicedTraversalINS_16FullParticleCellINS_10MoleculeLJIdEEEENS_27VLCAllCellsGeneratorFunctorIS3_EELNS_7options16DataLayoutOption5ValueE0ELb0ENS_23VLCCellPairNeighborListIS3_EELNS7_15ContainerOption5ValueE7EED2Ev
000000000036c300 W _ZN7autopas18VLCSlicedTraversalINS_16FullParticleCellINS_10MoleculeLJIdEEEENS_27VLCAllCellsGeneratorFunctorIS3_EELNS_7options16DataLayoutOption5ValueE0ELb1ENS_23VLCAllCellsNeighborListIS3_EELNS7_15ContainerOption5ValueE6EE21traverseParticlePairsEv
0000000000201dd0 W _ZN7autopas18VLCSlicedTraversalINS_16FullParticleCellINS_10MoleculeLJIdEEEENS_27VLCAllCellsGeneratorFunctorIS3_EELNS_7options16DataLayoutOption5ValueE0ELb1ENS_23VLCAllCellsNeighborListIS3_EELNS7_15ContainerOption5ValueE6EED0Ev
0000000000201d80 W _ZN7autopas18VLCSlicedTraversalINS_16FullParticleCellINS_10MoleculeLJIdEEEENS_27VLCAllCellsGeneratorFunctorIS3_EELNS_7options16DataLayoutOption5ValueE0ELb1ENS_23VLCAllCellsNeighborListIS3_EELNS7_15ContainerOption5ValueE6EED1Ev
0000000000201d80 W _ZN7autopas18VLCSlicedTraversalINS_16FullParticleCellINS_10MoleculeLJIdEEEENS_27VLCAllCellsGeneratorFunctorIS3_EELNS_7options16DataLayoutOption5ValueE0ELb1ENS_23VLCAllCellsNeighborListIS3_EELNS7_15ContainerOption5ValueE6EED2Ev
0000000000369800 W _ZN7autopas18VLCSlicedTraversalINS_16FullParticleCellINS_10MoleculeLJIdEEEENS_27VLCAllCellsGeneratorFunctorIS3_EELNS_7options16DataLayoutOption5ValueE0ELb1ENS_23VLCCellPairNeighborListIS3_EELNS7_15ContainerOption5ValueE7EE21traverseParticlePairsEv
0000000000201c20 W _ZN7autopas18VLCSlicedTraversalINS_16FullParticleCellINS_10MoleculeLJIdEEEENS_27VLCAllCellsGeneratorFunctorIS3_EELNS_7options16DataLayoutOption5ValueE0ELb1ENS_23VLCCellPairNeighborListIS3_EELNS7_15ContainerOption5ValueE7EED0Ev
0000000000201bd0 W _ZN7autopas18VLCSlicedTraversalINS_16FullParticleCellINS_10MoleculeLJIdEEEENS_27VLCAllCellsGeneratorFunctorIS3_EELNS_7options16DataLayoutOption5ValueE0ELb1ENS_23VLCCellPairNeighborListIS3_EELNS7_15ContainerOption5ValueE7EED1Ev
0000000000201bd0 W _ZN7autopas18VLCSlicedTraversalINS_16FullParticleCellINS_10MoleculeLJIdEEEENS_27VLCAllCellsGeneratorFunctorIS3_EELNS_7options16DataLayoutOption5ValueE0ELb1ENS_23VLCCellPairNeighborListIS3_EELNS7_15ContainerOption5ValueE7EED2Ev
00000000003d8480 W _ZN7autopas18VLCSlicedTraversalINS_16FullParticleCellINS_10MoleculeLJIdEEEENS_27VLCAllCellsGeneratorFunctorIS3_EELNS_7options16DataLayoutOption5ValueE1ELb0ENS_23VLCAllCellsNeighborListIS3_EELNS7_15ContainerOption5ValueE6EE21traverseParticlePairsEv
0000000000202d00 W _ZN7autopas18VLCSlicedTraversalINS_16FullParticleCellINS_10MoleculeLJIdEEEENS_27VLCAllCellsGeneratorFunctorIS3_EELNS_7options16DataLayoutOption5ValueE1ELb0ENS_23VLCAllCellsNeighborListIS3_EELNS7_15ContainerOption5ValueE6EED0Ev
0000000000202cb0 W _ZN7autopas18VLCSlicedTraversalINS_16FullParticleCellINS_10MoleculeLJIdEEEENS_27VLCAllCellsGeneratorFunctorIS3_EELNS_7options16DataLayoutOption5ValueE1ELb0ENS_23VLCAllCellsNeighborListIS3_EELNS7_15ContainerOption5ValueE6EED1Ev
0000000000202cb0 W _ZN7autopas18VLCSlicedTraversalINS_16FullParticleCellINS_10MoleculeLJIdEEEENS_27VLCAllCellsGeneratorFunctorIS3_EELNS_7options16DataLayoutOption5ValueE1ELb0ENS_23VLCAllCellsNeighborListIS3_EELNS7_15ContainerOption5ValueE6EED2Ev
00000000003bce80 W _ZN7autopas18VLCSlicedTraversalINS_16FullParticleCellINS_10MoleculeLJIdEEEENS_27VLCAllCellsGeneratorFunctorIS3_EELNS_7options16DataLayoutOption5ValueE1ELb0ENS_23VLCCellPairNeighborListIS3_EELNS7_15ContainerOption5ValueE7EE21traverseParticlePairsEv
0000000000202b50 W _ZN7autopas18VLCSlicedTraversalINS_16FullParticleCellINS_10MoleculeLJIdEEEENS_27VLCAllCellsGeneratorFunctorIS3_EELNS_7options16DataLayoutOption5ValueE1ELb0ENS_23VLCCellPairNeighborListIS3_EELNS7_15ContainerOption5ValueE7EED0Ev
0000000000202b00 W _ZN7autopas18VLCSlicedTraversalINS_16FullParticleCellINS_10MoleculeLJIdEEEENS_27VLCAllCellsGeneratorFunctorIS3_EELNS_7options16DataLayoutOption5ValueE1ELb0ENS_23VLCCellPairNeighborListIS3_EELNS7_15ContainerOption5ValueE7EED1Ev
0000000000202b00 W _ZN7autopas18VLCSlicedTraversalINS_16FullParticleCellINS_10MoleculeLJIdEEEENS_27VLCAllCellsGeneratorFunctorIS3_EELNS_7options16DataLayoutOption5ValueE1ELb0ENS_23VLCCellPairNeighborListIS3_EELNS7_15ContainerOption5ValueE7EED2Ev
00000000003d8b40 W _ZN7autopas18VLCSlicedTraversalINS_16FullParticleCellINS_10MoleculeLJIdEEEENS_27VLCAllCellsGeneratorFunctorIS3_EELNS_7options16DataLayoutOption5ValueE1ELb1ENS_23VLCAllCellsNeighborListIS3_EELNS7_15ContainerOption5ValueE6EE21traverseParticlePairsEv
00000000002027f0 W _ZN7autopas18VLCSlicedTraversalINS_16FullParticleCellINS_10MoleculeLJIdEEEENS_27VLCAllCellsGeneratorFunctorIS3_EELNS_7options16DataLayoutOption5ValueE1ELb1ENS_23VLCAllCellsNeighborListIS3_EELNS7_15ContainerOption5ValueE6EED0Ev
00000000002027a0 W _ZN7autopas18VLCSlicedTraversalINS_16FullParticleCellINS_10MoleculeLJIdEEEENS_27VLCAllCellsGeneratorFunctorIS3_EELNS_7options16DataLayoutOption5ValueE1ELb1ENS_23VLCAllCellsNeighborListIS3_EELNS7_15ContainerOption5ValueE6EED1Ev
00000000002027a0 W _ZN7autopas18VLCSlicedTraversalINS_16FullParticleCellINS_10MoleculeLJIdEEEENS_27VLCAllCellsGeneratorFunctorIS3_EELNS_7options16DataLayoutOption5ValueE1ELb1ENS_23VLCAllCellsNeighborListIS3_EELNS7_15ContainerOption5ValueE6EED2Ev
00000000003d9200 W _ZN7autopas18VLCSlicedTraversalINS_16FullParticleCellINS_10MoleculeLJIdEEEENS_27VLCAllCellsGeneratorFunctorIS3_EELNS_7options16DataLayoutOption5ValueE1ELb1ENS_23VLCCellPairNeighborListIS3_EELNS7_15ContainerOption5ValueE7EE21traverseParticlePairsEv
0000000000202640 W _ZN7autopas18VLCSlicedTraversalINS_16FullParticleCellINS_10MoleculeLJIdEEEENS_27VLCAllCellsGeneratorFunctorIS3_EELNS_7options16DataLayoutOption5ValueE1ELb1ENS_23VLCCellPairNeighborListIS3_EELNS7_15ContainerOption5ValueE7EED0Ev
00000000002025f0 W _ZN7autopas18VLCSlicedTraversalINS_16FullParticleCellINS_10MoleculeLJIdEEEENS_27VLCAllCellsGeneratorFunctorIS3_EELNS_7options16DataLayoutOption5ValueE1ELb1ENS_23VLCCellPairNeighborListIS3_EELNS7_15ContainerOption5ValueE7EED1Ev
00000000002025f0 W _ZN7autopas18VLCSlicedTraversalINS_16FullParticleCellINS_10MoleculeLJIdEEEENS_27VLCAllCellsGeneratorFunctorIS3_EELNS_7options16DataLayoutOption5ValueE1ELb1ENS_23VLCCellPairNeighborListIS3_EELNS7_15ContainerOption5ValueE7EED2Ev
000000000037c3c0 W _ZN7autopas18VLCSlicedTraversalINS_16FullParticleCellINS_10MoleculeLJIdEEEENS_27VLCCellPairGeneratorFunctorIS3_EELNS_7options16DataLayoutOption5ValueE0ELb0ENS_23VLCAllCellsNeighborListIS3_EELNS7_15ContainerOption5ValueE6EE21traverseParticlePairsEv
0000000000200ea0 W _ZN7autopas18VLCSlicedTraversalINS_16FullParticleCellINS_10MoleculeLJIdEEEENS_27VLCCellPairGeneratorFunctorIS3_EELNS_7options16DataLayoutOption5ValueE0ELb0ENS_23VLCAllCellsNeighborListIS3_EELNS7_15ContainerOption5ValueE6EED0Ev
0000000000200e50 W _ZN7autopas18VLCSlicedTraversalINS_16FullParticleCellINS_10MoleculeLJIdEEEENS_27VLCCellPairGeneratorFunctorIS3_EELNS_7options16DataLayoutOption5ValueE0ELb0ENS_23VLCAllCellsNeighborListIS3_EELNS7_15ContainerOption5ValueE6EED1Ev
0000000000200e50 W _ZN7autopas18VLCSlicedTraversalINS_16FullParticleCellINS_10MoleculeLJIdEEEENS_27VLCCellPairGeneratorFunctorIS3_EELNS_7options16DataLayoutOption5ValueE0ELb0ENS_23VLCAllCellsNeighborListIS3_EELNS7_15ContainerOption5ValueE6EED2Ev
00000000003798c0 W _ZN7autopas18VLCSlicedTraversalINS_16FullParticleCellINS_10MoleculeLJIdEEEENS_27VLCCellPairGeneratorFunctorIS3_EELNS_7options16DataLayoutOption5ValueE0ELb0ENS_23VLCCellPairNeighborListIS3_EELNS7_15ContainerOption5ValueE7EE21traverseParticlePairsEv
0000000000200cf0 W _ZN7autopas18VLCSlicedTraversalINS_16FullParticleCellINS_10MoleculeLJIdEEEENS_27VLCCellPairGeneratorFunctorIS3_EELNS_7options16DataLayoutOption5ValueE0ELb0ENS_23VLCCellPairNeighborListIS3_EELNS7_15ContainerOption5ValueE7EED0Ev
0000000000200ca0 W _ZN7autopas18VLCSlicedTraversalINS_16FullParticleCellINS_10MoleculeLJIdEEEENS_27VLCCellPairGeneratorFunctorIS3_EELNS_7options16DataLayoutOption5ValueE0ELb0ENS_23VLCCellPairNeighborListIS3_EELNS7_15ContainerOption5ValueE7EED1Ev
0000000000200ca0 W _ZN7autopas18VLCSlicedTraversalINS_16FullParticleCellINS_10MoleculeLJIdEEEENS_27VLCCellPairGeneratorFunctorIS3_EELNS_7options16DataLayoutOption5ValueE0ELb0ENS_23VLCCellPairNeighborListIS3_EELNS7_15ContainerOption5ValueE7EED2Ev
0000000000381a00 W _ZN7autopas18VLCSlicedTraversalINS_16FullParticleCellINS_10MoleculeLJIdEEEENS_27VLCCellPairGeneratorFunctorIS3_EELNS_7options16DataLayoutOption5ValueE0ELb1ENS_23VLCAllCellsNeighborListIS3_EELNS7_15ContainerOption5ValueE6EE21traverseParticlePairsEv
00000000002007e0 W _ZN7autopas18VLCSlicedTraversalINS_16FullParticleCellINS_10MoleculeLJIdEEEENS_27VLCCellPairGeneratorFunctorIS3_EELNS_7options16DataLayoutOption5ValueE0ELb1ENS_23VLCAllCellsNeighborListIS3_EELNS7_15ContainerOption5ValueE6EED0Ev
0000000000200790 W _ZN7autopas18VLCSlicedTraversalINS_16FullParticleCellINS_10MoleculeLJIdEEEENS_27VLCCellPairGeneratorFunctorIS3_EELNS_7options16DataLayoutOption5ValueE0ELb1ENS_23VLCAllCellsNeighborListIS3_EELNS7_15ContainerOption5ValueE6EED1Ev
0000000000200790 W _ZN7autopas18VLCSlicedTraversalINS_16FullParticleCellINS_10MoleculeLJIdEEEENS_27VLCCellPairGeneratorFunctorIS3_EELNS_7options16DataLayoutOption5ValueE0ELb1ENS_23VLCAllCellsNeighborListIS3_EELNS7_15ContainerOption5ValueE6EED2Ev
000000000037ef00 W _ZN7autopas18VLCSlicedTraversalINS_16FullParticleCellINS_10MoleculeLJIdEEEENS_27VLCCellPairGeneratorFunctorIS3_EELNS_7options16DataLayoutOption5ValueE0ELb1ENS_23VLCCellPairNeighborListIS3_EELNS7_15ContainerOption5ValueE7EE21traverseParticlePairsEv
0000000000200990 W _ZN7autopas18VLCSlicedTraversalINS_16FullParticleCellINS_10MoleculeLJIdEEEENS_27VLCCellPairGeneratorFunctorIS3_EELNS_7options16DataLayoutOption5ValueE0ELb1ENS_23VLCCellPairNeighborListIS3_EELNS7_15ContainerOption5ValueE7EED0Ev
0000000000200940 W _ZN7autopas18VLCSlicedTraversalINS_16FullParticleCellINS_10MoleculeLJIdEEEENS_27VLCCellPairGeneratorFunctorIS3_EELNS_7options16DataLayoutOption5ValueE0ELb1ENS_23VLCCellPairNeighborListIS3_EELNS7_15ContainerOption5ValueE7EED1Ev
0000000000200940 W _ZN7autopas18VLCSlicedTraversalINS_16FullParticleCellINS_10MoleculeLJIdEEEENS_27VLCCellPairGeneratorFunctorIS3_EELNS_7options16DataLayoutOption5ValueE0ELb1ENS_23VLCCellPairNeighborListIS3_EELNS7_15ContainerOption5ValueE7EED2Ev
00000000003be8b0 W _ZN7autopas18VLCSlicedTraversalINS_16FullParticleCellINS_10MoleculeLJIdEEEENS_27VLCCellPairGeneratorFunctorIS3_EELNS_7options16DataLayoutOption5ValueE1ELb0ENS_23VLCAllCellsNeighborListIS3_EELNS7_15ContainerOption5ValueE6EE21traverseParticlePairsEv
00000000002018c0 W _ZN7autopas18VLCSlicedTraversalINS_16FullParticleCellINS_10MoleculeLJIdEEEENS_27VLCCellPairGeneratorFunctorIS3_EELNS_7options16DataLayoutOption5ValueE1ELb0ENS_23VLCAllCellsNeighborListIS3_EELNS7_15ContainerOption5ValueE6EED0Ev
0000000000201870 W _ZN7autopas18VLCSlicedTraversalINS_16FullParticleCellINS_10MoleculeLJIdEEEENS_27VLCCellPairGeneratorFunctorIS3_EELNS_7options16DataLayoutOption5ValueE1ELb0ENS_23VLCAllCellsNeighborListIS3_EELNS7_15ContainerOption5ValueE6EED1Ev
0000000000201870 W _ZN7autopas18VLCSlicedTraversalINS_16FullParticleCellINS_10MoleculeLJIdEEEENS_27VLCCellPairGeneratorFunctorIS3_EELNS_7options16DataLayoutOption5ValueE1ELb0ENS_23VLCAllCellsNeighborListIS3_EELNS7_15ContainerOption5ValueE6EED2Ev
00000000003d8ea0 W _ZN7autopas18VLCSlicedTraversalINS_16FullParticleCellINS_10MoleculeLJIdEEEENS_27VLCCellPairGeneratorFunctorIS3_EELNS_7options16DataLayoutOption5ValueE1ELb0ENS_23VLCCellPairNeighborListIS3_EELNS7_15ContainerOption5ValueE7EE21traverseParticlePairsEv
0000000000201710 W _ZN7autopas18VLCSlicedTraversalINS_16FullParticleCellINS_10MoleculeLJIdEEEENS_27VLCCellPairGeneratorFunctorIS3_EELNS_7options16DataLayoutOption5ValueE1ELb0ENS_23VLCCellPairNeighborListIS3_EELNS7_15ContainerOption5ValueE7EED0Ev
00000000002016c0 W _ZN7autopas18VLCSlicedTraversalINS_16FullParticleCellINS_10MoleculeLJIdEEEENS_27VLCCellPairGeneratorFunctorIS3_EELNS_7options16DataLayoutOption5ValueE1ELb0ENS_23VLCCellPairNeighborListIS3_EELNS7_15ContainerOption5ValueE7EED1Ev
00000000002016c0 W _ZN7autopas18VLCSlicedTraversalINS_16FullParticleCellINS_10MoleculeLJIdEEEENS_27VLCCellPairGeneratorFunctorIS3_EELNS_7options16DataLayoutOption5ValueE1ELb0ENS_23VLCCellPairNeighborListIS3_EELNS7_15ContainerOption5ValueE7EED2Ev
00000000003d9560 W _ZN7autopas18VLCSlicedTraversalINS_16FullParticleCellINS_10MoleculeLJIdEEEENS_27VLCCellPairGeneratorFunctorIS3_EELNS_7options16DataLayoutOption5ValueE1ELb1ENS_23VLCAllCellsNeighborListIS3_EELNS7_15ContainerOption5ValueE6EE21traverseParticlePairsEv
00000000002013b0 W _ZN7autopas18VLCSlicedTraversalINS_16FullParticleCellINS_10MoleculeLJIdEEEENS_27VLCCellPairGeneratorFunctorIS3_EELNS_7options16DataLayoutOption5ValueE1ELb1ENS_23VLCAllCellsNeighborListIS3_EELNS7_15ContainerOption5ValueE6EED0Ev
0000000000201360 W _ZN7autopas18VLCSlicedTraversalINS_16FullParticleCellINS_10MoleculeLJIdEEEENS_27VLCCellPairGeneratorFunctorIS3_EELNS_7options16DataLayoutOption5ValueE1ELb1ENS_23VLCAllCellsNeighborListIS3_EELNS7_15ContainerOption5ValueE6EED1Ev
0000000000201360 W _ZN7autopas18VLCSlicedTraversalINS_16FullParticleCellINS_10MoleculeLJIdEEEENS_27VLCCellPairGeneratorFunctorIS3_EELNS_7options16DataLayoutOption5ValueE1ELb1ENS_23VLCAllCellsNeighborListIS3_EELNS7_15ContainerOption5ValueE6EED2Ev
00000000003d8120 W _ZN7autopas18VLCSlicedTraversalINS_16FullParticleCellINS_10MoleculeLJIdEEEENS_27VLCCellPairGeneratorFunctorIS3_EELNS_7options16DataLayoutOption5ValueE1ELb1ENS_23VLCCellPairNeighborListIS3_EELNS7_15ContainerOption5ValueE7EE21traverseParticlePairsEv
0000000000201200 W _ZN7autopas18VLCSlicedTraversalINS_16FullParticleCellINS_10MoleculeLJIdEEEENS_27VLCCellPairGeneratorFunctorIS3_EELNS_7options16DataLayoutOption5ValueE1ELb1ENS_23VLCCellPairNeighborListIS3_EELNS7_15ContainerOption5ValueE7EED0Ev
00000000002011b0 W _ZN7autopas18VLCSlicedTraversalINS_16FullParticleCellINS_10MoleculeLJIdEEEENS_27VLCCellPairGeneratorFunctorIS3_EELNS_7options16DataLayoutOption5ValueE1ELb1ENS_23VLCCellPairNeighborListIS3_EELNS7_15ContainerOption5ValueE7EED1Ev
00000000002011b0 W _ZN7autopas18VLCSlicedTraversalINS_16FullParticleCellINS_10MoleculeLJIdEEEENS_27VLCCellPairGeneratorFunctorIS3_EELNS_7options16DataLayoutOption5ValueE1ELb1ENS_23VLCCellPairNeighborListIS3_EELNS7_15ContainerOption5ValueE7EED2Ev
0000000000272180 W _ZN7autopas18VerletClusterListsINS_10MoleculeLJIdEEE15addParticleImplERKS2_
00000000002b1b50 W _ZN7autopas18VerletClusterListsINS_10MoleculeLJIdEEE15iteratePairwiseEPNS_18TraversalInterfaceE
00000000002b29e0 W _ZN7autopas18VerletClusterListsINS_10MoleculeLJIdEEE15updateContainerEb
00000000002b65c0 t _ZN7autopas18VerletClusterListsINS_10MoleculeLJIdEEE15updateContainerEb._omp_fn.0
000000000028e540 t _ZN7autopas18VerletClusterListsINS_10MoleculeLJIdEEE15updateContainerEb._omp_fn.1
000000000031c700 W _ZN7autopas18VerletClusterListsINS_10MoleculeLJIdEEE17getRegionIteratorERKSt5arrayIdLm3EES7_NS_7options16IteratorBehaviorE
000000000021c840 W _ZN7autopas18VerletClusterListsINS_10MoleculeLJIdEEE18deleteAllParticlesEv
000000000022c1d0 W _ZN7autopas18VerletClusterListsINS_10MoleculeLJIdEEE18updateHaloParticleERKS2_
0000000000272260 W _ZN7autopas18VerletClusterListsINS_10MoleculeLJIdEEE19addHaloParticleImplERKS2_
0000000000207ed0 W _ZN7autopas18VerletClusterListsINS_10MoleculeLJIdEEE19deleteHaloParticlesEv
00000000001d7de0 t _ZN7autopas18VerletClusterListsINS_10MoleculeLJIdEEE19deleteHaloParticlesEv._omp_fn.0
000000000031ce10 W _ZN7autopas18VerletClusterListsINS_10MoleculeLJIdEEE20rebuildNeighborListsEPNS_18TraversalInterfaceE
00000000001efc20 t _ZN7autopas18VerletClusterListsINS_10MoleculeLJIdEEE21loadParticlesIntoSoAsINS_27VLCAllCellsGeneratorFunctorIS2_EEEEvPT_._omp_fn.0
00000000001d2764 t _ZN7autopas18VerletClusterListsINS_10MoleculeLJIdEEE21loadParticlesIntoSoAsINS_27VLCAllCellsGeneratorFunctorIS2_EEEEvPT_._omp_fn.0.cold
00000000001f04f0 t _ZN7autopas18VerletClusterListsINS_10MoleculeLJIdEEE21loadParticlesIntoSoAsINS_27VLCCellPairGeneratorFunctorIS2_EEEEvPT_._omp_fn.0
00000000001d279f t _ZN7autopas18VerletClusterListsINS_10MoleculeLJIdEEE21loadParticlesIntoSoAsINS_27VLCCellPairGeneratorFunctorIS2_EEEEvPT_._omp_fn.0.cold
0000000000205ab0 W _ZN7autopas18VerletClusterListsINS_10MoleculeLJIdEEE21notifyParticleDeletedEv
00000000001f6540 W _ZN7autopas18VerletClusterListsINS_10MoleculeLJIdEEE23getParticleCellTypeEnumEv
00000000001d8480 t _ZN7autopas18VerletClusterListsINS_10MoleculeLJIdEEE24extractParticlesFromSoAsINS_27VLCAllCellsGeneratorFunctorIS2_EEEEvPT_._omp_fn.0
00000000001ceb59 t _ZN7autopas18VerletClusterListsINS_10MoleculeLJIdEEE24extractParticlesFromSoAsINS_27VLCAllCellsGeneratorFunctorIS2_EEEEvPT_._omp_fn.0.cold
00000000001d8270 t _ZN7autopas18VerletClusterListsINS_10MoleculeLJIdEEE24extractParticlesFromSoAsINS_27VLCCellPairGeneratorFunctorIS2_EEEEvPT_._omp_fn.0
00000000001ceb32 t _ZN7autopas18VerletClusterListsINS_10MoleculeLJIdEEE24extractParticlesFromSoAsINS_27VLCCellPairGeneratorFunctorIS2_EEEEvPT_._omp_fn.0.cold
000000000031c020 W _ZN7autopas18VerletClusterListsINS_10MoleculeLJIdEEE24rebuildTowersAndClustersEv
0000000000326050 t _ZN7autopas18VerletClusterListsINS_10MoleculeLJIdEEE24traverseClustersParallelIRKZNS_28VCLClusterIterationTraversalINS_16FullParticleCellIS2_EENS_27VLCAllCellsGeneratorFunctorIS2_EELNS_7options16DataLayoutOption5ValueE0ELb0EE21traverseParticlePairsEvEUlRNS_8internal7ClusterIS2_EEE_EEvOT_._omp_fn.0
00000000003232b0 t _ZN7autopas18VerletClusterListsINS_10MoleculeLJIdEEE24traverseClustersParallelIRKZNS_28VCLClusterIterationTraversalINS_16FullParticleCellIS2_EENS_27VLCAllCellsGeneratorFunctorIS2_EELNS_7options16DataLayoutOption5ValueE0ELb1EE21traverseParticlePairsEvEUlRNS_8internal7ClusterIS2_EEE_EEvOT_._omp_fn.0
00000000002e65d0 t _ZN7autopas18VerletClusterListsINS_10MoleculeLJIdEEE24traverseClustersParallelIRKZNS_28VCLClusterIterationTraversalINS_16FullParticleCellIS2_EENS_27VLCAllCellsGeneratorFunctorIS2_EELNS_7options16DataLayoutOption5ValueE1ELb0EE21traverseParticlePairsEvEUlRNS_8internal7ClusterIS2_EEE_EEvOT_._omp_fn.0
00000000002e5e50 t _ZN7autopas18VerletClusterListsINS_10MoleculeLJIdEEE24traverseClustersParallelIRKZNS_28VCLClusterIterationTraversalINS_16FullParticleCellIS2_EENS_27VLCAllCellsGeneratorFunctorIS2_EELNS_7options16DataLayoutOption5ValueE1ELb1EE21traverseParticlePairsEvEUlRNS_8internal7ClusterIS2_EEE_EEvOT_._omp_fn.0
00000000003ae490 t _ZN7autopas18VerletClusterListsINS_10MoleculeLJIdEEE24traverseClustersParallelIRKZNS_28VCLClusterIterationTraversalINS_16FullParticleCellIS2_EENS_27VLCCellPairGeneratorFunctorIS2_EELNS_7options16DataLayoutOption5ValueE0ELb0EE21traverseParticlePairsEvEUlRNS_8internal7ClusterIS2_EEE_EEvOT_._omp_fn.0
00000000003adbd0 t _ZN7autopas18VerletClusterListsINS_10MoleculeLJIdEEE24traverseClustersParallelIRKZNS_28VCLClusterIterationTraversalINS_16FullParticleCellIS2_EENS_27VLCCellPairGeneratorFunctorIS2_EELNS_7options16DataLayoutOption5ValueE0ELb1EE21traverseParticlePairsEvEUlRNS_8internal7ClusterIS2_EEE_EEvOT_._omp_fn.0
00000000003b65a0 t _ZN7autopas18VerletClusterListsINS_10MoleculeLJIdEEE24traverseClustersParallelIRKZNS_28VCLClusterIterationTraversalINS_16FullParticleCellIS2_EENS_27VLCCellPairGeneratorFunctorIS2_EELNS_7options16DataLayoutOption5ValueE1ELb0EE21traverseParticlePairsEvEUlRNS_8internal7ClusterIS2_EEE_EEvOT_._omp_fn.0
00000000003b5b70 t _ZN7autopas18VerletClusterListsINS_10MoleculeLJIdEEE24traverseClustersParallelIRKZNS_28VCLClusterIterationTraversalINS_16FullParticleCellIS2_EENS_27VLCCellPairGeneratorFunctorIS2_EELNS_7options16DataLayoutOption5ValueE1ELb1EE21traverseParticlePairsEvEUlRNS_8internal7ClusterIS2_EEE_EEvOT_._omp_fn.0
00000000002dfbb0 W _ZN7autopas18VerletClusterListsINS_10MoleculeLJIdEEE31calculateClusterThreadPartitionEv
000000000031d2b0 W _ZN7autopas18VerletClusterListsINS_10MoleculeLJIdEEE5beginENS_7options16IteratorBehaviorE
00000000001f65f0 W _ZN7autopas18VerletClusterListsINS_10MoleculeLJIdEEE9setBoxMaxERKSt5arrayIdLm3EE
00000000001f6620 W _ZN7autopas18VerletClusterListsINS_10MoleculeLJIdEEE9setBoxMinERKSt5arrayIdLm3EE
00000000001f6650 W _ZN7autopas18VerletClusterListsINS_10MoleculeLJIdEEE9setCutoffEd
0000000000233210 W _ZN7autopas18VerletClusterListsINS_10MoleculeLJIdEEED0Ev
00000000002330f0 W _ZN7autopas18VerletClusterListsINS_10MoleculeLJIdEEED1Ev
00000000002330f0 W _ZN7autopas18VerletClusterListsINS_10MoleculeLJIdEEED2Ev
00000000003d9ca0 t _ZN7autopas19AcquisitionFunctionL15calcAcquisitionENS_7options25AcquisitionFunctionOptionEddd
00000000001d28d2 t _ZN7autopas19AcquisitionFunctionL15calcAcquisitionENS_7options25AcquisitionFunctionOptionEddd.cold
00000000003ced10 W _ZN7autopas19LCC04SoACellHandlerINS_16FullParticleCellINS_10MoleculeLJIdEEEENS_27VLCAllCellsGeneratorFunctorIS3_EELNS_7options16DataLayoutOption5ValueE0ELb0EE15processBaseCellERSt6vectorIS4_SaIS4_EEmmm
00000000003ce5b0 t _ZN7autopas19LCC04SoACellHandlerINS_16FullParticleCellINS_10MoleculeLJIdEEEENS_27VLCAllCellsGeneratorFunctorIS3_EELNS_7options16DataLayoutOption5ValueE0ELb0EE19writeBufferIntoCellERSt6vectorIS4_SaIS4_EEmSE_RSB_ISB_ImSaImEESaISG_EEmm.isra.0
00000000003cd380 W _ZN7autopas19LCC04SoACellHandlerINS_16FullParticleCellINS_10MoleculeLJIdEEEENS_27VLCAllCellsGeneratorFunctorIS3_EELNS_7options16DataLayoutOption5ValueE0ELb1EE15processBaseCellERSt6vectorIS4_SaIS4_EEmmm
00000000003ccc20 t _ZN7autopas19LCC04SoACellHandlerINS_16FullParticleCellINS_10MoleculeLJIdEEEENS_27VLCAllCellsGeneratorFunctorIS3_EELNS_7options16DataLayoutOption5ValueE0ELb1EE19writeBufferIntoCellERSt6vectorIS4_SaIS4_EEmSE_RSB_ISB_ImSaImEESaISG_EEmm.isra.0
00000000003d2470 W _ZN7autopas19LCC04SoACellHandlerINS_16FullParticleCellINS_10MoleculeLJIdEEEENS_27VLCAllCellsGeneratorFunctorIS3_EELNS_7options16DataLayoutOption5ValueE1ELb0EE15processBaseCellERSt6vectorIS4_SaIS4_EEmmm
00000000003d1d10 t _ZN7autopas19LCC04SoACellHandlerINS_16FullParticleCellINS_10MoleculeLJIdEEEENS_27VLCAllCellsGeneratorFunctorIS3_EELNS_7options16DataLayoutOption5ValueE1ELb0EE19writeBufferIntoCellERSt6vectorIS4_SaIS4_EEmSE_RSB_ISB_ImSaImEESaISG_EEmm.isra.0
00000000003d0ae0 W _ZN7autopas19LCC04SoACellHandlerINS_16FullParticleCellINS_10MoleculeLJIdEEEENS_27VLCAllCellsGeneratorFunctorIS3_EELNS_7options16DataLayoutOption5ValueE1ELb1EE15processBaseCellERSt6vectorIS4_SaIS4_EEmmm
00000000003d0380 t _ZN7autopas19LCC04SoACellHandlerINS_16FullParticleCellINS_10MoleculeLJIdEEEENS_27VLCAllCellsGeneratorFunctorIS3_EELNS_7options16DataLayoutOption5ValueE1ELb1EE19writeBufferIntoCellERSt6vectorIS4_SaIS4_EEmSE_RSB_ISB_ImSaImEESaISG_EEmm.isra.0
00000000003c7a70 W _ZN7autopas19LCC04SoACellHandlerINS_16FullParticleCellINS_10MoleculeLJIdEEEENS_27VLCCellPairGeneratorFunctorIS3_EELNS_7options16DataLayoutOption5ValueE0ELb0EE15processBaseCellERSt6vectorIS4_SaIS4_EEmmm
00000000003c7310 t _ZN7autopas19LCC04SoACellHandlerINS_16FullParticleCellINS_10MoleculeLJIdEEEENS_27VLCCellPairGeneratorFunctorIS3_EELNS_7options16DataLayoutOption5ValueE0ELb0EE19writeBufferIntoCellERSt6vectorIS4_SaIS4_EEmSE_RSB_ISB_ImSaImEESaISG_EEmm.isra.0
00000000003bb680 W _ZN7autopas19LCC04SoACellHandlerINS_16FullParticleCellINS_10MoleculeLJIdEEEENS_27VLCCellPairGeneratorFunctorIS3_EELNS_7options16DataLayoutOption5ValueE0ELb0EE19writeCellIntoBufferERKSt6vectorIS4_SaIS4_EEmRSD_RSB_ISB_ImSaImEESaISI_EEjj
00000000003c5fa0 W _ZN7autopas19LCC04SoACellHandlerINS_16FullParticleCellINS_10MoleculeLJIdEEEENS_27VLCCellPairGeneratorFunctorIS3_EELNS_7options16DataLayoutOption5ValueE0ELb1EE15processBaseCellERSt6vectorIS4_SaIS4_EEmmm
00000000003c5840 t _ZN7autopas19LCC04SoACellHandlerINS_16FullParticleCellINS_10MoleculeLJIdEEEENS_27VLCCellPairGeneratorFunctorIS3_EELNS_7options16DataLayoutOption5ValueE0ELb1EE19writeBufferIntoCellERSt6vectorIS4_SaIS4_EEmSE_RSB_ISB_ImSaImEESaISG_EEmm.isra.0
00000000003cb460 W _ZN7autopas19LCC04SoACellHandlerINS_16FullParticleCellINS_10MoleculeLJIdEEEENS_27VLCCellPairGeneratorFunctorIS3_EELNS_7options16DataLayoutOption5ValueE1ELb0EE15processBaseCellERSt6vectorIS4_SaIS4_EEmmm
00000000003cad00 t _ZN7autopas19LCC04SoACellHandlerINS_16FullParticleCellINS_10MoleculeLJIdEEEENS_27VLCCellPairGeneratorFunctorIS3_EELNS_7options16DataLayoutOption5ValueE1ELb0EE19writeBufferIntoCellERSt6vectorIS4_SaIS4_EEmSE_RSB_ISB_ImSaImEESaISG_EEmm.isra.0
00000000003bb4c0 W _ZN7autopas19LCC04SoACellHandlerINS_16FullParticleCellINS_10MoleculeLJIdEEEENS_27VLCCellPairGeneratorFunctorIS3_EELNS_7options16DataLayoutOption5ValueE1ELb0EE19writeCellIntoBufferERKSt6vectorIS4_SaIS4_EEmRSD_RSB_ISB_ImSaImEESaISI_EEjj
00000000003c9990 W _ZN7autopas19LCC04SoACellHandlerINS_16FullParticleCellINS_10MoleculeLJIdEEEENS_27VLCCellPairGeneratorFunctorIS3_EELNS_7options16DataLayoutOption5ValueE1ELb1EE15processBaseCellERSt6vectorIS4_SaIS4_EEmmm
00000000003c9230 t _ZN7autopas19LCC04SoACellHandlerINS_16FullParticleCellINS_10MoleculeLJIdEEEENS_27VLCCellPairGeneratorFunctorIS3_EELNS_7options16DataLayoutOption5ValueE1ELb1EE19writeBufferIntoCellERSt6vectorIS4_SaIS4_EEmSE_RSB_ISB_ImSaImEESaISG_EEmm.isra.0
000000000031f170 W _ZN7autopas19OctreeNodeInterfaceINS_10MoleculeLJIdEEE17getNeighborLeavesEj
000000000031fda0 W _ZN7autopas19OctreeNodeInterfaceINS_10MoleculeLJIdEEE17getNeighborLeavesEv
000000000031f630 W _ZN7autopas19OctreeNodeInterfaceINS_10MoleculeLJIdEEE18GTEQ_EDGE_NEIGHBORENS_6octree4EdgeE
000000000031efd0 W _ZN7autopas19OctreeNodeInterfaceINS_10MoleculeLJIdEEE18GTEQ_FACE_NEIGHBORENS_6octree4FaceE
000000000031f8f0 W _ZN7autopas19OctreeNodeInterfaceINS_10MoleculeLJIdEEE20GTEQ_VERTEX_NEIGHBORENS_6octree6VertexE
0000000000323870 t _ZN7autopas19VVLAsBuildTraversalINS_16FullParticleCellINS_10MoleculeLJIdEEEES3_NS_27VLCAllCellsGeneratorFunctorIS3_EELNS_7options16DataLayoutOption5ValueE0ELb0EE10iterateAoSERNS_25VerletNeighborListAsBuildIS3_EE._omp_fn.0
00000000001f9970 W _ZN7autopas19VVLAsBuildTraversalINS_16FullParticleCellINS_10MoleculeLJIdEEEES3_NS_27VLCAllCellsGeneratorFunctorIS3_EELNS_7options16DataLayoutOption5ValueE0ELb0EE12endTraversalEv
00000000001f9950 W _ZN7autopas19VVLAsBuildTraversalINS_16FullParticleCellINS_10MoleculeLJIdEEEES3_NS_27VLCAllCellsGeneratorFunctorIS3_EELNS_7options16DataLayoutOption5ValueE0ELb0EE13initTraversalEv
0000000000208c80 W _ZN7autopas19VVLAsBuildTraversalINS_16FullParticleCellINS_10MoleculeLJIdEEEES3_NS_27VLCAllCellsGeneratorFunctorIS3_EELNS_7options16DataLayoutOption5ValueE0ELb0EE21traverseParticlePairsEv
00000000002002f0 W _ZN7autopas19VVLAsBuildTraversalINS_16FullParticleCellINS_10MoleculeLJIdEEEES3_NS_27VLCAllCellsGeneratorFunctorIS3_EELNS_7options16DataLayoutOption5ValueE0ELb0EED0Ev
00000000001f7bf0 W _ZN7autopas19VVLAsBuildTraversalINS_16FullParticleCellINS_10MoleculeLJIdEEEES3_NS_27VLCAllCellsGeneratorFunctorIS3_EELNS_7options16DataLayoutOption5ValueE0ELb0EED1Ev
00000000001f7bf0 W _ZN7autopas19VVLAsBuildTraversalINS_16FullParticleCellINS_10MoleculeLJIdEEEES3_NS_27VLCAllCellsGeneratorFunctorIS3_EELNS_7options16DataLayoutOption5ValueE0ELb0EED2Ev
0000000000323b10 t _ZN7autopas19VVLAsBuildTraversalINS_16FullParticleCellINS_10MoleculeLJIdEEEES3_NS_27VLCAllCellsGeneratorFunctorIS3_EELNS_7options16DataLayoutOption5ValueE0ELb1EE10iterateAoSERNS_25VerletNeighborListAsBuildIS3_EE._omp_fn.0
00000000001fa520 W _ZN7autopas19VVLAsBuildTraversalINS_16FullParticleCellINS_10MoleculeLJIdEEEES3_NS_27VLCAllCellsGeneratorFunctorIS3_EELNS_7options16DataLayoutOption5ValueE0ELb1EE12endTraversalEv
00000000001fa500 W _ZN7autopas19VVLAsBuildTraversalINS_16FullParticleCellINS_10MoleculeLJIdEEEES3_NS_27VLCAllCellsGeneratorFunctorIS3_EELNS_7options16DataLayoutOption5ValueE0ELb1EE13initTraversalEv
00000000002090f0 W _ZN7autopas19VVLAsBuildTraversalINS_16FullParticleCellINS_10MoleculeLJIdEEEES3_NS_27VLCAllCellsGeneratorFunctorIS3_EELNS_7options16DataLayoutOption5ValueE0ELb1EE21traverseParticlePairsEv
0000000000200380 W _ZN7autopas19VVLAsBuildTraversalINS_16FullParticleCellINS_10MoleculeLJIdEEEES3_NS_27VLCAllCellsGeneratorFunctorIS3_EELNS_7options16DataLayoutOption5ValueE0ELb1EED0Ev
00000000001f7b20 W _ZN7autopas19VVLAsBuildTraversalINS_16FullParticleCellINS_10MoleculeLJIdEEEES3_NS_27VLCAllCellsGeneratorFunctorIS3_EELNS_7options16DataLayoutOption5ValueE0ELb1EED1Ev
00000000001f7b20 W _ZN7autopas19VVLAsBuildTraversalINS_16FullParticleCellINS_10MoleculeLJIdEEEES3_NS_27VLCAllCellsGeneratorFunctorIS3_EELNS_7options16DataLayoutOption5ValueE0ELb1EED2Ev
0000000000234100 t _ZN7autopas19VVLAsBuildTraversalINS_16FullParticleCellINS_10MoleculeLJIdEEEES3_NS_27VLCAllCellsGeneratorFunctorIS3_EELNS_7options16DataLayoutOption5ValueE1ELb0EE10iterateSoAERNS_25VerletNeighborListAsBuildIS3_EE._omp_fn.0
000000000023a4d0 W _ZN7autopas19VVLAsBuildTraversalINS_16FullParticleCellINS_10MoleculeLJIdEEEES3_NS_27VLCAllCellsGeneratorFunctorIS3_EELNS_7options16DataLayoutOption5ValueE1ELb0EE12endTraversalEv
00000000003bc140 W _ZN7autopas19VVLAsBuildTraversalINS_16FullParticleCellINS_10MoleculeLJIdEEEES3_NS_27VLCAllCellsGeneratorFunctorIS3_EELNS_7options16DataLayoutOption5ValueE1ELb0EE13initTraversalEv
0000000000208520 W _ZN7autopas19VVLAsBuildTraversalINS_16FullParticleCellINS_10MoleculeLJIdEEEES3_NS_27VLCAllCellsGeneratorFunctorIS3_EELNS_7options16DataLayoutOption5ValueE1ELb0EE21traverseParticlePairsEv
00000000002001d0 W _ZN7autopas19VVLAsBuildTraversalINS_16FullParticleCellINS_10MoleculeLJIdEEEES3_NS_27VLCAllCellsGeneratorFunctorIS3_EELNS_7options16DataLayoutOption5ValueE1ELb0EED0Ev
00000000001f7d90 W _ZN7autopas19VVLAsBuildTraversalINS_16FullParticleCellINS_10MoleculeLJIdEEEES3_NS_27VLCAllCellsGeneratorFunctorIS3_EELNS_7options16DataLayoutOption5ValueE1ELb0EED1Ev
00000000001f7d90 W _ZN7autopas19VVLAsBuildTraversalINS_16FullParticleCellINS_10MoleculeLJIdEEEES3_NS_27VLCAllCellsGeneratorFunctorIS3_EELNS_7options16DataLayoutOption5ValueE1ELb0EED2Ev
0000000000233de0 t _ZN7autopas19VVLAsBuildTraversalINS_16FullParticleCellINS_10MoleculeLJIdEEEES3_NS_27VLCAllCellsGeneratorFunctorIS3_EELNS_7options16DataLayoutOption5ValueE1ELb1EE10iterateSoAERNS_25VerletNeighborListAsBuildIS3_EE._omp_fn.0
000000000023a290 W _ZN7autopas19VVLAsBuildTraversalINS_16FullParticleCellINS_10MoleculeLJIdEEEES3_NS_27VLCAllCellsGeneratorFunctorIS3_EELNS_7options16DataLayoutOption5ValueE1ELb1EE12endTraversalEv
00000000003bc940 W _ZN7autopas19VVLAsBuildTraversalINS_16FullParticleCellINS_10MoleculeLJIdEEEES3_NS_27VLCAllCellsGeneratorFunctorIS3_EELNS_7options16DataLayoutOption5ValueE1ELb1EE13initTraversalEv
00000000002087f0 W _ZN7autopas19VVLAsBuildTraversalINS_16FullParticleCellINS_10MoleculeLJIdEEEES3_NS_27VLCAllCellsGeneratorFunctorIS3_EELNS_7options16DataLayoutOption5ValueE1ELb1EE21traverseParticlePairsEv
0000000000200260 W _ZN7autopas19VVLAsBuildTraversalINS_16FullParticleCellINS_10MoleculeLJIdEEEES3_NS_27VLCAllCellsGeneratorFunctorIS3_EELNS_7options16DataLayoutOption5ValueE1ELb1EED0Ev
00000000001f7cc0 W _ZN7autopas19VVLAsBuildTraversalINS_16FullParticleCellINS_10MoleculeLJIdEEEES3_NS_27VLCAllCellsGeneratorFunctorIS3_EELNS_7options16DataLayoutOption5ValueE1ELb1EED1Ev
00000000001f7cc0 W _ZN7autopas19VVLAsBuildTraversalINS_16FullParticleCellINS_10MoleculeLJIdEEEES3_NS_27VLCAllCellsGeneratorFunctorIS3_EELNS_7options16DataLayoutOption5ValueE1ELb1EED2Ev
00000000003b3400 t _ZN7autopas19VVLAsBuildTraversalINS_16FullParticleCellINS_10MoleculeLJIdEEEES3_NS_27VLCCellPairGeneratorFunctorIS3_EELNS_7options16DataLayoutOption5ValueE0ELb0EE10iterateAoSERNS_25VerletNeighborListAsBuildIS3_EE._omp_fn.0
00000000001fc5d0 W _ZN7autopas19VVLAsBuildTraversalINS_16FullParticleCellINS_10MoleculeLJIdEEEES3_NS_27VLCCellPairGeneratorFunctorIS3_EELNS_7options16DataLayoutOption5ValueE0ELb0EE12endTraversalEv
00000000001fc5b0 W _ZN7autopas19VVLAsBuildTraversalINS_16FullParticleCellINS_10MoleculeLJIdEEEES3_NS_27VLCCellPairGeneratorFunctorIS3_EELNS_7options16DataLayoutOption5ValueE0ELb0EE13initTraversalEv
0000000000209c00 W _ZN7autopas19VVLAsBuildTraversalINS_16FullParticleCellINS_10MoleculeLJIdEEEES3_NS_27VLCCellPairGeneratorFunctorIS3_EELNS_7options16DataLayoutOption5ValueE0ELb0EE21traverseParticlePairsEv
0000000000200530 W _ZN7autopas19VVLAsBuildTraversalINS_16FullParticleCellINS_10MoleculeLJIdEEEES3_NS_27VLCCellPairGeneratorFunctorIS3_EELNS_7options16DataLayoutOption5ValueE0ELb0EED0Ev
00000000001f7710 W _ZN7autopas19VVLAsBuildTraversalINS_16FullParticleCellINS_10MoleculeLJIdEEEES3_NS_27VLCCellPairGeneratorFunctorIS3_EELNS_7options16DataLayoutOption5ValueE0ELb0EED1Ev
00000000001f7710 W _ZN7autopas19VVLAsBuildTraversalINS_16FullParticleCellINS_10MoleculeLJIdEEEES3_NS_27VLCCellPairGeneratorFunctorIS3_EELNS_7options16DataLayoutOption5ValueE0ELb0EED2Ev
00000000003b3030 t _ZN7autopas19VVLAsBuildTraversalINS_16FullParticleCellINS_10MoleculeLJIdEEEES3_NS_27VLCCellPairGeneratorFunctorIS3_EELNS_7options16DataLayoutOption5ValueE0ELb1EE10iterateAoSERNS_25VerletNeighborListAsBuildIS3_EE._omp_fn.0
00000000001fd180 W _ZN7autopas19VVLAsBuildTraversalINS_16FullParticleCellINS_10MoleculeLJIdEEEES3_NS_27VLCCellPairGeneratorFunctorIS3_EELNS_7options16DataLayoutOption5ValueE0ELb1EE12endTraversalEv
00000000001fd160 W _ZN7autopas19VVLAsBuildTraversalINS_16FullParticleCellINS_10MoleculeLJIdEEEES3_NS_27VLCCellPairGeneratorFunctorIS3_EELNS_7options16DataLayoutOption5ValueE0ELb1EE13initTraversalEv
000000000020a070 W _ZN7autopas19VVLAsBuildTraversalINS_16FullParticleCellINS_10MoleculeLJIdEEEES3_NS_27VLCCellPairGeneratorFunctorIS3_EELNS_7options16DataLayoutOption5ValueE0ELb1EE21traverseParticlePairsEv
00000000002000e0 W _ZN7autopas19VVLAsBuildTraversalINS_16FullParticleCellINS_10MoleculeLJIdEEEES3_NS_27VLCCellPairGeneratorFunctorIS3_EELNS_7options16DataLayoutOption5ValueE0ELb1EED0Ev
00000000001f7640 W _ZN7autopas19VVLAsBuildTraversalINS_16FullParticleCellINS_10MoleculeLJIdEEEES3_NS_27VLCCellPairGeneratorFunctorIS3_EELNS_7options16DataLayoutOption5ValueE0ELb1EED1Ev
00000000001f7640 W _ZN7autopas19VVLAsBuildTraversalINS_16FullParticleCellINS_10MoleculeLJIdEEEES3_NS_27VLCCellPairGeneratorFunctorIS3_EELNS_7options16DataLayoutOption5ValueE0ELb1EED2Ev
00000000002337a0 t _ZN7autopas19VVLAsBuildTraversalINS_16FullParticleCellINS_10MoleculeLJIdEEEES3_NS_27VLCCellPairGeneratorFunctorIS3_EELNS_7options16DataLayoutOption5ValueE1ELb0EE10iterateSoAERNS_25VerletNeighborListAsBuildIS3_EE._omp_fn.0
000000000023a710 W _ZN7autopas19VVLAsBuildTraversalINS_16FullParticleCellINS_10MoleculeLJIdEEEES3_NS_27VLCCellPairGeneratorFunctorIS3_EELNS_7options16DataLayoutOption5ValueE1ELb0EE12endTraversalEv
00000000003be590 W _ZN7autopas19VVLAsBuildTraversalINS_16FullParticleCellINS_10MoleculeLJIdEEEES3_NS_27VLCCellPairGeneratorFunctorIS3_EELNS_7options16DataLayoutOption5ValueE1ELb0EE13initTraversalEv
00000000002094a0 W _ZN7autopas19VVLAsBuildTraversalINS_16FullParticleCellINS_10MoleculeLJIdEEEES3_NS_27VLCCellPairGeneratorFunctorIS3_EELNS_7options16DataLayoutOption5ValueE1ELb0EE21traverseParticlePairsEv
0000000000200410 W _ZN7autopas19VVLAsBuildTraversalINS_16FullParticleCellINS_10MoleculeLJIdEEEES3_NS_27VLCCellPairGeneratorFunctorIS3_EELNS_7options16DataLayoutOption5ValueE1ELb0EED0Ev
00000000001f78b0 W _ZN7autopas19VVLAsBuildTraversalINS_16FullParticleCellINS_10MoleculeLJIdEEEES3_NS_27VLCCellPairGeneratorFunctorIS3_EELNS_7options16DataLayoutOption5ValueE1ELb0EED1Ev
00000000001f78b0 W _ZN7autopas19VVLAsBuildTraversalINS_16FullParticleCellINS_10MoleculeLJIdEEEES3_NS_27VLCCellPairGeneratorFunctorIS3_EELNS_7options16DataLayoutOption5ValueE1ELb0EED2Ev
0000000000233ac0 t _ZN7autopas19VVLAsBuildTraversalINS_16FullParticleCellINS_10MoleculeLJIdEEEES3_NS_27VLCCellPairGeneratorFunctorIS3_EELNS_7options16DataLayoutOption5ValueE1ELb1EE10iterateSoAERNS_25VerletNeighborListAsBuildIS3_EE._omp_fn.0
000000000023a950 W _ZN7autopas19VVLAsBuildTraversalINS_16FullParticleCellINS_10MoleculeLJIdEEEES3_NS_27VLCCellPairGeneratorFunctorIS3_EELNS_7options16DataLayoutOption5ValueE1ELb1EE12endTraversalEv
00000000003bdd90 W _ZN7autopas19VVLAsBuildTraversalINS_16FullParticleCellINS_10MoleculeLJIdEEEES3_NS_27VLCCellPairGeneratorFunctorIS3_EELNS_7options16DataLayoutOption5ValueE1ELb1EE13initTraversalEv
0000000000209770 W _ZN7autopas19VVLAsBuildTraversalINS_16FullParticleCellINS_10MoleculeLJIdEEEES3_NS_27VLCCellPairGeneratorFunctorIS3_EELNS_7options16DataLayoutOption5ValueE1ELb1EE21traverseParticlePairsEv
00000000002004a0 W _ZN7autopas19VVLAsBuildTraversalINS_16FullParticleCellINS_10MoleculeLJIdEEEES3_NS_27VLCCellPairGeneratorFunctorIS3_EELNS_7options16DataLayoutOption5ValueE1ELb1EED0Ev
00000000001f77e0 W _ZN7autopas19VVLAsBuildTraversalINS_16FullParticleCellINS_10MoleculeLJIdEEEES3_NS_27VLCCellPairGeneratorFunctorIS3_EELNS_7options16DataLayoutOption5ValueE1ELb1EED1Ev
00000000001f77e0 W _ZN7autopas19VVLAsBuildTraversalINS_16FullParticleCellINS_10MoleculeLJIdEEEES3_NS_27VLCCellPairGeneratorFunctorIS3_EELNS_7options16DataLayoutOption5ValueE1ELb1EED2Ev
00000000003e2aa0 W _ZN7autopas20FeatureVectorEncoder17setAllowedOptionsERKSt6vectorISt5tupleIJNS_7options15ContainerOptionENS3_15TraversalOptionENS_19LoadEstimatorOptionEEESaIS7_EERKS1_INS3_16DataLayoutOptionESaISC_EERKS1_INS3_13Newton3OptionESaISH_EERKNS_9NumberSetIdEE
00000000003e3050 W _ZN7autopas20FeatureVectorEncoderD1Ev
00000000003e3050 W _ZN7autopas20FeatureVectorEncoderD2Ev
0000000000208d60 W _ZN7autopas20LCSlicedC02TraversalINS_16FullParticleCellINS_10MoleculeLJIdEEEENS_27VLCAllCellsGeneratorFunctorIS3_EELNS_7options16DataLayoutOption5ValueE0ELb0EE21traverseParticlePairsEv
00000000002216a0 W _ZN7autopas20LCSlicedC02TraversalINS_16FullParticleCellINS_10MoleculeLJIdEEEENS_27VLCAllCellsGeneratorFunctorIS3_EELNS_7options16DataLayoutOption5ValueE0ELb0EED0Ev
0000000000203ad0 W _ZN7autopas20LCSlicedC02TraversalINS_16FullParticleCellINS_10MoleculeLJIdEEEENS_27VLCAllCellsGeneratorFunctorIS3_EELNS_7options16DataLayoutOption5ValueE0ELb0EED1Ev
0000000000203ad0 W _ZN7autopas20LCSlicedC02TraversalINS_16FullParticleCellINS_10MoleculeLJIdEEEENS_27VLCAllCellsGeneratorFunctorIS3_EELNS_7options16DataLayoutOption5ValueE0ELb0EED2Ev
00000000002091d0 W _ZN7autopas20LCSlicedC02TraversalINS_16FullParticleCellINS_10MoleculeLJIdEEEENS_27VLCAllCellsGeneratorFunctorIS3_EELNS_7options16DataLayoutOption5ValueE0ELb1EE21traverseParticlePairsEv
0000000000221390 W _ZN7autopas20LCSlicedC02TraversalINS_16FullParticleCellINS_10MoleculeLJIdEEEENS_27VLCAllCellsGeneratorFunctorIS3_EELNS_7options16DataLayoutOption5ValueE0ELb1EED0Ev
0000000000203db0 W _ZN7autopas20LCSlicedC02TraversalINS_16FullParticleCellINS_10MoleculeLJIdEEEENS_27VLCAllCellsGeneratorFunctorIS3_EELNS_7options16DataLayoutOption5ValueE0ELb1EED1Ev
0000000000203db0 W _ZN7autopas20LCSlicedC02TraversalINS_16FullParticleCellINS_10MoleculeLJIdEEEENS_27VLCAllCellsGeneratorFunctorIS3_EELNS_7options16DataLayoutOption5ValueE0ELb1EED2Ev
0000000000208620 W _ZN7autopas20LCSlicedC02TraversalINS_16FullParticleCellINS_10MoleculeLJIdEEEENS_27VLCAllCellsGeneratorFunctorIS3_EELNS_7options16DataLayoutOption5ValueE1ELb0EE21traverseParticlePairsEv
00000000002217f0 W _ZN7autopas20LCSlicedC02TraversalINS_16FullParticleCellINS_10MoleculeLJIdEEEENS_27VLCAllCellsGeneratorFunctorIS3_EELNS_7options16DataLayoutOption5ValueE1ELb0EED0Ev
0000000000203510 W _ZN7autopas20LCSlicedC02TraversalINS_16FullParticleCellINS_10MoleculeLJIdEEEENS_27VLCAllCellsGeneratorFunctorIS3_EELNS_7options16DataLayoutOption5ValueE1ELb0EED1Ev
0000000000203510 W _ZN7autopas20LCSlicedC02TraversalINS_16FullParticleCellINS_10MoleculeLJIdEEEENS_27VLCAllCellsGeneratorFunctorIS3_EELNS_7options16DataLayoutOption5ValueE1ELb0EED2Ev
00000000002088f0 W _ZN7autopas20LCSlicedC02TraversalINS_16FullParticleCellINS_10MoleculeLJIdEEEENS_27VLCAllCellsGeneratorFunctorIS3_EELNS_7options16DataLayoutOption5ValueE1ELb1EE21traverseParticlePairsEv
0000000000221400 W _ZN7autopas20LCSlicedC02TraversalINS_16FullParticleCellINS_10MoleculeLJIdEEEENS_27VLCAllCellsGeneratorFunctorIS3_EELNS_7options16DataLayoutOption5ValueE1ELb1EED0Ev
00000000002037f0 W _ZN7autopas20LCSlicedC02TraversalINS_16FullParticleCellINS_10MoleculeLJIdEEEENS_27VLCAllCellsGeneratorFunctorIS3_EELNS_7options16DataLayoutOption5ValueE1ELb1EED1Ev
00000000002037f0 W _ZN7autopas20LCSlicedC02TraversalINS_16FullParticleCellINS_10MoleculeLJIdEEEENS_27VLCAllCellsGeneratorFunctorIS3_EELNS_7options16DataLayoutOption5ValueE1ELb1EED2Ev
0000000000209ce0 W _ZN7autopas20LCSlicedC02TraversalINS_16FullParticleCellINS_10MoleculeLJIdEEEENS_27VLCCellPairGeneratorFunctorIS3_EELNS_7options16DataLayoutOption5ValueE0ELb0EE21traverseParticlePairsEv
0000000000221710 W _ZN7autopas20LCSlicedC02TraversalINS_16FullParticleCellINS_10MoleculeLJIdEEEENS_27VLCCellPairGeneratorFunctorIS3_EELNS_7options16DataLayoutOption5ValueE0ELb0EED0Ev
0000000000204a50 W _ZN7autopas20LCSlicedC02TraversalINS_16FullParticleCellINS_10MoleculeLJIdEEEENS_27VLCCellPairGeneratorFunctorIS3_EELNS_7options16DataLayoutOption5ValueE0ELb0EED1Ev
0000000000204a50 W _ZN7autopas20LCSlicedC02TraversalINS_16FullParticleCellINS_10MoleculeLJIdEEEENS_27VLCCellPairGeneratorFunctorIS3_EELNS_7options16DataLayoutOption5ValueE0ELb0EED2Ev
000000000020a150 W _ZN7autopas20LCSlicedC02TraversalINS_16FullParticleCellINS_10MoleculeLJIdEEEENS_27VLCCellPairGeneratorFunctorIS3_EELNS_7options16DataLayoutOption5ValueE0ELb1EE21traverseParticlePairsEv
0000000000221470 W _ZN7autopas20LCSlicedC02TraversalINS_16FullParticleCellINS_10MoleculeLJIdEEEENS_27VLCCellPairGeneratorFunctorIS3_EELNS_7options16DataLayoutOption5ValueE0ELb1EED0Ev
0000000000203120 W _ZN7autopas20LCSlicedC02TraversalINS_16FullParticleCellINS_10MoleculeLJIdEEEENS_27VLCCellPairGeneratorFunctorIS3_EELNS_7options16DataLayoutOption5ValueE0ELb1EED1Ev
0000000000203120 W _ZN7autopas20LCSlicedC02TraversalINS_16FullParticleCellINS_10MoleculeLJIdEEEENS_27VLCCellPairGeneratorFunctorIS3_EELNS_7options16DataLayoutOption5ValueE0ELb1EED2Ev
00000000002095a0 W _ZN7autopas20LCSlicedC02TraversalINS_16FullParticleCellINS_10MoleculeLJIdEEEENS_27VLCCellPairGeneratorFunctorIS3_EELNS_7options16DataLayoutOption5ValueE1ELb0EE21traverseParticlePairsEv
00000000002211d0 W _ZN7autopas20LCSlicedC02TraversalINS_16FullParticleCellINS_10MoleculeLJIdEEEENS_27VLCCellPairGeneratorFunctorIS3_EELNS_7options16DataLayoutOption5ValueE1ELb0EED0Ev
0000000000204490 W _ZN7autopas20LCSlicedC02TraversalINS_16FullParticleCellINS_10MoleculeLJIdEEEENS_27VLCCellPairGeneratorFunctorIS3_EELNS_7options16DataLayoutOption5ValueE1ELb0EED1Ev
0000000000204490 W _ZN7autopas20LCSlicedC02TraversalINS_16FullParticleCellINS_10MoleculeLJIdEEEENS_27VLCCellPairGeneratorFunctorIS3_EELNS_7options16DataLayoutOption5ValueE1ELb0EED2Ev
0000000000209870 W _ZN7autopas20LCSlicedC02TraversalINS_16FullParticleCellINS_10MoleculeLJIdEEEENS_27VLCCellPairGeneratorFunctorIS3_EELNS_7options16DataLayoutOption5ValueE1ELb1EE21traverseParticlePairsEv
00000000002215c0 W _ZN7autopas20LCSlicedC02TraversalINS_16FullParticleCellINS_10MoleculeLJIdEEEENS_27VLCCellPairGeneratorFunctorIS3_EELNS_7options16DataLayoutOption5ValueE1ELb1EED0Ev
0000000000204770 W _ZN7autopas20LCSlicedC02TraversalINS_16FullParticleCellINS_10MoleculeLJIdEEEENS_27VLCCellPairGeneratorFunctorIS3_EELNS_7options16DataLayoutOption5ValueE1ELb1EED1Ev
0000000000204770 W _ZN7autopas20LCSlicedC02TraversalINS_16FullParticleCellINS_10MoleculeLJIdEEEENS_27VLCCellPairGeneratorFunctorIS3_EELNS_7options16DataLayoutOption5ValueE1ELb1EED2Ev
00000000001f1050 t _ZN7autopas20OTTraversalInterfaceINS_17OctreeNodeWrapperINS_10MoleculeLJIdEEEEE11loadBuffersINS_27VLCAllCellsGeneratorFunctorIS3_EELNS_7options16DataLayoutOption5ValueE1EEEvRNS_5utils19DataLayoutConverterIT_XT0_EEEPS4_RSt6vectorIPNS_14OctreeLeafNodeIS3_EESaISL_EE.constprop.0
00000000001d280a t _ZN7autopas20OTTraversalInterfaceINS_17OctreeNodeWrapperINS_10MoleculeLJIdEEEEE11loadBuffersINS_27VLCAllCellsGeneratorFunctorIS3_EELNS_7options16DataLayoutOption5ValueE1EEEvRNS_5utils19DataLayoutConverterIT_XT0_EEEPS4_RSt6vectorIPNS_14OctreeLeafNodeIS3_EESaISL_EE.constprop.0.cold
00000000001f0dc0 t _ZN7autopas20OTTraversalInterfaceINS_17OctreeNodeWrapperINS_10MoleculeLJIdEEEEE11loadBuffersINS_27VLCCellPairGeneratorFunctorIS3_EELNS_7options16DataLayoutOption5ValueE1EEEvRNS_5utils19DataLayoutConverterIT_XT0_EEEPS4_RSt6vectorIPNS_14OctreeLeafNodeIS3_EESaISL_EE.constprop.0
00000000001d27dc t _ZN7autopas20OTTraversalInterfaceINS_17OctreeNodeWrapperINS_10MoleculeLJIdEEEEE11loadBuffersINS_27VLCCellPairGeneratorFunctorIS3_EELNS_7options16DataLayoutOption5ValueE1EEEvRNS_5utils19DataLayoutConverterIT_XT0_EEEPS4_RSt6vectorIPNS_14OctreeLeafNodeIS3_EESaISL_EE.constprop.0.cold
00000000002072d0 W _ZN7autopas20SlicedBasedTraversalINS_16FullParticleCellINS_10MoleculeLJIdEEEENS_27VLCAllCellsGeneratorFunctorIS3_EELNS_7options16DataLayoutOption5ValueE0ELb0ELb0EE12endTraversalEv
00000000002128d0 t _ZN7autopas20SlicedBasedTraversalINS_16FullParticleCellINS_10MoleculeLJIdEEEENS_27VLCAllCellsGeneratorFunctorIS3_EELNS_7options16DataLayoutOption5ValueE0ELb0ELb0EE12endTraversalEv._omp_fn.0
00000000001f94b0 W _ZN7autopas20SlicedBasedTraversalINS_16FullParticleCellINS_10MoleculeLJIdEEEENS_27VLCAllCellsGeneratorFunctorIS3_EELNS_7options16DataLayoutOption5ValueE0ELb0ELb0EE13initTraversalEv
0000000000205dd0 W _ZN7autopas20SlicedBasedTraversalINS_16FullParticleCellINS_10MoleculeLJIdEEEENS_27VLCAllCellsGeneratorFunctorIS3_EELNS_7options16DataLayoutOption5ValueE0ELb0ELb0EE14loadDataLayoutEv
000000000020d520 t _ZN7autopas20SlicedBasedTraversalINS_16FullParticleCellINS_10MoleculeLJIdEEEENS_27VLCAllCellsGeneratorFunctorIS3_EELNS_7options16DataLayoutOption5ValueE0ELb0ELb0EE14loadDataLayoutEv._omp_fn.0
00000000001d6450 t _ZN7autopas20SlicedBasedTraversalINS_16FullParticleCellINS_10MoleculeLJIdEEEENS_27VLCAllCellsGeneratorFunctorIS3_EELNS_7options16DataLayoutOption5ValueE0ELb0ELb0EE14loadDataLayoutEv._omp_fn.0.constprop.0
0000000000320a30 W _ZN7autopas20SlicedBasedTraversalINS_16FullParticleCellINS_10MoleculeLJIdEEEENS_27VLCAllCellsGeneratorFunctorIS3_EELNS_7options16DataLayoutOption5ValueE0ELb0ELb0EE18initSliceThicknessEm
00000000002ec8a0 W _ZN7autopas20SlicedBasedTraversalINS_16FullParticleCellINS_10MoleculeLJIdEEEENS_27VLCAllCellsGeneratorFunctorIS3_EELNS_7options16DataLayoutOption5ValueE0ELb0ELb0EEC1ERKSt5arrayImLm3EEPS6_dRKSB_IdLm3EE
00000000002ec8a0 W _ZN7autopas20SlicedBasedTraversalINS_16FullParticleCellINS_10MoleculeLJIdEEEENS_27VLCAllCellsGeneratorFunctorIS3_EELNS_7options16DataLayoutOption5ValueE0ELb0ELb0EEC2ERKSt5arrayImLm3EEPS6_dRKSB_IdLm3EE
00000000002073f0 W _ZN7autopas20SlicedBasedTraversalINS_16FullParticleCellINS_10MoleculeLJIdEEEENS_27VLCAllCellsGeneratorFunctorIS3_EELNS_7options16DataLayoutOption5ValueE0ELb0ELb1EE12endTraversalEv
00000000002128a0 t _ZN7autopas20SlicedBasedTraversalINS_16FullParticleCellINS_10MoleculeLJIdEEEENS_27VLCAllCellsGeneratorFunctorIS3_EELNS_7options16DataLayoutOption5ValueE0ELb0ELb1EE12endTraversalEv._omp_fn.0
0000000000221ca0 W _ZN7autopas20SlicedBasedTraversalINS_16FullParticleCellINS_10MoleculeLJIdEEEENS_27VLCAllCellsGeneratorFunctorIS3_EELNS_7options16DataLayoutOption5ValueE0ELb0ELb1EE13initTraversalEv
0000000000205ef0 W _ZN7autopas20SlicedBasedTraversalINS_16FullParticleCellINS_10MoleculeLJIdEEEENS_27VLCAllCellsGeneratorFunctorIS3_EELNS_7options16DataLayoutOption5ValueE0ELb0ELb1EE14loadDataLayoutEv
00000000001d64d0 t _ZN7autopas20SlicedBasedTraversalINS_16FullParticleCellINS_10MoleculeLJIdEEEENS_27VLCAllCellsGeneratorFunctorIS3_EELNS_7options16DataLayoutOption5ValueE0ELb0ELb1EE14loadDataLayoutEv._omp_fn.0
0000000000320ad0 W _ZN7autopas20SlicedBasedTraversalINS_16FullParticleCellINS_10MoleculeLJIdEEEENS_27VLCAllCellsGeneratorFunctorIS3_EELNS_7options16DataLayoutOption5ValueE0ELb0ELb1EE18initSliceThicknessEm
0000000000207450 W _ZN7autopas20SlicedBasedTraversalINS_16FullParticleCellINS_10MoleculeLJIdEEEENS_27VLCAllCellsGeneratorFunctorIS3_EELNS_7options16DataLayoutOption5ValueE0ELb1ELb0EE12endTraversalEv
0000000000212890 t _ZN7autopas20SlicedBasedTraversalINS_16FullParticleCellINS_10MoleculeLJIdEEEENS_27VLCAllCellsGeneratorFunctorIS3_EELNS_7options16DataLayoutOption5ValueE0ELb1ELb0EE12endTraversalEv._omp_fn.0
00000000001fa060 W _ZN7autopas20SlicedBasedTraversalINS_16FullParticleCellINS_10MoleculeLJIdEEEENS_27VLCAllCellsGeneratorFunctorIS3_EELNS_7options16DataLayoutOption5ValueE0ELb1ELb0EE13initTraversalEv
0000000000205f50 W _ZN7autopas20SlicedBasedTraversalINS_16FullParticleCellINS_10MoleculeLJIdEEEENS_27VLCAllCellsGeneratorFunctorIS3_EELNS_7options16DataLayoutOption5ValueE0ELb1ELb0EE14loadDataLayoutEv
0000000000212980 t _ZN7autopas20SlicedBasedTraversalINS_16FullParticleCellINS_10MoleculeLJIdEEEENS_27VLCAllCellsGeneratorFunctorIS3_EELNS_7options16DataLayoutOption5ValueE0ELb1ELb0EE14loadDataLayoutEv._omp_fn.0
0000000000320b80 W _ZN7autopas20SlicedBasedTraversalINS_16FullParticleCellINS_10MoleculeLJIdEEEENS_27VLCAllCellsGeneratorFunctorIS3_EELNS_7options16DataLayoutOption5ValueE0ELb1ELb0EE18initSliceThicknessEm
00000000002ec6f0 W _ZN7autopas20SlicedBasedTraversalINS_16FullParticleCellINS_10MoleculeLJIdEEEENS_27VLCAllCellsGeneratorFunctorIS3_EELNS_7options16DataLayoutOption5ValueE0ELb1ELb0EEC1ERKSt5arrayImLm3EEPS6_dRKSB_IdLm3EE
00000000002ec6f0 W _ZN7autopas20SlicedBasedTraversalINS_16FullParticleCellINS_10MoleculeLJIdEEEENS_27VLCAllCellsGeneratorFunctorIS3_EELNS_7options16DataLayoutOption5ValueE0ELb1ELb0EEC2ERKSt5arrayImLm3EEPS6_dRKSB_IdLm3EE
0000000000207570 W _ZN7autopas20SlicedBasedTraversalINS_16FullParticleCellINS_10MoleculeLJIdEEEENS_27VLCAllCellsGeneratorFunctorIS3_EELNS_7options16DataLayoutOption5ValueE0ELb1ELb1EE12endTraversalEv
0000000000212860 t _ZN7autopas20SlicedBasedTraversalINS_16FullParticleCellINS_10MoleculeLJIdEEEENS_27VLCAllCellsGeneratorFunctorIS3_EELNS_7options16DataLayoutOption5ValueE0ELb1ELb1EE12endTraversalEv._omp_fn.0
0000000000221e50 W _ZN7autopas20SlicedBasedTraversalINS_16FullParticleCellINS_10MoleculeLJIdEEEENS_27VLCAllCellsGeneratorFunctorIS3_EELNS_7options16DataLayoutOption5ValueE0ELb1ELb1EE13initTraversalEv
0000000000206070 W _ZN7autopas20SlicedBasedTraversalINS_16FullParticleCellINS_10MoleculeLJIdEEEENS_27VLCAllCellsGeneratorFunctorIS3_EELNS_7options16DataLayoutOption5ValueE0ELb1ELb1EE14loadDataLayoutEv
00000000001d64c0 t _ZN7autopas20SlicedBasedTraversalINS_16FullParticleCellINS_10MoleculeLJIdEEEENS_27VLCAllCellsGeneratorFunctorIS3_EELNS_7options16DataLayoutOption5ValueE0ELb1ELb1EE14loadDataLayoutEv._omp_fn.0
0000000000320c20 W _ZN7autopas20SlicedBasedTraversalINS_16FullParticleCellINS_10MoleculeLJIdEEEENS_27VLCAllCellsGeneratorFunctorIS3_EELNS_7options16DataLayoutOption5ValueE0ELb1ELb1EE18initSliceThicknessEm
0000000000206fd0 W _ZN7autopas20SlicedBasedTraversalINS_16FullParticleCellINS_10MoleculeLJIdEEEENS_27VLCAllCellsGeneratorFunctorIS3_EELNS_7options16DataLayoutOption5ValueE1ELb0ELb0EE12endTraversalEv
0000000000243630 t _ZN7autopas20SlicedBasedTraversalINS_16FullParticleCellINS_10MoleculeLJIdEEEENS_27VLCAllCellsGeneratorFunctorIS3_EELNS_7options16DataLayoutOption5ValueE1ELb0ELb0EE12endTraversalEv._omp_fn.0
00000000001f8100 W _ZN7autopas20SlicedBasedTraversalINS_16FullParticleCellINS_10MoleculeLJIdEEEENS_27VLCAllCellsGeneratorFunctorIS3_EELNS_7options16DataLayoutOption5ValueE1ELb0ELb0EE13initTraversalEv
0000000000205ad0 W _ZN7autopas20SlicedBasedTraversalINS_16FullParticleCellINS_10MoleculeLJIdEEEENS_27VLCAllCellsGeneratorFunctorIS3_EELNS_7options16DataLayoutOption5ValueE1ELb0ELb0EE14loadDataLayoutEv
00000000003bc460 t _ZN7autopas20SlicedBasedTraversalINS_16FullParticleCellINS_10MoleculeLJIdEEEENS_27VLCAllCellsGeneratorFunctorIS3_EELNS_7options16DataLayoutOption5ValueE1ELb0ELb0EE14loadDataLayoutEv._omp_fn.0
0000000000320790 W _ZN7autopas20SlicedBasedTraversalINS_16FullParticleCellINS_10MoleculeLJIdEEEENS_27VLCAllCellsGeneratorFunctorIS3_EELNS_7options16DataLayoutOption5ValueE1ELb0ELb0EE18initSliceThicknessEm
00000000002ecc00 W _ZN7autopas20SlicedBasedTraversalINS_16FullParticleCellINS_10MoleculeLJIdEEEENS_27VLCAllCellsGeneratorFunctorIS3_EELNS_7options16DataLayoutOption5ValueE1ELb0ELb0EEC1ERKSt5arrayImLm3EEPS6_dRKSB_IdLm3EE
00000000002ecc00 W _ZN7autopas20SlicedBasedTraversalINS_16FullParticleCellINS_10MoleculeLJIdEEEENS_27VLCAllCellsGeneratorFunctorIS3_EELNS_7options16DataLayoutOption5ValueE1ELb0ELb0EEC2ERKSt5arrayImLm3EEPS6_dRKSB_IdLm3EE
00000000002070f0 W _ZN7autopas20SlicedBasedTraversalINS_16FullParticleCellINS_10MoleculeLJIdEEEENS_27VLCAllCellsGeneratorFunctorIS3_EELNS_7options16DataLayoutOption5ValueE1ELb0ELb1EE12endTraversalEv
0000000000245130 t _ZN7autopas20SlicedBasedTraversalINS_16FullParticleCellINS_10MoleculeLJIdEEEENS_27VLCAllCellsGeneratorFunctorIS3_EELNS_7options16DataLayoutOption5ValueE1ELb0ELb1EE12endTraversalEv._omp_fn.0
0000000000221d30 W _ZN7autopas20SlicedBasedTraversalINS_16FullParticleCellINS_10MoleculeLJIdEEEENS_27VLCAllCellsGeneratorFunctorIS3_EELNS_7options16DataLayoutOption5ValueE1ELb0ELb1EE13initTraversalEv
0000000000205bf0 W _ZN7autopas20SlicedBasedTraversalINS_16FullParticleCellINS_10MoleculeLJIdEEEENS_27VLCAllCellsGeneratorFunctorIS3_EELNS_7options16DataLayoutOption5ValueE1ELb0ELb1EE14loadDataLayoutEv
00000000001f0390 t _ZN7autopas20SlicedBasedTraversalINS_16FullParticleCellINS_10MoleculeLJIdEEEENS_27VLCAllCellsGeneratorFunctorIS3_EELNS_7options16DataLayoutOption5ValueE1ELb0ELb1EE14loadDataLayoutEv._omp_fn.0
0000000000320830 W _ZN7autopas20SlicedBasedTraversalINS_16FullParticleCellINS_10MoleculeLJIdEEEENS_27VLCAllCellsGeneratorFunctorIS3_EELNS_7options16DataLayoutOption5ValueE1ELb0ELb1EE18initSliceThicknessEm
0000000000207150 W _ZN7autopas20SlicedBasedTraversalINS_16FullParticleCellINS_10MoleculeLJIdEEEENS_27VLCAllCellsGeneratorFunctorIS3_EELNS_7options16DataLayoutOption5ValueE1ELb1ELb0EE12endTraversalEv
00000000002443b0 t _ZN7autopas20SlicedBasedTraversalINS_16FullParticleCellINS_10MoleculeLJIdEEEENS_27VLCAllCellsGeneratorFunctorIS3_EELNS_7options16DataLayoutOption5ValueE1ELb1ELb0EE12endTraversalEv._omp_fn.0
00000000001f8a30 W _ZN7autopas20SlicedBasedTraversalINS_16FullParticleCellINS_10MoleculeLJIdEEEENS_27VLCAllCellsGeneratorFunctorIS3_EELNS_7options16DataLayoutOption5ValueE1ELb1ELb0EE13initTraversalEv
0000000000205c50 W _ZN7autopas20SlicedBasedTraversalINS_16FullParticleCellINS_10MoleculeLJIdEEEENS_27VLCAllCellsGeneratorFunctorIS3_EELNS_7options16DataLayoutOption5ValueE1ELb1ELb0EE14loadDataLayoutEv
00000000003bc670 t _ZN7autopas20SlicedBasedTraversalINS_16FullParticleCellINS_10MoleculeLJIdEEEENS_27VLCAllCellsGeneratorFunctorIS3_EELNS_7options16DataLayoutOption5ValueE1ELb1ELb0EE14loadDataLayoutEv._omp_fn.0
00000000003208e0 W _ZN7autopas20SlicedBasedTraversalINS_16FullParticleCellINS_10MoleculeLJIdEEEENS_27VLCAllCellsGeneratorFunctorIS3_EELNS_7options16DataLayoutOption5ValueE1ELb1ELb0EE18initSliceThicknessEm
00000000002eca50 W _ZN7autopas20SlicedBasedTraversalINS_16FullParticleCellINS_10MoleculeLJIdEEEENS_27VLCAllCellsGeneratorFunctorIS3_EELNS_7options16DataLayoutOption5ValueE1ELb1ELb0EEC1ERKSt5arrayImLm3EEPS6_dRKSB_IdLm3EE
00000000002eca50 W _ZN7autopas20SlicedBasedTraversalINS_16FullParticleCellINS_10MoleculeLJIdEEEENS_27VLCAllCellsGeneratorFunctorIS3_EELNS_7options16DataLayoutOption5ValueE1ELb1ELb0EEC2ERKSt5arrayImLm3EEPS6_dRKSB_IdLm3EE
0000000000207270 W _ZN7autopas20SlicedBasedTraversalINS_16FullParticleCellINS_10MoleculeLJIdEEEENS_27VLCAllCellsGeneratorFunctorIS3_EELNS_7options16DataLayoutOption5ValueE1ELb1ELb1EE12endTraversalEv
0000000000245370 t _ZN7autopas20SlicedBasedTraversalINS_16FullParticleCellINS_10MoleculeLJIdEEEENS_27VLCAllCellsGeneratorFunctorIS3_EELNS_7options16DataLayoutOption5ValueE1ELb1ELb1EE12endTraversalEv._omp_fn.0
0000000000221c10 W _ZN7autopas20SlicedBasedTraversalINS_16FullParticleCellINS_10MoleculeLJIdEEEENS_27VLCAllCellsGeneratorFunctorIS3_EELNS_7options16DataLayoutOption5ValueE1ELb1ELb1EE13initTraversalEv
0000000000205d70 W _ZN7autopas20SlicedBasedTraversalINS_16FullParticleCellINS_10MoleculeLJIdEEEENS_27VLCAllCellsGeneratorFunctorIS3_EELNS_7options16DataLayoutOption5ValueE1ELb1ELb1EE14loadDataLayoutEv
00000000001f0440 t _ZN7autopas20SlicedBasedTraversalINS_16FullParticleCellINS_10MoleculeLJIdEEEENS_27VLCAllCellsGeneratorFunctorIS3_EELNS_7options16DataLayoutOption5ValueE1ELb1ELb1EE14loadDataLayoutEv._omp_fn.0
0000000000320980 W _ZN7autopas20SlicedBasedTraversalINS_16FullParticleCellINS_10MoleculeLJIdEEEENS_27VLCAllCellsGeneratorFunctorIS3_EELNS_7options16DataLayoutOption5ValueE1ELb1ELb1EE18initSliceThicknessEm
0000000000207a50 W _ZN7autopas20SlicedBasedTraversalINS_16FullParticleCellINS_10MoleculeLJIdEEEENS_27VLCCellPairGeneratorFunctorIS3_EELNS_7options16DataLayoutOption5ValueE0ELb0ELb0EE12endTraversalEv
0000000000212850 t _ZN7autopas20SlicedBasedTraversalINS_16FullParticleCellINS_10MoleculeLJIdEEEENS_27VLCCellPairGeneratorFunctorIS3_EELNS_7options16DataLayoutOption5ValueE0ELb0ELb0EE12endTraversalEv._omp_fn.0
00000000001fc110 W _ZN7autopas20SlicedBasedTraversalINS_16FullParticleCellINS_10MoleculeLJIdEEEENS_27VLCCellPairGeneratorFunctorIS3_EELNS_7options16DataLayoutOption5ValueE0ELb0ELb0EE13initTraversalEv
0000000000206550 W _ZN7autopas20SlicedBasedTraversalINS_16FullParticleCellINS_10MoleculeLJIdEEEENS_27VLCCellPairGeneratorFunctorIS3_EELNS_7options16DataLayoutOption5ValueE0ELb0ELb0EE14loadDataLayoutEv
0000000000212950 t _ZN7autopas20SlicedBasedTraversalINS_16FullParticleCellINS_10MoleculeLJIdEEEENS_27VLCCellPairGeneratorFunctorIS3_EELNS_7options16DataLayoutOption5ValueE0ELb0ELb0EE14loadDataLayoutEv._omp_fn.0
0000000000320f70 W _ZN7autopas20SlicedBasedTraversalINS_16FullParticleCellINS_10MoleculeLJIdEEEENS_27VLCCellPairGeneratorFunctorIS3_EELNS_7options16DataLayoutOption5ValueE0ELb0ELb0EE18initSliceThicknessEm
00000000002ebc90 W _ZN7autopas20SlicedBasedTraversalINS_16FullParticleCellINS_10MoleculeLJIdEEEENS_27VLCCellPairGeneratorFunctorIS3_EELNS_7options16DataLayoutOption5ValueE0ELb0ELb0EEC1ERKSt5arrayImLm3EEPS6_dRKSB_IdLm3EE
00000000002ebc90 W _ZN7autopas20SlicedBasedTraversalINS_16FullParticleCellINS_10MoleculeLJIdEEEENS_27VLCCellPairGeneratorFunctorIS3_EELNS_7options16DataLayoutOption5ValueE0ELb0ELb0EEC2ERKSt5arrayImLm3EEPS6_dRKSB_IdLm3EE
0000000000207b70 W _ZN7autopas20SlicedBasedTraversalINS_16FullParticleCellINS_10MoleculeLJIdEEEENS_27VLCCellPairGeneratorFunctorIS3_EELNS_7options16DataLayoutOption5ValueE0ELb0ELb1EE12endTraversalEv
0000000000212820 t _ZN7autopas20SlicedBasedTraversalINS_16FullParticleCellINS_10MoleculeLJIdEEEENS_27VLCCellPairGeneratorFunctorIS3_EELNS_7options16DataLayoutOption5ValueE0ELb0ELb1EE12endTraversalEv._omp_fn.0
0000000000221a60 W _ZN7autopas20SlicedBasedTraversalINS_16FullParticleCellINS_10MoleculeLJIdEEEENS_27VLCCellPairGeneratorFunctorIS3_EELNS_7options16DataLayoutOption5ValueE0ELb0ELb1EE13initTraversalEv
0000000000206670 W _ZN7autopas20SlicedBasedTraversalINS_16FullParticleCellINS_10MoleculeLJIdEEEENS_27VLCCellPairGeneratorFunctorIS3_EELNS_7options16DataLayoutOption5ValueE0ELb0ELb1EE14loadDataLayoutEv
00000000001d6490 t _ZN7autopas20SlicedBasedTraversalINS_16FullParticleCellINS_10MoleculeLJIdEEEENS_27VLCCellPairGeneratorFunctorIS3_EELNS_7options16DataLayoutOption5ValueE0ELb0ELb1EE14loadDataLayoutEv._omp_fn.0
0000000000321010 W _ZN7autopas20SlicedBasedTraversalINS_16FullParticleCellINS_10MoleculeLJIdEEEENS_27VLCCellPairGeneratorFunctorIS3_EELNS_7options16DataLayoutOption5ValueE0ELb0ELb1EE18initSliceThicknessEm
0000000000207bd0 W _ZN7autopas20SlicedBasedTraversalINS_16FullParticleCellINS_10MoleculeLJIdEEEENS_27VLCCellPairGeneratorFunctorIS3_EELNS_7options16DataLayoutOption5ValueE0ELb1ELb0EE12endTraversalEv
0000000000212810 t _ZN7autopas20SlicedBasedTraversalINS_16FullParticleCellINS_10MoleculeLJIdEEEENS_27VLCCellPairGeneratorFunctorIS3_EELNS_7options16DataLayoutOption5ValueE0ELb1ELb0EE12endTraversalEv._omp_fn.0
00000000001fccc0 W _ZN7autopas20SlicedBasedTraversalINS_16FullParticleCellINS_10MoleculeLJIdEEEENS_27VLCCellPairGeneratorFunctorIS3_EELNS_7options16DataLayoutOption5ValueE0ELb1ELb0EE13initTraversalEv
00000000002066d0 W _ZN7autopas20SlicedBasedTraversalINS_16FullParticleCellINS_10MoleculeLJIdEEEENS_27VLCCellPairGeneratorFunctorIS3_EELNS_7options16DataLayoutOption5ValueE0ELb1ELb0EE14loadDataLayoutEv
0000000000212920 t _ZN7autopas20SlicedBasedTraversalINS_16FullParticleCellINS_10MoleculeLJIdEEEENS_27VLCCellPairGeneratorFunctorIS3_EELNS_7options16DataLayoutOption5ValueE0ELb1ELb0EE14loadDataLayoutEv._omp_fn.0
00000000003210c0 W _ZN7autopas20SlicedBasedTraversalINS_16FullParticleCellINS_10MoleculeLJIdEEEENS_27VLCCellPairGeneratorFunctorIS3_EELNS_7options16DataLayoutOption5ValueE0ELb1ELb0EE18initSliceThicknessEm
00000000002ebae0 W _ZN7autopas20SlicedBasedTraversalINS_16FullParticleCellINS_10MoleculeLJIdEEEENS_27VLCCellPairGeneratorFunctorIS3_EELNS_7options16DataLayoutOption5ValueE0ELb1ELb0EEC1ERKSt5arrayImLm3EEPS6_dRKSB_IdLm3EE
00000000002ebae0 W _ZN7autopas20SlicedBasedTraversalINS_16FullParticleCellINS_10MoleculeLJIdEEEENS_27VLCCellPairGeneratorFunctorIS3_EELNS_7options16DataLayoutOption5ValueE0ELb1ELb0EEC2ERKSt5arrayImLm3EEPS6_dRKSB_IdLm3EE
0000000000207cf0 W _ZN7autopas20SlicedBasedTraversalINS_16FullParticleCellINS_10MoleculeLJIdEEEENS_27VLCCellPairGeneratorFunctorIS3_EELNS_7options16DataLayoutOption5ValueE0ELb1ELb1EE12endTraversalEv
00000000002127e0 t _ZN7autopas20SlicedBasedTraversalINS_16FullParticleCellINS_10MoleculeLJIdEEEENS_27VLCCellPairGeneratorFunctorIS3_EELNS_7options16DataLayoutOption5ValueE0ELb1ELb1EE12endTraversalEv._omp_fn.0
0000000000221af0 W _ZN7autopas20SlicedBasedTraversalINS_16FullParticleCellINS_10MoleculeLJIdEEEENS_27VLCCellPairGeneratorFunctorIS3_EELNS_7options16DataLayoutOption5ValueE0ELb1ELb1EE13initTraversalEv
00000000002067f0 W _ZN7autopas20SlicedBasedTraversalINS_16FullParticleCellINS_10MoleculeLJIdEEEENS_27VLCCellPairGeneratorFunctorIS3_EELNS_7options16DataLayoutOption5ValueE0ELb1ELb1EE14loadDataLayoutEv
00000000001d6480 t _ZN7autopas20SlicedBasedTraversalINS_16FullParticleCellINS_10MoleculeLJIdEEEENS_27VLCCellPairGeneratorFunctorIS3_EELNS_7options16DataLayoutOption5ValueE0ELb1ELb1EE14loadDataLayoutEv._omp_fn.0
0000000000321160 W _ZN7autopas20SlicedBasedTraversalINS_16FullParticleCellINS_10MoleculeLJIdEEEENS_27VLCCellPairGeneratorFunctorIS3_EELNS_7options16DataLayoutOption5ValueE0ELb1ELb1EE18initSliceThicknessEm
0000000000207750 W _ZN7autopas20SlicedBasedTraversalINS_16FullParticleCellINS_10MoleculeLJIdEEEENS_27VLCCellPairGeneratorFunctorIS3_EELNS_7options16DataLayoutOption5ValueE1ELb0ELb0EE12endTraversalEv
0000000000244cb0 t _ZN7autopas20SlicedBasedTraversalINS_16FullParticleCellINS_10MoleculeLJIdEEEENS_27VLCCellPairGeneratorFunctorIS3_EELNS_7options16DataLayoutOption5ValueE1ELb0ELb0EE12endTraversalEv._omp_fn.0
00000000001fad60 W _ZN7autopas20SlicedBasedTraversalINS_16FullParticleCellINS_10MoleculeLJIdEEEENS_27VLCCellPairGeneratorFunctorIS3_EELNS_7options16DataLayoutOption5ValueE1ELb0ELb0EE13initTraversalEv
0000000000206250 W _ZN7autopas20SlicedBasedTraversalINS_16FullParticleCellINS_10MoleculeLJIdEEEENS_27VLCCellPairGeneratorFunctorIS3_EELNS_7options16DataLayoutOption5ValueE1ELb0ELb0EE14loadDataLayoutEv
00000000003be0b0 t _ZN7autopas20SlicedBasedTraversalINS_16FullParticleCellINS_10MoleculeLJIdEEEENS_27VLCCellPairGeneratorFunctorIS3_EELNS_7options16DataLayoutOption5ValueE1ELb0ELb0EE14loadDataLayoutEv._omp_fn.0
0000000000320cd0 W _ZN7autopas20SlicedBasedTraversalINS_16FullParticleCellINS_10MoleculeLJIdEEEENS_27VLCCellPairGeneratorFunctorIS3_EELNS_7options16DataLayoutOption5ValueE1ELb0ELb0EE18initSliceThicknessEm
00000000002ebff0 W _ZN7autopas20SlicedBasedTraversalINS_16FullParticleCellINS_10MoleculeLJIdEEEENS_27VLCCellPairGeneratorFunctorIS3_EELNS_7options16DataLayoutOption5ValueE1ELb0ELb0EEC1ERKSt5arrayImLm3EEPS6_dRKSB_IdLm3EE
00000000002ebff0 W _ZN7autopas20SlicedBasedTraversalINS_16FullParticleCellINS_10MoleculeLJIdEEEENS_27VLCCellPairGeneratorFunctorIS3_EELNS_7options16DataLayoutOption5ValueE1ELb0ELb0EEC2ERKSt5arrayImLm3EEPS6_dRKSB_IdLm3EE
0000000000207870 W _ZN7autopas20SlicedBasedTraversalINS_16FullParticleCellINS_10MoleculeLJIdEEEENS_27VLCCellPairGeneratorFunctorIS3_EELNS_7options16DataLayoutOption5ValueE1ELb0ELb1EE12endTraversalEv
0000000000243870 t _ZN7autopas20SlicedBasedTraversalINS_16FullParticleCellINS_10MoleculeLJIdEEEENS_27VLCCellPairGeneratorFunctorIS3_EELNS_7options16DataLayoutOption5ValueE1ELb0ELb1EE12endTraversalEv._omp_fn.0
0000000000221dc0 W _ZN7autopas20SlicedBasedTraversalINS_16FullParticleCellINS_10MoleculeLJIdEEEENS_27VLCCellPairGeneratorFunctorIS3_EELNS_7options16DataLayoutOption5ValueE1ELb0ELb1EE13initTraversalEv
0000000000206370 W _ZN7autopas20SlicedBasedTraversalINS_16FullParticleCellINS_10MoleculeLJIdEEEENS_27VLCCellPairGeneratorFunctorIS3_EELNS_7options16DataLayoutOption5ValueE1ELb0ELb1EE14loadDataLayoutEv
00000000001f0c60 t _ZN7autopas20SlicedBasedTraversalINS_16FullParticleCellINS_10MoleculeLJIdEEEENS_27VLCCellPairGeneratorFunctorIS3_EELNS_7options16DataLayoutOption5ValueE1ELb0ELb1EE14loadDataLayoutEv._omp_fn.0
0000000000320d70 W _ZN7autopas20SlicedBasedTraversalINS_16FullParticleCellINS_10MoleculeLJIdEEEENS_27VLCCellPairGeneratorFunctorIS3_EELNS_7options16DataLayoutOption5ValueE1ELb0ELb1EE18initSliceThicknessEm
00000000002078d0 W _ZN7autopas20SlicedBasedTraversalINS_16FullParticleCellINS_10MoleculeLJIdEEEENS_27VLCCellPairGeneratorFunctorIS3_EELNS_7options16DataLayoutOption5ValueE1ELb1ELb0EE12endTraversalEv
0000000000243ab0 t _ZN7autopas20SlicedBasedTraversalINS_16FullParticleCellINS_10MoleculeLJIdEEEENS_27VLCCellPairGeneratorFunctorIS3_EELNS_7options16DataLayoutOption5ValueE1ELb1ELb0EE12endTraversalEv._omp_fn.0
00000000001fb690 W _ZN7autopas20SlicedBasedTraversalINS_16FullParticleCellINS_10MoleculeLJIdEEEENS_27VLCCellPairGeneratorFunctorIS3_EELNS_7options16DataLayoutOption5ValueE1ELb1ELb0EE13initTraversalEv
00000000002063d0 W _ZN7autopas20SlicedBasedTraversalINS_16FullParticleCellINS_10MoleculeLJIdEEEENS_27VLCCellPairGeneratorFunctorIS3_EELNS_7options16DataLayoutOption5ValueE1ELb1ELb0EE14loadDataLayoutEv
00000000003be2c0 t _ZN7autopas20SlicedBasedTraversalINS_16FullParticleCellINS_10MoleculeLJIdEEEENS_27VLCCellPairGeneratorFunctorIS3_EELNS_7options16DataLayoutOption5ValueE1ELb1ELb0EE14loadDataLayoutEv._omp_fn.0
0000000000320e20 W _ZN7autopas20SlicedBasedTraversalINS_16FullParticleCellINS_10MoleculeLJIdEEEENS_27VLCCellPairGeneratorFunctorIS3_EELNS_7options16DataLayoutOption5ValueE1ELb1ELb0EE18initSliceThicknessEm
00000000002ebe40 W _ZN7autopas20SlicedBasedTraversalINS_16FullParticleCellINS_10MoleculeLJIdEEEENS_27VLCCellPairGeneratorFunctorIS3_EELNS_7options16DataLayoutOption5ValueE1ELb1ELb0EEC1ERKSt5arrayImLm3EEPS6_dRKSB_IdLm3EE
00000000002ebe40 W _ZN7autopas20SlicedBasedTraversalINS_16FullParticleCellINS_10MoleculeLJIdEEEENS_27VLCCellPairGeneratorFunctorIS3_EELNS_7options16DataLayoutOption5ValueE1ELb1ELb0EEC2ERKSt5arrayImLm3EEPS6_dRKSB_IdLm3EE
00000000002079f0 W _ZN7autopas20SlicedBasedTraversalINS_16FullParticleCellINS_10MoleculeLJIdEEEENS_27VLCCellPairGeneratorFunctorIS3_EELNS_7options16DataLayoutOption5ValueE1ELb1ELb1EE12endTraversalEv
00000000002431b0 t _ZN7autopas20SlicedBasedTraversalINS_16FullParticleCellINS_10MoleculeLJIdEEEENS_27VLCCellPairGeneratorFunctorIS3_EELNS_7options16DataLayoutOption5ValueE1ELb1ELb1EE12endTraversalEv._omp_fn.0
0000000000221b80 W _ZN7autopas20SlicedBasedTraversalINS_16FullParticleCellINS_10MoleculeLJIdEEEENS_27VLCCellPairGeneratorFunctorIS3_EELNS_7options16DataLayoutOption5ValueE1ELb1ELb1EE13initTraversalEv
00000000002064f0 W _ZN7autopas20SlicedBasedTraversalINS_16FullParticleCellINS_10MoleculeLJIdEEEENS_27VLCCellPairGeneratorFunctorIS3_EELNS_7options16DataLayoutOption5ValueE1ELb1ELb1EE14loadDataLayoutEv
00000000001f0d10 t _ZN7autopas20SlicedBasedTraversalINS_16FullParticleCellINS_10MoleculeLJIdEEEENS_27VLCCellPairGeneratorFunctorIS3_EELNS_7options16DataLayoutOption5ValueE1ELb1ELb1EE14loadDataLayoutEv._omp_fn.0
0000000000320ec0 W _ZN7autopas20SlicedBasedTraversalINS_16FullParticleCellINS_10MoleculeLJIdEEEENS_27VLCCellPairGeneratorFunctorIS3_EELNS_7options16DataLayoutOption5ValueE1ELb1ELb1EE18initSliceThicknessEm
00000000001f7510 W _ZN7autopas20VLTraversalInterfaceINS_16FullParticleCellINS_10MoleculeLJIdEEEEE24setCellsAndNeighborListsERSt6vectorIS4_SaIS4_EERSt13unordered_mapIPS3_S6_ISB_SaISB_EESt4hashISB_ESt8equal_toISB_ESaISt4pairIKSB_SD_EEERS6_IS6_ImNS_16AlignedAllocatorImLm64EEEESaISQ_EE
00000000003dae40 t _ZN7autopas20compatibleTraversalsL23allCompatibleTraversalsENS_7options15ContainerOptionE
00000000001d2a36 t _ZN7autopas20compatibleTraversalsL23allCompatibleTraversalsENS_7options15ContainerOptionE.cold
00000000003dad50 t _ZN7autopas20compatibleTraversalsL25allLCCompatibleTraversalsEv
00000000004057a0 t _ZN7autopas20compatibleTraversalsL25allLCCompatibleTraversalsEv
0000000000408d10 t _ZN7autopas20compatibleTraversalsL25allLCCompatibleTraversalsEv
00000000001d2a23 t _ZN7autopas20compatibleTraversalsL25allLCCompatibleTraversalsEv.cold
00000000001d335e t _ZN7autopas20compatibleTraversalsL25allLCCompatibleTraversalsEv.cold
00000000001d3a3e t _ZN7autopas20compatibleTraversalsL25allLCCompatibleTraversalsEv.cold
0000000000263a70 t _ZN7autopas20compatibleTraversalsL26allVLCCompatibleTraversalsEv
00000000003fd790 W _ZN7autopas21BayesianClusterSearch11addEvidenceElm
00000000003fb700 W _ZN7autopas21BayesianClusterSearch13updateOptionsEv
00000000003fb8e0 W _ZN7autopas21BayesianClusterSearch14removeN3OptionENS_7options13Newton3OptionE
00000000003f72b0 W _ZN7autopas21BayesianClusterSearch18sampleAcquisitionsEmNS_7options25AcquisitionFunctionOptionE
00000000003f7a30 W _ZN7autopas21BayesianClusterSearch4tuneEb
00000000003e5f90 W _ZN7autopas21BayesianClusterSearch5resetEm
0000000000400fe0 W _ZN7autopas21BayesianClusterSearchC1ERKSt3setINS_7options15ContainerOptionESt4lessIS3_ESaIS3_EERKNS_9NumberSetIdEERKS1_INS2_15TraversalOptionES4_ISE_ESaISE_EERKS1_INS_19LoadEstimatorOptionES4_ISK_ESaISK_EERKS1_INS2_16DataLayoutOptionES4_ISQ_ESaISQ_EERKS1_INS2_13Newton3OptionES4_ISW_ESaISW_EEmNS2_25AcquisitionFunctionOptionERKNSt7__cxx1112basic_stringIcSt11char_traitsIcESaIcEEEmm
0000000000400fe0 W _ZN7autopas21BayesianClusterSearchC2ERKSt3setINS_7options15ContainerOptionESt4lessIS3_ESaIS3_EERKNS_9NumberSetIdEERKS1_INS2_15TraversalOptionES4_ISE_ESaISE_EERKS1_INS_19LoadEstimatorOptionES4_ISK_ESaISK_EERKS1_INS2_16DataLayoutOptionES4_ISQ_ESaISQ_EERKS1_INS2_13Newton3OptionES4_ISW_ESaISW_EEmNS2_25AcquisitionFunctionOptionERKNSt7__cxx1112basic_stringIcSt11char_traitsIcESaIcEEEmm
00000000003e80e0 W _ZN7autopas21BayesianClusterSearchD0Ev
00000000003e78f0 W _ZN7autopas21BayesianClusterSearchD1Ev
00000000003e78f0 W _ZN7autopas21BayesianClusterSearchD2Ev
00000000001f9d70 W _ZN7autopas21DSSequentialTraversalINS_16FullParticleCellINS_10MoleculeLJIdEEEENS_27VLCAllCellsGeneratorFunctorIS3_EELNS_7options16DataLayoutOption5ValueE0ELb0EE12endTraversalEv
00000000001f9d60 W _ZN7autopas21DSSequentialTraversalINS_16FullParticleCellINS_10MoleculeLJIdEEEENS_27VLCAllCellsGeneratorFunctorIS3_EELNS_7options16DataLayoutOption5ValueE0ELb0EE13initTraversalEv
000000000033c070 W _ZN7autopas21DSSequentialTraversalINS_16FullParticleCellINS_10MoleculeLJIdEEEENS_27VLCAllCellsGeneratorFunctorIS3_EELNS_7options16DataLayoutOption5ValueE0ELb0EE21traverseParticlePairsEv
0000000000200590 W _ZN7autopas21DSSequentialTraversalINS_16FullParticleCellINS_10MoleculeLJIdEEEENS_27VLCAllCellsGeneratorFunctorIS3_EELNS_7options16DataLayoutOption5ValueE0ELb0EED0Ev
00000000001f7be0 W _ZN7autopas21DSSequentialTraversalINS_16FullParticleCellINS_10MoleculeLJIdEEEENS_27VLCAllCellsGeneratorFunctorIS3_EELNS_7options16DataLayoutOption5ValueE0ELb0EED1Ev
00000000001f7be0 W _ZN7autopas21DSSequentialTraversalINS_16FullParticleCellINS_10MoleculeLJIdEEEENS_27VLCAllCellsGeneratorFunctorIS3_EELNS_7options16DataLayoutOption5ValueE0ELb0EED2Ev
00000000001fa920 W _ZN7autopas21DSSequentialTraversalINS_16FullParticleCellINS_10MoleculeLJIdEEEENS_27VLCAllCellsGeneratorFunctorIS3_EELNS_7options16DataLayoutOption5ValueE0ELb1EE12endTraversalEv
00000000001fa910 W _ZN7autopas21DSSequentialTraversalINS_16FullParticleCellINS_10MoleculeLJIdEEEENS_27VLCAllCellsGeneratorFunctorIS3_EELNS_7options16DataLayoutOption5ValueE0ELb1EE13initTraversalEv
00000000003394e0 W _ZN7autopas21DSSequentialTraversalINS_16FullParticleCellINS_10MoleculeLJIdEEEENS_27VLCAllCellsGeneratorFunctorIS3_EELNS_7options16DataLayoutOption5ValueE0ELb1EE21traverseParticlePairsEv
00000000002005a0 W _ZN7autopas21DSSequentialTraversalINS_16FullParticleCellINS_10MoleculeLJIdEEEENS_27VLCAllCellsGeneratorFunctorIS3_EELNS_7options16DataLayoutOption5ValueE0ELb1EED0Ev
00000000001f7b10 W _ZN7autopas21DSSequentialTraversalINS_16FullParticleCellINS_10MoleculeLJIdEEEENS_27VLCAllCellsGeneratorFunctorIS3_EELNS_7options16DataLayoutOption5ValueE0ELb1EED1Ev
00000000001f7b10 W _ZN7autopas21DSSequentialTraversalINS_16FullParticleCellINS_10MoleculeLJIdEEEENS_27VLCAllCellsGeneratorFunctorIS3_EELNS_7options16DataLayoutOption5ValueE0ELb1EED2Ev
000000000023ae40 W _ZN7autopas21DSSequentialTraversalINS_16FullParticleCellINS_10MoleculeLJIdEEEENS_27VLCAllCellsGeneratorFunctorIS3_EELNS_7options16DataLayoutOption5ValueE1ELb0EE12endTraversalEv
00000000003d40a0 W _ZN7autopas21DSSequentialTraversalINS_16FullParticleCellINS_10MoleculeLJIdEEEENS_27VLCAllCellsGeneratorFunctorIS3_EELNS_7options16DataLayoutOption5ValueE1ELb0EE13initTraversalEv
0000000000328850 W _ZN7autopas21DSSequentialTraversalINS_16FullParticleCellINS_10MoleculeLJIdEEEENS_27VLCAllCellsGeneratorFunctorIS3_EELNS_7options16DataLayoutOption5ValueE1ELb0EE21traverseParticlePairsEv
0000000000200570 W _ZN7autopas21DSSequentialTraversalINS_16FullParticleCellINS_10MoleculeLJIdEEEENS_27VLCAllCellsGeneratorFunctorIS3_EELNS_7options16DataLayoutOption5ValueE1ELb0EED0Ev
00000000001f7d80 W _ZN7autopas21DSSequentialTraversalINS_16FullParticleCellINS_10MoleculeLJIdEEEENS_27VLCAllCellsGeneratorFunctorIS3_EELNS_7options16DataLayoutOption5ValueE1ELb0EED1Ev
00000000001f7d80 W _ZN7autopas21DSSequentialTraversalINS_16FullParticleCellINS_10MoleculeLJIdEEEENS_27VLCAllCellsGeneratorFunctorIS3_EELNS_7options16DataLayoutOption5ValueE1ELb0EED2Ev
000000000023afd0 W _ZN7autopas21DSSequentialTraversalINS_16FullParticleCellINS_10MoleculeLJIdEEEENS_27VLCAllCellsGeneratorFunctorIS3_EELNS_7options16DataLayoutOption5ValueE1ELb1EE12endTraversalEv
00000000003d3e00 W _ZN7autopas21DSSequentialTraversalINS_16FullParticleCellINS_10MoleculeLJIdEEEENS_27VLCAllCellsGeneratorFunctorIS3_EELNS_7options16DataLayoutOption5ValueE1ELb1EE13initTraversalEv
000000000032e7b0 W _ZN7autopas21DSSequentialTraversalINS_16FullParticleCellINS_10MoleculeLJIdEEEENS_27VLCAllCellsGeneratorFunctorIS3_EELNS_7options16DataLayoutOption5ValueE1ELb1EE21traverseParticlePairsEv
0000000000200580 W _ZN7autopas21DSSequentialTraversalINS_16FullParticleCellINS_10MoleculeLJIdEEEENS_27VLCAllCellsGeneratorFunctorIS3_EELNS_7options16DataLayoutOption5ValueE1ELb1EED0Ev
00000000001f7cb0 W _ZN7autopas21DSSequentialTraversalINS_16FullParticleCellINS_10MoleculeLJIdEEEENS_27VLCAllCellsGeneratorFunctorIS3_EELNS_7options16DataLayoutOption5ValueE1ELb1EED1Ev
00000000001f7cb0 W _ZN7autopas21DSSequentialTraversalINS_16FullParticleCellINS_10MoleculeLJIdEEEENS_27VLCAllCellsGeneratorFunctorIS3_EELNS_7options16DataLayoutOption5ValueE1ELb1EED2Ev
00000000001fc9d0 W _ZN7autopas21DSSequentialTraversalINS_16FullParticleCellINS_10MoleculeLJIdEEEENS_27VLCCellPairGeneratorFunctorIS3_EELNS_7options16DataLayoutOption5ValueE0ELb0EE12endTraversalEv
00000000001fc9c0 W _ZN7autopas21DSSequentialTraversalINS_16FullParticleCellINS_10MoleculeLJIdEEEENS_27VLCCellPairGeneratorFunctorIS3_EELNS_7options16DataLayoutOption5ValueE0ELb0EE13initTraversalEv
00000000003886a0 W _ZN7autopas21DSSequentialTraversalINS_16FullParticleCellINS_10MoleculeLJIdEEEENS_27VLCCellPairGeneratorFunctorIS3_EELNS_7options16DataLayoutOption5ValueE0ELb0EE21traverseParticlePairsEv
00000000002005d0 W _ZN7autopas21DSSequentialTraversalINS_16FullParticleCellINS_10MoleculeLJIdEEEENS_27VLCCellPairGeneratorFunctorIS3_EELNS_7options16DataLayoutOption5ValueE0ELb0EED0Ev
00000000001f7700 W _ZN7autopas21DSSequentialTraversalINS_16FullParticleCellINS_10MoleculeLJIdEEEENS_27VLCCellPairGeneratorFunctorIS3_EELNS_7options16DataLayoutOption5ValueE0ELb0EED1Ev
00000000001f7700 W _ZN7autopas21DSSequentialTraversalINS_16FullParticleCellINS_10MoleculeLJIdEEEENS_27VLCCellPairGeneratorFunctorIS3_EELNS_7options16DataLayoutOption5ValueE0ELb0EED2Ev
00000000001fd580 W _ZN7autopas21DSSequentialTraversalINS_16FullParticleCellINS_10MoleculeLJIdEEEENS_27VLCCellPairGeneratorFunctorIS3_EELNS_7options16DataLayoutOption5ValueE0ELb1EE12endTraversalEv
00000000001fd570 W _ZN7autopas21DSSequentialTraversalINS_16FullParticleCellINS_10MoleculeLJIdEEEENS_27VLCCellPairGeneratorFunctorIS3_EELNS_7options16DataLayoutOption5ValueE0ELb1EE13initTraversalEv
0000000000384070 W _ZN7autopas21DSSequentialTraversalINS_16FullParticleCellINS_10MoleculeLJIdEEEENS_27VLCCellPairGeneratorFunctorIS3_EELNS_7options16DataLayoutOption5ValueE0ELb1EE21traverseParticlePairsEv
0000000000200560 W _ZN7autopas21DSSequentialTraversalINS_16FullParticleCellINS_10MoleculeLJIdEEEENS_27VLCCellPairGeneratorFunctorIS3_EELNS_7options16DataLayoutOption5ValueE0ELb1EED0Ev
00000000001f7630 W _ZN7autopas21DSSequentialTraversalINS_16FullParticleCellINS_10MoleculeLJIdEEEENS_27VLCCellPairGeneratorFunctorIS3_EELNS_7options16DataLayoutOption5ValueE0ELb1EED1Ev
00000000001f7630 W _ZN7autopas21DSSequentialTraversalINS_16FullParticleCellINS_10MoleculeLJIdEEEENS_27VLCCellPairGeneratorFunctorIS3_EELNS_7options16DataLayoutOption5ValueE0ELb1EED2Ev
000000000023acb0 W _ZN7autopas21DSSequentialTraversalINS_16FullParticleCellINS_10MoleculeLJIdEEEENS_27VLCCellPairGeneratorFunctorIS3_EELNS_7options16DataLayoutOption5ValueE1ELb0EE12endTraversalEv
00000000003d4340 W _ZN7autopas21DSSequentialTraversalINS_16FullParticleCellINS_10MoleculeLJIdEEEENS_27VLCCellPairGeneratorFunctorIS3_EELNS_7options16DataLayoutOption5ValueE1ELb0EE13initTraversalEv
000000000038c2c0 W _ZN7autopas21DSSequentialTraversalINS_16FullParticleCellINS_10MoleculeLJIdEEEENS_27VLCCellPairGeneratorFunctorIS3_EELNS_7options16DataLayoutOption5ValueE1ELb0EE21traverseParticlePairsEv
00000000002005b0 W _ZN7autopas21DSSequentialTraversalINS_16FullParticleCellINS_10MoleculeLJIdEEEENS_27VLCCellPairGeneratorFunctorIS3_EELNS_7options16DataLayoutOption5ValueE1ELb0EED0Ev
00000000001f78a0 W _ZN7autopas21DSSequentialTraversalINS_16FullParticleCellINS_10MoleculeLJIdEEEENS_27VLCCellPairGeneratorFunctorIS3_EELNS_7options16DataLayoutOption5ValueE1ELb0EED1Ev
